 sauerbraten

 Timestamp is 4cddaccb (Sat Nov 13 04:08:27 2010)

 Preferred load address is 00400000

 Start         Length     Name                   Class
 0001:00000000 000e8331H .text                   CODE
 0001:000e8331 00002489H .text$x                 CODE
 0001:000ea7ba 0000c292H .text$yc                CODE
 0001:000f6a4c 000011a6H .text$yd                CODE
 0002:00000000 000004ccH .idata$5                DATA
 0002:000004cc 00000004H .CRT$XCA                DATA
 0002:000004d0 0000148cH .CRT$XCU                DATA
 0002:0000195c 00000004H .CRT$XCZ                DATA
 0002:00001960 00000004H .CRT$XIA                DATA
 0002:00001964 00000014H .CRT$XIC                DATA
 0002:00001978 00000004H .CRT$XIY                DATA
 0002:0000197c 00000004H .CRT$XIZ                DATA
 0002:00001980 00000004H .CRT$XPA                DATA
 0002:00001984 00000004H .CRT$XPX                DATA
 0002:00001988 00000004H .CRT$XPXA               DATA
 0002:0000198c 00000004H .CRT$XPZ                DATA
 0002:00001990 00000004H .CRT$XTA                DATA
 0002:00001994 00000004H .CRT$XTZ                DATA
 0002:000019a0 0001daa2H .rdata                  DATA
 0002:0001f444 00000051H .rdata$debug            DATA
 0002:0001f498 00001634H .rdata$r                DATA
 0002:00020acc 00000004H .rtc$IAA                DATA
 0002:00020ad0 00000004H .rtc$IZZ                DATA
 0002:00020ad4 00000004H .rtc$TAA                DATA
 0002:00020ad8 00000004H .rtc$TZZ                DATA
 0002:00020ae0 0000488cH .xdata$x                DATA
 0002:0002536c 000000c8H .idata$2                DATA
 0002:00025434 00000014H .idata$3                DATA
 0002:00025448 000004ccH .idata$4                DATA
 0002:00025914 000012e2H .idata$6                DATA
 0002:00026bf6 00000000H .edata                  DATA
 0003:00000000 00005710H .data                   DATA
 0003:00005720 000acae4H .bss                    DATA
 0004:00000000 000000b4H .rsrc$01                DATA
 0004:000000c0 000025c0H .rsrc$02                DATA

  Address         Publics by Value              Rva+Base       Lib:Object

 0000:00000000       __except_list              00000000     <absolute>
 0000:00000000       ___safe_se_handler_table   00000000     <absolute>
 0000:00000000       ___safe_se_handler_count   00000000     <absolute>
 0000:00000000       ___ImageBase               00400000     <linker-defined>
 0001:00000000       ??_H@YGXPAXIHP6EPAX0@Z@Z   00401000 f i pch1.obj
 0001:00000115       _main                      00401115 f   SDL_win32_main.obj
 0001:000001dd       ?cleanup@BlendMapNode@@QAEXH@Z 004011dd f   blend.obj
 0001:00000223       ?splitsolid@BlendMapNode@@QAEXAAEE@Z 00401223 f   blend.obj
 0001:0000025d       ?setblendmaporigin@@YA_NPAUBlendMapCache@@ABUivec@@H@Z 0040125d f   blend.obj
 0001:000003c4       ?lookupblendmap@@YAEPAUBlendMapCache@@ABUvec@@@Z 004013c4 f   blend.obj
 0001:0000076a       ?fillblendmap@@YAXHHHHE@Z  0040176a f   blend.obj
 0001:00000979       ?invertblendmap@@YAXHHHH@Z 00401979 f   blend.obj
 0001:00000ad6       ?optimizeblendmap@@YAXXZ   00401ad6 f   blend.obj
 0001:00000ae8       ?var_blendpaintmode@@YAXXZ 00401ae8 f   blend.obj
 0001:00000dad       ?blitblendmap@@YAXPAEHHHH@Z 00401dad f   blend.obj
 0001:00000e05       ?resetblendmap@@YAXXZ      00401e05 f   blend.obj
 0001:00000e29       ?gentex@BlendBrush@@QAEXXZ 00401e29 f i blend.obj
 0001:00000f03       ?reorient@BlendBrush@@QAEX_N00@Z 00401f03 f i blend.obj
 0001:00000fc8       ?clearblendbrushes@@YAXXZ  00401fc8 f   blend.obj
 0001:00001001       ??_GBlendBrush@@QAEPAXI@Z  00402001 f i blend.obj
 0001:00001037       ?delblendbrush@@YAXPBD@Z   00402037 f   blend.obj
 0001:000010ca       ?addblendbrush@@YAXPBD0@Z  004020ca f   blend.obj
 0001:0000126a       ?nextblendbrush@@YAXPAH@Z  0040226a f   blend.obj
 0001:000012b6       ?setblendbrush@@YAXPBD@Z   004022b6 f   blend.obj
 0001:000012ef       ?getblendbrushname@@YAXPAH@Z 004022ef f   blend.obj
 0001:0000131b       ?curblendbrush@@YAXXZ      0040231b f   blend.obj
 0001:00001328       ?canpaintblendmap@@YA_N_N00@Z 00402328 f   blend.obj
 0001:00001388       ?rotateblendbrush@@YAXPAH@Z 00402388 f   blend.obj
 0001:000013e9       ?paintblendmap@@YAX_N@Z    004023e9 f   blend.obj
 0001:000014f6       ?trypaintblendmap@@YAXXZ   004024f6 f   blend.obj
 0001:00001549       ?run@?$_icmd_paintblendmap@$0CKP@@@SAXPAH@Z 00402549 f   blend.obj
 0001:00001574       ?clearblendmapsel@@YAXXZ   00402574 f   blend.obj
 0001:0000162d       ?invertblendmapsel@@YAXXZ  0040262d f   blend.obj
 0001:000016e6       ?invertblendmap@@YAXXZ     004026e6 f   blend.obj
 0001:0000174d       ?showblendmap@@YAXXZ       0040274d f   blend.obj
 0001:000017a2       ?run@?$_icmd_clearblendmap@$0COD@@@SAXXZ 004027a2 f   blend.obj
 0001:000017d1       ?renderblendbrush@@YAXXZ   004027d1 f   blend.obj
 0001:00001928       ?loadblendmap@@YA_NPAUstream@@AAEAAUBlendMapNode@@@Z 00402928 f   blend.obj
 0001:000019e0       ?saveblendmap@@YAXPAUstream@@EAAUBlendMapNode@@@Z 004029e0 f   blend.obj
 0001:00001a48       ?growbuf@?$vector@PAUBlendBrush@@@@QAEXH@Z 00402a48 f i blend.obj
 0001:00001ac4       ?cleanup@ImageData@@QAEXXZ 00402ac4 f i blend.obj
 0001:00001aed       ??1ImageData@@QAE@XZ       00402aed f i blend.obj
 0001:00001af7       ??0ImageData@@QAE@XZ       00402af7 f i blend.obj
 0001:00001b05       ?newstring@@YAPADPBDI@Z    00402b05 f i blend.obj
 0001:00001b2a       ?create_ent@cubeloader@@QAEXAAUc_persistent_entity@1@@Z 00402b2a f i cubeloader.obj
 0001:00001cd5       ?getcube@cubeloader@@QAEAAUcube@@HHH@Z 00402cd5 f i cubeloader.obj
 0001:00001d22       ?neighbours@cubeloader@@QAEHAAUc_sqr@1@@Z 00402d22 f i cubeloader.obj
 0001:00001d59       ?preprocess_cubes@cubeloader@@QAEXXZ 00402d59 f i cubeloader.obj
 0001:00001dd8       ?getfloorceil@cubeloader@@QAEHAAUc_sqr@1@AAH1@Z 00402dd8 f i cubeloader.obj
 0001:00001e39       ?boundingbox@cubeloader@@QAEXXZ 00402e39 f i cubeloader.obj
 0001:00001ee1       ?hf@cubeloader@@QAEXHHHHHH@Z 00402ee1 f i cubeloader.obj
 0001:00001f66       ?cornersolid@cubeloader@@QAE_NHPAUc_sqr@1@@Z 00402f66 f i cubeloader.obj
 0001:00001f84       ?create_cubes@cubeloader@@QAEXXZ 00402f84 f i cubeloader.obj
 0001:000022f6       ?load_cube_world@cubeloader@@QAEXPAD@Z 004032f6 f i cubeloader.obj
 0001:000027a2       ?importcube@@YAXPAD@Z      004037a2 f   cubeloader.obj
 0001:000027d9       ??Rstringformatter@@QAAXPBDZZ 004037d9 f i cubeloader.obj
 0001:000027fc       ?var_ambient@@YAXXZ        004037fc f   lightmap.obj
 0001:00002841       ?var_skylight@@YAXXZ       00403841 f   lightmap.obj
 0001:00002886       ?check_calclight_canceled@@YAXXZ 00403886 f   lightmap.obj
 0001:000028c7       ?show_calclight_progress@@YAXXZ 004038c7 f   lightmap.obj
 0001:00002a71       ?insert@PackNode@@QAE_NAAG0GG@Z 00403a71 f   lightmap.obj
 0001:00002c64       ?insert@LightMap@@QAE_NAAG0PAEGG@Z 00403c64 f   lightmap.obj
 0001:00002ca5       ?copy@LightMap@@QAEXGGPAEGG@Z 00403ca5 f   lightmap.obj
 0001:00005794       ??0lightcacheentry@@QAE@XZ 00406794 f i lightmap.obj
 0001:000057bf       ??1lightcacheentry@@QAE@XZ 004067bf f i lightmap.obj
 0001:000057e5       ?var_lightcachesize@@YAXXZ 004067e5 f   lightmap.obj
 0001:000057ed       ?clearlightcache@@YAXH@Z   004067ed f   lightmap.obj
 0001:00005928       ?checklightcache@@YAABU?$vector@H@@HH@Z 00406928 f   lightmap.obj
 0001:00007815       ?work@lightmapworker@@SAHPAX@Z 00408815 f   lightmap.obj
 0001:00008329       ?previewblends@@YAXABUivec@@0@Z 00409329 f   lightmap.obj
 0001:000083cd       ?cleanuplightmaps@@YAXXZ   004093cd f   lightmap.obj
 0001:00008451       ?resetlightmaps@@YAX_N@Z   00409451 f   lightmap.obj
 0001:000084a9       ??0lightmapworker@@QAE@XZ  004094a9 f   lightmap.obj
 0001:000085b2       ??1lightmapworker@@QAE@XZ  004095b2 f   lightmap.obj
 0001:00008635       ?cleanupthread@lightmapworker@@QAEXXZ 00409635 f   lightmap.obj
 0001:00008655       ?reset@lightmapworker@@QAEXXZ 00409655 f   lightmap.obj
 0001:000086a0       ?setlightmapquality@@YA_NH@Z 004096a0 f   lightmap.obj
 0001:000089c8       ?calclight@@YAXPAH@Z       004099c8 f   lightmap.obj
 0001:00008bc8       ?patchlight@@YAXPAH@Z      00409bc8 f   lightmap.obj
 0001:00008ddb       ?clearlightmaps@@YAXXZ     00409ddb f   lightmap.obj
 0001:00008e20       ?var_fullbright@@YAXXZ     00409e20 f   lightmap.obj
 0001:00008e2f       ?var_fullbrightlevel@@YAXXZ 00409e2f f   lightmap.obj
 0001:000090dd       ?genreservedlightmaptexs@@YAXXZ 0040a0dd f   lightmap.obj
 0001:00009367       ?var_batchlightmaps@@YAXXZ 0040a367 f   lightmap.obj
 0001:00009367       ?var_convertlms@@YAXXZ     0040a367 f   lightmap.obj
 0001:00009367       ?var_roundlightmaptex@@YAXXZ 0040a367 f   lightmap.obj
 0001:0000937a       ?genlightmaptexs@@YAXHH@Z  0040a37a f   lightmap.obj
 0001:00009739       ?clearlights@@YAXXZ        0040a739 f   lightmap.obj
 0001:000097b0       ?lightent@@YAXAAUextentity@@M@Z 0040a7b0 f   lightmap.obj
 0001:00009838       ?initlights@@YAXXZ         0040a838 f   lightmap.obj
 0001:00009c4e       ?lightreaching@@YAXABUvec@@AAU1@1_NPAUextentity@@M@Z 0040ac4e f   lightmap.obj
 0001:0000a11b       ?brightestlight@@YAPAUentity@@ABUvec@@0@Z 0040b11b f   lightmap.obj
 0001:0000a3a8       ?brightencube@@YAXAAUcube@@@Z 0040b3a8 f   lightmap.obj
 0001:0000a3da       ?newsurfaces@@YAXAAUcube@@PBUsurfaceinfo@@H@Z 0040b3da f   lightmap.obj
 0001:0000a431       ?freesurfaces@@YAXAAUcube@@@Z 0040b431 f   lightmap.obj
 0001:0000a456       ?dumplms@@YAXXZ            0040b456 f   lightmap.obj
 0001:0000a557       ?add@?$vector@ULightMap@@@@QAEAAULightMap@@XZ 0040b557 f i lightmap.obj
 0001:0000a5b7       ?shrink@?$vector@ULightMap@@@@QAEXH@Z 0040b5b7 f i lightmap.obj
 0001:0000a614       ?add@?$vector@ULightMapTexture@@@@QAEAAULightMapTexture@@XZ 0040b614 f i lightmap.obj
 0001:0000a680       ?add@?$vector@PAUpart@animmodel@@@@QAEAAPAUpart@animmodel@@ABQAU23@@Z 0040b680 f i rendermodel.obj
 0001:0000a680       ?add@?$vector@PAUmesh@animmodel@@@@QAEAAPAUmesh@animmodel@@ABQAU23@@Z 0040b680 f i rendermodel.obj
 0001:0000a680       ?add@?$vector@PAUskelmeshgroup@skelmodel@@@@QAEAAPAUskelmeshgroup@skelmodel@@ABQAU23@@Z 0040b680 f i rendermodel.obj
 0001:0000a680       ?add@?$vector@PAUvtxarray@@@@QAEAAPAUvtxarray@@ABQAU2@@Z 0040b680 f i octarender.obj
 0001:0000a680       ?add@?$vector@PAUfpsent@@@@QAEAAPAUfpsent@@ABQAU2@@Z 0040b680 f i fps.obj
 0001:0000a680       ?add@?$vector@PAUmaterialsurface@@@@QAEAAPAUmaterialsurface@@ABQAU2@@Z 0040b680 f i pvs.obj
 0001:0000a680       ?add@?$vector@H@@QAEAAHABH@Z 0040b680 f i lightmap.obj
 0001:0000a680       ?add@?$vector@PAUphysent@@@@QAEAAPAUphysent@@ABQAU2@@Z 0040b680 f i physics.obj
 0001:0000a680       ?add@?$vector@PAUoctaentities@@@@QAEAAPAUoctaentities@@ABQAU2@@Z 0040b680 f i octarender.obj
 0001:0000a680       ?add@?$vector@PBUextentity@@@@QAEAAPBUextentity@@ABQBU2@@Z 0040b680 f i lightmap.obj
 0001:0000a680       ?add@?$vector@PBD@@QAEAAPBDABQBD@Z 0040b680 f i serverbrowser.obj
 0001:0000a680       ?add@?$vector@PAD@@QAEAAPADABQAD@Z 0040b680 f i command.obj
 0001:0000a680       ?add@?$vector@PAUident@@@@QAEAAPAUident@@ABQAU2@@Z 0040b680 f i command.obj
 0001:0000a680       ?add@?$vector@PAUplatforment@@@@QAEAAPAUplatforment@@ABQAU2@@Z 0040b680 f i physics.obj
 0001:0000a680       ?add@?$vector@PAUextentity@@@@QAEAAPAUextentity@@ABQAU2@@Z 0040b680 f i cubeloader.obj
 0001:0000a680       ?add@?$vector@PAUclientinfo@server@@@@QAEAAPAUclientinfo@server@@ABQAU23@@Z 0040b680 f i server1.obj
 0001:0000a6b7       ?add@?$vector@PAUlightmapworker@@@@QAEAAPAUlightmapworker@@ABQAU2@@Z 0040b6b7 f i lightmap.obj
 0001:0000a6fd       ?clear@?$hashset@Ucompressval@@@@QAEXXZ 0040b6fd f i lightmap.obj
 0001:0000a735       ?growbuf@?$vector@ULightMap@@@@QAEXH@Z 0040b735 f i lightmap.obj
 0001:0000a797       ?growbuf@?$vector@ULightMapTexture@@@@QAEXH@Z 0040b797 f i lightmap.obj
 0001:0000a7f9       ?growbuf@?$vector@PAUlightmapworker@@@@QAEXH@Z 0040b7f9 f i lightmap.obj
 0001:0000a85d       ?deletechunks@?$hashset@Ucompressval@@@@QAEXXZ 0040b85d f i lightmap.obj
 0001:0000a881       ??$?AUcompresskey@@@?$hashset@Ucompressval@@@@QAEAAUcompressval@@ABUcompresskey@@@Z 0040b881 f i lightmap.obj
 0001:0000a8c6       ?insert@?$hashset@Ucompressval@@@@QAEPAUchain@1@I@Z 0040b8c6 f i lightmap.obj
 0001:0000a95e       ??0LightMap@@QAE@XZ        0040b95e f i lightmap.obj
 0001:0000a9cb       ?calcsize@ImageData@@QBEHXZ 0040b9cb f i lightmap.obj
 0001:0000aa4e       ?setdata@ImageData@@QAEXPAEHHHHHI@Z 0040ba4e f i lightmap.obj
 0001:0000aaa7       ?boundbox@model@@QAEXHAAUvec@@0@Z 0040baa7 f i lightmap.obj
 0001:0000ab01       ?above@model@@QAEMH@Z      0040bb01 f i lightmap.obj
 0001:0000ab22       ??8bvec@@QBE_NABU0@@Z      0040bb22 f i lightmap.obj
 0001:0000ab3f       ??0ivec@@QAE@HHHHH@Z       0040bb3f f i lightmap.obj
 0001:0000ab75       ??0bvec@@QAE@XZ            0040bb75 f i normal.obj
 0001:0000ab75       ??0vec@@QAE@XZ             0040bb75 f i lightmap.obj
 0001:0000ab75       ??0plane@@QAE@XZ           0040bb75 f i lightmap.obj
 0001:0000ab78       ??8vec@@QBE_NABU0@@Z       0040bb78 f i lightmap.obj
 0001:0000aba4       ??0bvec@@QAE@ABUvec@@@Z    0040bba4 f i lightmap.obj
 0001:0000abda       ?orthonormalize@vec@@QBEXAAU1@0@Z 0040bbda f i lightmap.obj
 0001:0000ac9d       ?iszero@vec@@QBE_NXZ       0040bc9d f i lightmap.obj
 0001:0000acc5       ?normalize@vec@@QAEAAU1@XZ 0040bcc5 f i lightmap.obj
 0001:0000ace7       ?mul@vec@@QAEAAU1@M@Z      0040bce7 f i lightmap.obj
 0001:0000ad06       ?magnitude@vec@@QBEMXZ     0040bd06 f i lightmap.obj
 0001:0000ad2b       ??0PackNode@@QAE@GGGG@Z    0040bd2b f i lightmap.obj
 0001:0000ad64       ??1PackNode@@QAE@XZ        0040bd64 f i lightmap.obj
 0001:0000ad69       ?clear@PackNode@@QAEXXZ    0040bd69 f i lightmap.obj
 0001:0000ae0a       ?findnormal@@YAXABUvec@@0AAU1@@Z 0040be0a f   normal.obj
 0001:0000afac       ?show_calcnormals_progress@@YAXXZ 0040bfac f   normal.obj
 0001:0000afde       ?addnormals@@YAXAAUcube@@ABUivec@@H@Z 0040bfde f   normal.obj
 0001:0000b4dc       ?calcnormals@@YAXXZ        0040c4dc f   normal.obj
 0001:0000b55c       ?clearnormals@@YAXXZ       0040c55c f   normal.obj
 0001:0000b59c       ?calclerpverts@@YAXABUvec@@PBU1@100PAUlerpvert@@AAH@Z 0040c59c f   normal.obj
 0001:0000b6f2       ?setlerpstep@@YAXMAAUlerpbounds@@@Z 0040c6f2 f   normal.obj
 0001:0000b80f       ?initlerpbounds@@YAXPBUlerpvert@@HAAUlerpbounds@@1@Z 0040c80f f   normal.obj
 0001:0000b8e2       ?updatelerpbounds@@YAXMPBUlerpvert@@HAAUlerpbounds@@1@Z 0040c8e2 f   normal.obj
 0001:0000b970       ?lerpnormal@@YAXMPBUlerpvert@@HAAUlerpbounds@@1AAUvec@@2@Z 0040c970 f   normal.obj
 0001:0000bad4       ?newnormals@@YAXAAUcube@@@Z 0040cad4 f   normal.obj
 0001:0000bb62       ?freenormals@@YAXAAUcube@@@Z 0040cb62 f   normal.obj
 0001:0000bb7f       ??0?$hashtable@Uvec@@Unval@@@@QAE@H@Z 0040cb7f f i normal.obj
 0001:0000bbee       ??A?$hashtable@Uvec@@Unval@@@@QAEAAUnval@@ABUvec@@@Z 0040cbee f i normal.obj
 0001:0000bc58       ??1?$hashset@U?$hashtableentry@Uvec@@Unval@@@@@@QAE@XZ 0040cc58 f i normal.obj
 0001:0000bc74       ?deletechunks@?$hashset@U?$hashtableentry@Uvec@@Unval@@@@@@QAEXXZ 0040cc74 f i normal.obj
 0001:0000bc98       ?growbuf@?$vector@Unormal@@@@QAEXH@Z 0040cc98 f i normal.obj
 0001:0000bcfa       ?insert@?$hashset@U?$hashtableentry@Uvec@@Unval@@@@@@QAEPAUchain@1@I@Z 0040ccfa f i normal.obj
 0001:0000bdad       ??9vec@@QBE_NABU0@@Z       0040cdad f i normal.obj
 0001:0000bdd9       ?newcubeext@@YAPAUcubeext@@AAUcube@@@Z 0040cdd9 f   octa.obj
 0001:0000be32       ?newcubes@@YAPAUcube@@I@Z  0040ce32 f   octa.obj
 0001:0000be7c       ?familysize@@YAHAAUcube@@@Z 0040ce7c f   octa.obj
 0001:0000beaa       ?freeocta@@YAXPAUcube@@@Z  0040ceaa f   octa.obj
 0001:0000bed8       ?discardchildren@@YAXAAUcube@@_NH@Z 0040ced8 f   octa.obj
 0001:0000bfc7       ?getcubevector@@YAXAAUcube@@HHHHAAUivec@@@Z 0040cfc7 f   octa.obj
 0001:0000c033       ?setcubevector@@YAXAAUcube@@HHHHABUivec@@@Z 0040d033 f   octa.obj
 0001:0000c1ea       ?optiface@@YAXPAEAAUcube@@@Z 0040d1ea f   octa.obj
 0001:0000c215       ?printcube@@YAXXZ          0040d215 f   octa.obj
 0001:0000c295       ?isvalidcube@@YA_NAAUcube@@@Z 0040d295 f   octa.obj
 0001:0000c2fa       ?validatec@@YAXPAUcube@@H@Z 0040d2fa f   octa.obj
 0001:0000c39b       ?lookupcube@@YAAAUcube@@HHHHAAUivec@@AAH@Z 0040d39b f   octa.obj
 0001:0000c4df       ?lookupmaterial@@YAHABUvec@@@Z 0040d4df f   octa.obj
 0001:0000c572       ?neighbourcube@@YAAAUcube@@AAU1@HHHHHAAUivec@@AAH@Z 0040d572 f   octa.obj
 0001:0000c668       ?getmippedtexture@@YAHAAUcube@@H@Z 0040d668 f   octa.obj
 0001:0000c750       ?forcemip@@YAXAAUcube@@_N@Z 0040d750 f   octa.obj
 0001:0000c805       ?midedge@@YAHABUivec@@0HHAA_N@Z 0040d805 f   octa.obj
 0001:0000c91f       ?subdividecube@@YA_NAAUcube@@_N1@Z 0040d91f f   octa.obj
 0001:0000cda6       ?visibleorient@@YAHAAUcube@@H@Z 0040dda6 f   octa.obj
 0001:0000ce30       ?remip@@YA_NAAUcube@@HHHH@Z 0040de30 f   octa.obj
 0001:0000d21d       ?mpremip@@YAX_N@Z          0040e21d f   octa.obj
 0001:0000d2e7       ?remip_@@YAXXZ             0040e2e7 f   octa.obj
 0001:0000d333       ?genvertp@@YAXAAUcube@@AAUivec@@11AAUplane@@@Z 0040e333 f   octa.obj
 0001:0000d411       ?threeplaneintersect@@YA_NAAUplane@@00AAUvec@@@Z 0040e411 f   octa.obj
 0001:0000d501       ?genedgespanvert@@YAXAAUivec@@AAUcube@@AAUvec@@@Z 0040e501 f   octa.obj
 0001:0000d69f       ?edgespan2vectorcube@@YAXAAUcube@@@Z 0040e69f f   octa.obj
 0001:0000d809       ?genvectorvert@@YAXABUivec@@AAUcube@@AAU1@@Z 0040e809 f   octa.obj
 0001:0000d83a       ?flataxisface@@YA_NAAUcube@@H@Z 0040e83a f   octa.obj
 0001:0000d868       ?touchingface@@YA_NAAUcube@@H@Z 0040e868 f   octa.obj
 0001:0000d890       ?faceconvexity@@YAHAAUcube@@H@Z 0040e890 f   octa.obj
 0001:0000d94f       ?faceverts@@YAHAAUcube@@HH@Z 0040e94f f   octa.obj
 0001:0000d976       ?faceedges@@YAIAAUcube@@H@Z 0040e976 f   octa.obj
 0001:0000de6f       ?collapsedface@@YA_NI@Z    0040ee6f f   octa.obj
 0001:0000e07b       ?visibleface@@YA_NAAUcube@@HHHHHEEE@Z 0040f07b f   octa.obj
 0001:0000e2bc       ?visibletris@@YAHAAUcube@@HHHHH@Z 0040f2bc f   octa.obj
 0001:0000e6bb       ?calcvert@@YAXAAUcube@@HHHHAAUvec@@H_N@Z 0040f6bb f   octa.obj
 0001:0000e746       ?genclipplane@@YAHAAUcube@@HPAUvec@@PAUplane@@@Z 0040f746 f   octa.obj
 0001:0000e82d       ?genclipplanes@@YAXAAUcube@@HHHHAAUclipplanes@@@Z 0040f82d f   octa.obj
 0001:0000ed7e       ?mergefaces@@YAHHPAUcubeface@@H@Z 0040fd7e f   octa.obj
 0001:0000edba       ?mincubeface@@YAXAAUcube@@HABUivec@@HABUmergeinfo@@AAU3@EE@Z 0040fdba f   octa.obj
 0001:0000f0f2       ?mincubeface@@YA_NAAUcube@@HABUivec@@HAAUmergeinfo@@@Z 004100f2 f   octa.obj
 0001:0000f1ab       ?gencubeface@@YA_NAAUcube@@HABUivec@@HAAU2@AAHAAUcubeface@@@Z 004101ab f   octa.obj
 0001:0000f507       ?addmergeinfo@@YAXAAUcube@@HAAUcubeface@@@Z 00410507 f   octa.obj
 0001:0000f617       ?freemergeinfo@@YAXAAUcube@@@Z 00410617 f   octa.obj
 0001:0000f63e       ?genmergeinfo@@YAXPAUcube@@ABUivec@@H@Z 0041063e f   octa.obj
 0001:0000f91d       ?genmergedverts@@YAXAAUcube@@HABUivec@@HABUmergeinfo@@PAUvec@@PAUplane@@@Z 0041091d f   octa.obj
 0001:0000fb9a       ?calcmergedsize@@YAHHABUivec@@HABUmergeinfo@@PBUvec@@@Z 00410b9a f   octa.obj
 0001:0000fd4b       ?invalidatemerges@@YAXAAUcube@@_N@Z 00410d4b f   octa.obj
 0001:0000fd7e       ??0?$hashtable@Ucfkey@@Ucfval@@@@QAE@H@Z 00410d7e f i octa.obj
 0001:0000fded       ??A?$hashtable@Ucfkey@@Ucfval@@@@QAEAAUcfval@@ABUcfkey@@@Z 00410ded f i octa.obj
 0001:0000fe90       ??1?$hashset@U?$hashtableentry@Ucfkey@@Ucfval@@@@@@QAE@XZ 00410e90 f i octa.obj
 0001:0000feb4       ?deletechunks@?$hashset@U?$hashtableentry@Ucfkey@@Ucfval@@@@@@QAEXXZ 00410eb4 f i octa.obj
 0001:0000ff08       ??1chain@?$hashset@U?$hashtableentry@Ucfkey@@Ucfval@@@@@@QAE@XZ 00410f08 f i octa.obj
 0001:0000ff2c       ??1?$hashtableentry@Ucfkey@@Ucfval@@@@QAE@XZ 00410f2c f i octa.obj
 0001:0000ff54       ??1cfval@@QAE@XZ           00410f54 f i octa.obj
 0001:0000ff78       ?insert@?$hashset@U?$hashtableentry@Ucfkey@@Ucfval@@@@@@QAEPAUchain@1@I@Z 00410f78 f i octa.obj
 0001:0001001d       ??0chain@?$hashset@U?$hashtableentry@Ucfkey@@Ucfval@@@@@@QAE@XZ 0041101d f i octa.obj
 0001:0001004e       ??8ivec@@QBE_NABU0@@Z      0041104e f i octa.obj
 0001:0001006b       ?cross@ivec@@QAEAAU1@ABU1@0@Z 0041106b f i octa.obj
 0001:000100a4       ??8plane@@QBE_NABU0@@Z     004110a4 f i octa.obj
 0001:000100dd       ?toplane@plane@@QAE_NABUvec@@00@Z 004110dd f i octa.obj
 0001:0001018b       ?mul@ivec@@QAEAAU1@H@Z     0041118b f i octa.obj
 0001:000101ad       ??0ivec@@QAE@ABUvec@@@Z    004111ad f i octa.obj
 0001:000101cf       ??0ivec@@QAE@HHHH@Z        004111cf f i octa.obj
 0001:000101fe       ?boxs@@YAXHUvec@@ABU1@@Z   004111fe f   octaedit.obj
 0001:0001024e       ?boxs3D@@YAXABUvec@@U1@H@Z 0041124e f   octaedit.obj
 0001:00010292       ?boxsgrid@@YAXHUvec@@0H@Z  00411292 f   octaedit.obj
 0001:0001030a       ?var_dragging@@YAXXZ       0041130a f   octaedit.obj
 0001:0001034f       ?var_moving@@YAXXZ         0041134f f   octaedit.obj
 0001:000103a2       ?var_gridpower@@YAXXZ      004113a2 f   octaedit.obj
 0001:000103d5       ?var_hmapedit@@YAXXZ       004113d5 f   octaedit.obj
 0001:000103e0       ?cubecancel@@YAXXZ         004113e0 f   octaedit.obj
 0001:00010403       ?cancelsel@@YAXXZ          00411403 f   octaedit.obj
 0001:0001040d       ?toggleedit@@YAX_N@Z       0041140d f   octaedit.obj
 0001:000104cf       ?noedit@@YA_N_N0@Z         004114cf f   octaedit.obj
 0001:000105b8       ?reorient@@YAXXZ           004115b8 f   octaedit.obj
 0001:00010603       ?selextend@@YAXXZ          00411603 f   octaedit.obj
 0001:0001066d       ?run@?$_icmd_edittoggle@$0LP@@@SAXXZ 0041166d f   octaedit.obj
 0001:00010676       ?blockcube@@YAAAUcube@@HHHABUblock3@@H@Z 00411676 f   octaedit.obj
 0001:000106f7       ?run@?$_icmd_havesel@$0NK@@@SAXXZ 004116f7 f   octaedit.obj
 0001:00010710       ?countselchild@@YAXPAUcube@@ABUivec@@H@Z 00411710 f   octaedit.obj
 0001:000107b5       ?normalizelookupcube@@YAXHHH@Z 004117b5 f   octaedit.obj
 0001:00010828       ?updateselection@@YAXXZ    00411828 f   octaedit.obj
 0001:000108d1       ?editmoveplane@@YAXABUvec@@0HMAAU1@1_N@Z 004118d1 f   octaedit.obj
 0001:00010986       ?rendereditcursor@@YAXXZ   00411986 f   octaedit.obj
 0001:0001154b       ?readychanges@@YAXAAUblock3@@PAUcube@@ABUivec@@H@Z 0041254b f   octaedit.obj
 0001:00011643       ?commitchanges@@YAX_N@Z    00412643 f   octaedit.obj
 0001:00011699       ?changed@@YAXABUblock3@@_N@Z 00412699 f   octaedit.obj
 0001:00011734       ?copycube@@YA?AUcube@@AAU1@@Z 00412734 f   octaedit.obj
 0001:000117c0       ?pastecube@@YAXAAUcube@@0@Z 004127c0 f   octaedit.obj
 0001:000117f0       ?blockcopy@@YAXABUblock3@@HPAU1@@Z 004127f0 f   octaedit.obj
 0001:000118c6       ?freeblock@@YAXPAUblock3@@_N@Z 004128c6 f   octaedit.obj
 0001:0001190d       ?selgridmap@@YAXAAUselinfo@@PAH@Z 0041290d f   octaedit.obj
 0001:000119d2       ?freeundo@@YAXPAUundoblock@@@Z 004129d2 f   octaedit.obj
 0001:000119ed       ?pasteundo@@YAXPAUundoblock@@@Z 004129ed f   octaedit.obj
 0001:00011acf       ?pruneundos@@YAXH@Z        00412acf f   octaedit.obj
 0001:00011b56       ?clearundos@@YAXXZ         00412b56 f   octaedit.obj
 0001:00011b5f       ?newundocube@@YAPAUundoblock@@AAUselinfo@@@Z 00412b5f f   octaedit.obj
 0001:00011bc0       ?addundo@@YAXPAUundoblock@@@Z 00412bc0 f   octaedit.obj
 0001:00011c4d       ?makeundoex@@YAXAAUselinfo@@@Z 00412c4d f   octaedit.obj
 0001:00011c71       ?makeundo@@YAXXZ           00412c71 f   octaedit.obj
 0001:00011cb3       ?swapundo@@YAXAAUundolist@@0PBD@Z 00412cb3 f   octaedit.obj
 0001:00011e2f       ?editundo@@YAXXZ           00412e2f f   octaedit.obj
 0001:00011e47       ?editredo@@YAXXZ           00412e47 f   octaedit.obj
 0001:0001212b       ?unpackeditinfo@@YA_NAAPAUeditinfo@@PBEHH@Z 0041312b f   octaedit.obj
 0001:000121c1       ?mpcopy@@YAXAAPAUeditinfo@@AAUselinfo@@_N@Z 004131c1 f   octaedit.obj
 0001:000122c5       ?mppaste@@YAXAAPAUeditinfo@@AAUselinfo@@_N@Z 004132c5 f   octaedit.obj
 0001:0001242c       ?copy@@YAXXZ               0041342c f   octaedit.obj
 0001:0001244f       ?pastehilite@@YAXXZ        0041344f f   octaedit.obj
 0001:00012476       ?paste@@YAXXZ              00413476 f   octaedit.obj
 0001:0001249b       ?compacteditvslots@@YAXXZ  0041349b f   octaedit.obj
 0001:0001256d       ?clearbrush@@YAXXZ         0041356d f   octaedit.obj
 0001:000125a4       ?brushvert@@YAXPAH00@Z     004135a4 f   octaedit.obj
 0001:000126b5       ?run@?$_icmd_hmapcancel@$0EAN@@@SAXXZ 004136b5 f   octaedit.obj
 0001:000126bd       ?run@?$_icmd_hmapselect@$0EBF@@@SAXXZ 004136bd f   octaedit.obj
 0001:00012723       ?isheightmap@@YA_NHH_NPAUcube@@@Z 00413723 f i octaedit.obj
 0001:0001275f       ?getcube@hmap@@YAPAUcube@@Uivec@@H@Z 0041375f f   octaedit.obj
 0001:0001285d       ?getface@hmap@@YAIPAUcube@@H@Z 0041385d f   octaedit.obj
 0001:00012889       ?pushside@hmap@@YAXAAUcube@@HHHH@Z 00413889 f   octaedit.obj
 0001:000128dc       ?addpoint@hmap@@YAXHHHH@Z  004138dc f   octaedit.obj
 0001:00012904       ?select@hmap@@YAXHHH@Z     00413904 f   octaedit.obj
 0001:00012c43       ?ripple@hmap@@YAXHHH_N@Z   00413c43 f   octaedit.obj
 0001:00013181       ?paint@hmap@@YAXXZ         00414181 f   octaedit.obj
 0001:000131df       ?smooth@hmap@@YAXXZ        004141df f   octaedit.obj
 0001:000132bf       ?run@hmap@@YAXHH@Z         004142bf f   octaedit.obj
 0001:0001373b       ?pushedge@@YAXAAEHH@Z      0041473b f   octaedit.obj
 0001:000137d5       ?linkedpush@@YAXAAUcube@@HHHHH@Z 004147d5 f   octaedit.obj
 0001:0001389c       ?mpeditface@@YAXHHAAUselinfo@@_N@Z 0041489c f   octaedit.obj
 0001:00013cb4       ?editface@@YAXPAH0@Z       00414cb4 f   octaedit.obj
 0001:00013d32       ?pushsel@@YAXPAH@Z         00414d32 f   octaedit.obj
 0001:00013da6       ?mpdelcube@@YAXAAUselinfo@@_N@Z 00414da6 f   octaedit.obj
 0001:00013eba       ?delcube@@YAXXZ            00414eba f   octaedit.obj
 0001:00013ed9       ?tofronttex@@YAXXZ         00414ed9 f   octaedit.obj
 0001:00014156       ?edittexcube@@YAXAAUcube@@HHAA_N@Z 00415156 f   octaedit.obj
 0001:000141e1       ?mpeditvslot@@YAXAAUVSlot@@HAAUselinfo@@_N@Z 004151e1 f   octaedit.obj
 0001:000143d6       ?vdelta@@YAXPAD@Z          004153d6 f   octaedit.obj
 0001:00014411       ?vrotate@@YAXPAH@Z         00415411 f   octaedit.obj
 0001:000144a6       ?voffset@@YAXPAH0@Z        004154a6 f   octaedit.obj
 0001:00014545       ?vscroll@@YAXPAM0@Z        00415545 f   octaedit.obj
 0001:000145d5       ?vscale@@YAXPAM@Z          004155d5 f   octaedit.obj
 0001:000146a0       ?vlayer@@YAXPAH@Z          004156a0 f   octaedit.obj
 0001:00014730       ?valpha@@YAXPAM0@Z         00415730 f   octaedit.obj
 0001:000147fa       ?vcolor@@YAXPAM00@Z        004157fa f   octaedit.obj
 0001:00014907       ?vreset@@YAXXZ             00415907 f   octaedit.obj
 0001:00014976       ?vshaderparam@@YAXPBDPAM111@Z 00415976 f   octaedit.obj
 0001:00014a63       ?mpedittex@@YAXHHAAUselinfo@@_N@Z 00415a63 f   octaedit.obj
 0001:00014bba       ?filltexlist@@YAXXZ        00415bba f   octaedit.obj
 0001:00014c47       ?compactmruvslots@@YAXXZ   00415c47 f   octaedit.obj
 0001:00014d02       ?edittex@@YAXH_N@Z         00415d02 f   octaedit.obj
 0001:00014d59       ?edittex_@@YAXPAH@Z        00415d59 f   octaedit.obj
 0001:00014dd4       ?gettex@@YAXXZ             00415dd4 f   octaedit.obj
 0001:00014f1a       ?getcurtex@@YAXXZ          00415f1a f   octaedit.obj
 0001:00014f53       ?getseltex@@YAXXZ          00415f53 f   octaedit.obj
 0001:00014fac       ?gettexname@@YAXPAH0@Z     00415fac f   octaedit.obj
 0001:00014ff3       ?run@?$_icmd_getreptex@$0HEO@@@SAXXZ 00415ff3 f   octaedit.obj
 0001:00015020       ?replacetexcube@@YAXAAUcube@@HH@Z 00416020 f   octaedit.obj
 0001:00015069       ?mpreplacetex@@YAXHH_NAAUselinfo@@0@Z 00416069 f   octaedit.obj
 0001:000151ac       ?replace@@YAX_N@Z          004161ac f   octaedit.obj
 0001:000151ee       ?run@?$_icmd_replace@$0HGM@@@SAXXZ 004161ee f   octaedit.obj
 0001:000151f7       ?run@?$_icmd_replacesel@$0HGN@@@SAXXZ 004161f7 f   octaedit.obj
 0001:00015200       ?dflip@@YAII@Z             00416200 f   octaedit.obj
 0001:00015224       ?mflip@@YAII@Z             00416224 f   octaedit.obj
 0001:00015244       ?flipcube@@YAXAAUcube@@H@Z 00416244 f   octaedit.obj
 0001:0001530d       ?rotatequad@@YAXAAUcube@@000@Z 0041630d f   octaedit.obj
 0001:0001534e       ?rotatecube@@YAXAAUcube@@H@Z 0041634e f   octaedit.obj
 0001:000154ce       ?mpflip@@YAXAAUselinfo@@_N@Z 004164ce f   octaedit.obj
 0001:00015655       ?flip@@YAXXZ               00416655 f   octaedit.obj
 0001:00015674       ?mprotate@@YAXHAAUselinfo@@_N@Z 00416674 f   octaedit.obj
 0001:00015902       ?rotate@@YAXPAH@Z          00416902 f   octaedit.obj
 0001:00015928       ?setmat@@YAXAAUcube@@EEEE@Z 00416928 f   octaedit.obj
 0001:0001599d       ?mpeditmat@@YAXHHAAUselinfo@@_N@Z 0041699d f   octaedit.obj
 0001:00015b4d       ?editmat@@YAXPAD0@Z        00416b4d f   octaedit.obj
 0001:00015bbf       ?gui@texturegui@@UAEXAAUg3d_gui@@_N@Z 00416bbf f i octaedit.obj
 0001:00015d97       ?showtextures@texturegui@@QAEX_N@Z 00416d97 f i octaedit.obj
 0001:00015e0a       ?show@texturegui@@QAEXXZ   00416e0a f i octaedit.obj
 0001:00015e83       ?showtexgui@@YAXPAH@Z      00416e83 f   octaedit.obj
 0001:00015ec2       ?rendertexturepanel@@YAXHH@Z 00416ec2 f   octaedit.obj
 0001:00016248       ?get@?$databuf@E@@QAEABEXZ 00417248 f i octaedit.obj
 0001:00016263       ?get@?$databuf@E@@QAEHPAEH@Z 00417263 f i octaedit.obj
 0001:0001629d       ?remove@?$vector@H@@QAEHH@Z 0041729d f i octaedit.obj
 0001:000162c0       ?add@?$vector@UShaderParam@@@@QAEAAUShaderParam@@ABU2@@Z 004172c0 f i octaedit.obj
 0001:000162fa       ?inrange@?$vector@PAUVSlot@@@@QBE_NH@Z 004172fa f i octaedit.obj
 0001:0001630d       ?put@?$vector@E@@QAEXPBEH@Z 0041730d f i octaedit.obj
 0001:00016340       ??0?$vector@PAUclientinfo@server@@@@QAE@XZ 00417340 f i server1.obj
 0001:00016340       ??0?$vector@Umergedface@@@@QAE@XZ 00417340 f i octarender.obj
 0001:00016340       ??0?$vector@Ulightmaptask@@@@QAE@XZ 00417340 f i lightmap.obj
 0001:00016340       ??0?$vector@G@@QAE@XZ      00417340 f i octaedit.obj
 0001:00016340       ??0?$vector@Uanimspec@animmodel@@@@QAE@XZ 00417340 f i rendermodel.obj
 0001:00016340       ??0?$vector@PAUvtxarray@@@@QAE@XZ 00417340 f i octarender.obj
 0001:00016340       ??0?$vector@Uvec@@@@QAE@XZ 00417340 f i worldio.obj
 0001:00016340       ??0?$vector@Utri@BIH@@@@QAE@XZ 00417340 f i rendermodel.obj
 0001:00016340       ??0?$vector@Ucubeface@@@@QAE@XZ 00417340 f i octa.obj
 0001:00016340       ??0?$vector@PAUShader@@@@QAE@XZ 00417340 f i shader.obj
 0001:00016340       ??0?$vector@E@@QAE@XZ      00417340 f i octaedit.obj
 0001:0001634d       ??1?$vector@G@@QAE@XZ      0041734d f i octaedit.obj
 0001:0001634d       ??1?$vector@E@@QAE@XZ      0041734d f i octaedit.obj
 0001:0001634d       ??1?$vector@Uanimspec@animmodel@@@@QAE@XZ 0041734d f i rendermodel.obj
 0001:0001634d       ??1?$vector@PAUclientinfo@server@@@@QAE@XZ 0041734d f i server1.obj
 0001:0001634d       ??1?$vector@Uvec@@@@QAE@XZ 0041734d f i worldio.obj
 0001:0001634d       ??1?$vector@Ucubeface@@@@QAE@XZ 0041734d f i octa.obj
 0001:0001634d       ??1?$vector@PAUvtxarray@@@@QAE@XZ 0041734d f i octarender.obj
 0001:0001634d       ??1?$vector@PAUShader@@@@QAE@XZ 0041734d f i shader.obj
 0001:0001634d       ??1?$vector@Utri@BIH@@@@QAE@XZ 0041734d f i rendermodel.obj
 0001:0001634d       ??1?$vector@Ulightmaptask@@@@QAE@XZ 0041734d f i lightmap.obj
 0001:0001634d       ??1?$vector@Umergedface@@@@QAE@XZ 0041734d f i octarender.obj
 0001:00016366       ?add@?$vector@G@@QAEAAGABG@Z 00417366 f i octaedit.obj
 0001:0001639f       ?remove@?$vector@G@@QAEGH@Z 0041739f f i octaedit.obj
 0001:000163d3       ?insert@?$vector@G@@QAEAAGHABG@Z 004173d3 f i octaedit.obj
 0001:0001641d       ?add@?$vector@PAUeditinfo@@@@QAEAAPAUeditinfo@@ABQAU2@@Z 0041741d f i octaedit.obj
 0001:00016463       ?removeobj@?$vector@PAUeditinfo@@@@QAEXABQAUeditinfo@@@Z 00417463 f i octaedit.obj
 0001:000164ac       ?growbuf@?$vector@UShaderParam@@@@QAEXH@Z 004174ac f i octaedit.obj
 0001:00016502       ?add@?$vector@D@@QAEAADABD@Z 00417502 f i worldio.obj
 0001:00016502       ?add@?$vector@E@@QAEAAEABE@Z 00417502 f i octaedit.obj
 0001:00016533       ?reserve@?$vector@D@@QAE?AU?$databuf@D@@H@Z 00417533 f i server.obj
 0001:00016533       ?reserve@?$vector@E@@QAE?AU?$databuf@E@@H@Z 00417533 f i octaedit.obj
 0001:0001655c       ?growbuf@?$vector@G@@QAEXH@Z 0041755c f i octaedit.obj
 0001:000165b1       ?growbuf@?$vector@PAUeditinfo@@@@QAEXH@Z 004175b1 f i octaedit.obj
 0001:00016615       ?growbuf@?$vector@Uvslotmap@@@@QAEXH@Z 00417615 f i octaedit.obj
 0001:00016679       ?growbuf@?$vector@E@@QAEXH@Z 00417679 f i octaedit.obj
 0001:00016679       ?growbuf@?$vector@D@@QAEXH@Z 00417679 f i worldio.obj
 0001:000166c9       ??$find@PAUplatforment@@@?$vector@PAUplatforment@@@@QAEHABQAUplatforment@@@Z 004176c9 f i physics.obj
 0001:000166c9       ??$find@H@?$vector@H@@QAEHABH@Z 004176c9 f i octaedit.obj
 0001:000166ee       ??$find@H@?$vector@G@@QAEHABH@Z 004176ee f i octaedit.obj
 0001:00016742       ?put@?$databuf@E@@QAEXPBEH@Z 00417742 f i octaedit.obj
 0001:00016780       ?dist@vec@@QBEMABU1@AAU1@@Z 00417780 f i octaedit.obj
 0001:000167a8       ??_Gg3d_callback@@UAEPAXI@Z 004177a8 f i octaedit.obj
 0001:000167a8       ??_Eg3d_callback@@UAEPAXI@Z 004177a8 f i  CIL library: CIL module
 0001:000167c5       ??1g3d_callback@@UAE@XZ    004177c5 f i octaedit.obj
 0001:000167cc       ??1VSlot@@QAE@XZ           004177cc f i octaedit.obj
 0001:000167f3       ?reset@VSlot@@QAEXXZ       004177f3 f i octaedit.obj
 0001:00016880       ??0VSlot@@QAE@PAUSlot@@H@Z 00417880 f i octaedit.obj
 0001:000168e6       ?resetinterp@physent@@QAEXXZ 004178e6 f i octaedit.obj
 0001:0001690e       ??8selinfo@@QBE_NABU0@@Z   0041790e f i octaedit.obj
 0001:00016943       ??0block3@@QAE@ABUselinfo@@@Z 00417943 f i octaedit.obj
 0001:00016965       ?set@Shader@@QAEXXZ        00417965 f i octaedit.obj
 0001:00016990       ?rayintersect@plane@@QAE_NABUvec@@0AAM@Z 00417990 f i octaedit.obj
 0001:000169de       ??0selinfo@@QAE@XZ         004179de f i octaedit.obj
 0001:00016a0b       ?destroyvbo@@YAXI@Z        00417a0b f   octarender.obj
 0001:00016a72       ?genvbo@@YAXHPAXHPAPAUvtxarray@@H@Z 00417a72 f   octarender.obj
 0001:00016ba7       ?readva@@YA_NPAUvtxarray@@AAPAGAAPAE@Z 00417ba7 f   octarender.obj
 0001:00016c87       ?flushvbo@@YAXH@Z          00417c87 f   octarender.obj
 0001:00016cdf       ?addvbo@@YAPAEPAUvtxarray@@HHH@Z 00417cdf f   octarender.obj
 0001:00016d23       ??0verthash@@QAE@XZ        00417d23 f i octarender.obj
 0001:00016d95       ?addvert@verthash@@QAEHABUvertex@@@Z 00417d95 f i octarender.obj
 0001:00016f48       ??8sortkey@@QBE_NABU0@@Z   00417f48 f i octarender.obj
 0001:00016f83       ?clear@vacollect@@QAEXXZ   00417f83 f i octarender.obj
 0001:00017013       ?remapunlit@vacollect@@QAEXAAU?$vector@Usortkey@@@@@Z 00418013 f i octarender.obj
 0001:0001749d       ?optimize@vacollect@@QAEXXZ 0041849d f i octarender.obj
 0001:0001764e       ?texsort@vacollect@@SAHPBUsortkey@@0@Z 0041864e f i octarender.obj
 0001:0001770f       ?genverts@vacollect@@QAEXPAX@Z 0041870f f i octarender.obj
 0001:000177ed       ?setupdata@vacollect@@QAEXPAUvtxarray@@@Z 004187ed f i octarender.obj
 0001:00017d61       ??0vacollect@@QAE@XZ       00418d61 f i octarender.obj
 0001:00017e6b       ??1vacollect@@QAE@XZ       00418e6b f i octarender.obj
 0001:00017f0d       ??1verthash@@QAE@XZ        00418f0d f i octarender.obj
 0001:00017f5d       ??1?$hashtable@Usortkey@@Usortval@@@@QAE@XZ 00418f5d f i octarender.obj
 0001:00017f95       ?calcshadowmask@@YAHPAUvec@@@Z 00418f95 f   octarender.obj
 0001:00018163       ?reduceslope@@YAXAAUivec@@@Z 00419163 f   octarender.obj
 0001:000181f2       ?addtris@@YAXABUsortkey@@HQAUvertex@@QAHHH@Z 004191f2 f   octarender.obj
 0001:000186ce       ?addgrasstri@@YAXHPAUvertex@@HGG@Z 004196ce f   octarender.obj
 0001:00018c94       ?addcubeverts@@YAXAAUVSlot@@HHPAUvec@@GPAUsurfaceinfo@@PAUsurfacenormals@@HGH_N@Z 00419c94 f   octarender.obj
 0001:00019149       ?gencubeedges@@YAXAAUcube@@HHHH@Z 0041a149 f   octarender.obj
 0001:000196eb       ?gencubeedges@@YAXPAUcube@@HHHH@Z 0041a6eb f   octarender.obj
 0001:000197b5       ?gencubeverts@@YAXAAUcube@@HHHHHAAE1@Z 0041a7b5 f   octarender.obj
 0001:00019b94       ?skyoccluded@@YA_NAAUcube@@H@Z 0041ab94 f   octarender.obj
 0001:00019bd5       ?hasskyfaces@@YAHAAUcube@@HHHHQAH@Z 0041abd5 f   octarender.obj
 0001:00019c9e       ?minskyface@@YAXAAUcube@@HABUivec@@HAAUmergeinfo@@@Z 0041ac9e f   octarender.obj
 0001:00019d3e       ?genskyfaces@@YAXAAUcube@@ABUivec@@H@Z 0041ad3e f   octarender.obj
 0001:00019e78       ?addskyverts@@YAXABUivec@@H@Z 0041ae78 f   octarender.obj
 0001:0001a11f       ?newva@@YAPAUvtxarray@@HHHH@Z 0041b11f f   octarender.obj
 0001:0001a249       ??0vtxarray@@QAE@XZ        0041b249 f i octarender.obj
 0001:0001a296       ?destroyva@@YAXPAUvtxarray@@_N@Z 0041b296 f   octarender.obj
 0001:0001a3b5       ?clearvas@@YAXPAUcube@@@Z  0041b3b5 f   octarender.obj
 0001:0001a3fb       ?updatevabb@@YAXPAUvtxarray@@_N@Z 0041b3fb f   octarender.obj
 0001:0001a5eb       ?updatevabbs@@YAX_N@Z      0041b5eb f   octarender.obj
 0001:0001a614       ?genmergedfaces@@YAXAAUcube@@ABUivec@@HH@Z 0041b614 f   octarender.obj
 0001:0001a8c9       ?findmergedfaces@@YAXAAUcube@@ABUivec@@HHH@Z 0041b8c9 f   octarender.obj
 0001:0001a969       ?addmergedverts@@YAXH@Z    0041b969 f   octarender.obj
 0001:0001aa03       ?rendercube@@YAXAAUcube@@HHHHHAAE1@Z 0041ba03 f   octarender.obj
 0001:0001ac64       ?calcgeombb@@YAXHHHHAAUivec@@0@Z 0041bc64 f   octarender.obj
 0001:0001ad92       ?calcmatbb@@YAXHHHHAAUivec@@0@Z 0041bd92 f   octarender.obj
 0001:0001ae9d       ?setva@@YAXAAUcube@@HHHHH@Z 0041be9d f   octarender.obj
 0001:0001b10f       ?updateva@@YAHPAUcube@@HHHHH@Z 0041c10f f   octarender.obj
 0001:0001b473       ?buildclipmasks@@YAXAAUcube@@AAE1@Z 0041c473 f   octarender.obj
 0001:0001b55b       ?addtjoint@@YAXABUedgegroup@@ABUcubeedge@@H@Z 0041c55b f   octarender.obj
 0001:0001b63c       ?findtjoints@@YAXHABUedgegroup@@@Z 0041c63c f   octarender.obj
 0001:0001b77f       ?octarender@@YAXXZ         0041c77f f   octarender.obj
 0001:0001b83c       ?precachetextures@@YAXXZ   0041c83c f   octarender.obj
 0001:0001b91b       ?allchanged@@YAX_N@Z       0041c91b f   octarender.obj
 0001:0001ba7e       ?recalc@@YAXXZ             0041ca7e f   octarender.obj
 0001:0001ba87       ??1?$vector@Uskin@animmodel@@@@QAE@XZ 0041ca87 f i rendermodel.obj
 0001:0001ba87       ??1?$vector@Urotlimit@ragdollskel@@@@QAE@XZ 0041ca87 f i rendermodel.obj
 0001:0001ba87       ??1?$vector@H@@QAE@XZ      0041ca87 f i lightmap.obj
 0001:0001ba87       ??1?$vector@Ureljoint@ragdollskel@@@@QAE@XZ 0041ca87 f i rendermodel.obj
 0001:0001ba87       ??1?$vector@Ulinkedpart@animmodel@@@@QAE@XZ 0041ca87 f i rendermodel.obj
 0001:0001ba87       ??1?$vector@Uvertex@@@@QAE@XZ 0041ca87 f i octarender.obj
 0001:0001ba87       ??1?$vector@Umd5hierarchy@@@@QAE@XZ 0041ca87 f i rendermodel.obj
 0001:0001ba87       ??1?$vector@Ubaseinfo@captureservmode@server@@@@QAE@XZ 0041ca87 f i server1.obj
 0001:0001ba87       ??1?$vector@Uwaterinfo@@@@QAE@XZ 0041ca87 f i material.obj
 0001:0001ba87       ??1?$vector@Uaistate@ai@@@@QAE@XZ 0041ca87 f i ai.obj
 0001:0001ba87       ??1?$vector@PAUmesh@animmodel@@@@QAE@XZ 0041ca87 f i rendermodel.obj
 0001:0001ba87       ??1?$vector@Uvert@ragdollskel@@@@QAE@XZ 0041ca87 f i rendermodel.obj
 0001:0001ba87       ??1?$vector@Uufval@unionfind@@@@QAE@XZ 0041ca87 f i material.obj
 0001:0001ba87       ??1?$vector@Umd5joint@@@@QAE@XZ 0041ca87 f i rendermodel.obj
 0001:0001ba87       ??1?$vector@PAUgameevent@server@@@@QAE@XZ 0041ca87 f i server1.obj
 0001:0001ba87       ??1?$vector@Utransparentmodel@@@@QAE@XZ 0041ca87 f i rendermodel.obj
 0001:0001ba87       ??1?$vector@UTex@Slot@@@@QAE@XZ 0041ca87 f i texture.obj
 0001:0001ba87       ??1?$vector@Uvert@vertmodel@@@@QAE@XZ 0041ca87 f i rendermodel.obj
 0001:0001ba87       ??1?$vector@Ueditline@@@@QAE@XZ 0041ca87 f i 3dgui.obj
 0001:0001ba87       ??1?$vector@Uholdspawn@ctfclientmode@game@@@@QAE@XZ 0041ca87 f i client1.obj
 0001:0001ba87       ??1?$vector@Uivec@@@@QAE@XZ 0041ca87 f i worldio.obj
 0001:0001ba87       ??1?$vector@Uvvertbump@skelmodel@@@@QAE@XZ 0041ca87 f i rendermodel.obj
 0001:0001ba87       ??1?$vector@Ublendcombo@skelmodel@@@@QAE@XZ 0041ca87 f i rendermodel.obj
 0001:0001ba87       ??1?$vector@PAD@@QAE@XZ    0041ca87 f i rendermodel.obj
 0001:0001ba87       ??1?$vector@Uscore@captureservmode@server@@@@QAE@XZ 0041ca87 f i server1.obj
 0001:0001ba87       ??1?$vector@PAUoctaentities@@@@QAE@XZ 0041ca87 f i octarender.obj
 0001:0001ba87       ??1?$vector@Uteamscore@@@@QAE@XZ 0041ca87 f i scoreboard.obj
 0001:0001ba87       ??1?$vector@UUniformLoc@@@@QAE@XZ 0041ca87 f i shader.obj
 0001:0001ba87       ??1?$vector@Udualquat@@@@QAE@XZ 0041ca87 f i rendermodel.obj
 0001:0001ba87       ??1?$vector@Utri@skelmodel@@@@QAE@XZ 0041ca87 f i rendermodel.obj
 0001:0001ba87       ??1?$vector@Uflag@ctfclientmode@game@@@@QAE@XZ 0041ca87 f i client1.obj
 0001:0001ba87       ??1?$vector@Usortkey@@@@QAE@XZ 0041ca87 f i octarender.obj
 0001:0001ba87       ??1?$vector@Urotfriction@ragdollskel@@@@QAE@XZ 0041ca87 f i rendermodel.obj
 0001:0001ba87       ??1?$vector@PBUextentity@@@@QAE@XZ 0041ca87 f i lightmap.obj
 0001:0001ba87       ??1?$vector@Uflag@ctfservmode@server@@@@QAE@XZ 0041ca87 f i server1.obj
 0001:0001ba87       ??1?$vector@Uvvert@skelmodel@@@@QAE@XZ 0041ca87 f i rendermodel.obj
 0001:0001ba87       ??1?$vector@Ugrasstri@@@@QAE@XZ 0041ca87 f i octarender.obj
 0001:0001ba87       ??1?$vector@Uobstacle@avoidset@ai@@@@QAE@XZ 0041ca87 f i ai.obj
 0001:0001ba87       ??1?$vector@Utcvert@vertmodel@@@@QAE@XZ 0041ca87 f i rendermodel.obj
 0001:0001ba87       ??1?$vector@D@@QAE@XZ      0041ca87 f i worldio.obj
 0001:0001ba87       ??1?$vector@Uantipode@skelmodel@@@@QAE@XZ 0041ca87 f i rendermodel.obj
 0001:0001ba87       ??1?$vector@Ubatchedmodel@@@@QAE@XZ 0041ca87 f i rendermodel.obj
 0001:0001ba87       ??1?$vector@Uvvertbumpw@skelmodel@@@@QAE@XZ 0041ca87 f i rendermodel.obj
 0001:0001ba87       ??1?$vector@PAUpart@animmodel@@@@QAE@XZ 0041ca87 f i rendermodel.obj
 0001:0001ba87       ??1?$vector@PAUskelmeshgroup@skelmodel@@@@QAE@XZ 0041ca87 f i rendermodel.obj
 0001:0001ba87       ??1?$vector@PAUmaterialsurface@@@@QAE@XZ 0041ca87 f i pvs.obj
 0001:0001ba87       ??1?$vector@PAUkeym@@@@QAE@XZ 0041ca87 f i console.obj
 0001:0001ba87       ??1?$vector@PAUphysent@@@@QAE@XZ 0041ca87 f i physics.obj
 0001:0001ba87       ??1?$vector@Ucharinfo@font@@@@QAE@XZ 0041ca87 f i rendertext.obj
 0001:0001ba87       ??1?$vector@PAUfpsent@@@@QAE@XZ 0041ca87 f i fps.obj
 0001:0001ba87       ??1?$vector@Uscore@captureclientmode@game@@@@QAE@XZ 0041ca87 f i client1.obj
 0001:0001ba87       ??1?$vector@UBIHNode@@@@QAE@XZ 0041ca87 f i bih.obj
 0001:0001ba87       ??1?$vector@Ucrcinfo@server@@@@QAE@XZ 0041ca87 f i server1.obj
 0001:0001ba87       ??1?$vector@PAUextentity@@@@QAE@XZ 0041ca87 f i client1.obj
 0001:0001ba87       ??1?$vector@Uaviindexentry@@@@QAE@XZ 0041ca87 f i movie.obj
 0001:0001ba87       ??1?$vector@Uvotecount@server@@@@QAE@XZ 0041ca87 f i server1.obj
 0001:0001ba87       ??1?$vector@UAttribLoc@@@@QAE@XZ 0041ca87 f i shader.obj
 0001:0001ba87       ??1?$vector@Uhitinfo@server@@@@QAE@XZ 0041ca87 f i server1.obj
 0001:0001ba87       ??1?$vector@UShaderParam@@@@QAE@XZ 0041ca87 f i octaedit.obj
 0001:0001ba87       ??1?$vector@Uvvertn@skelmodel@@@@QAE@XZ 0041ca87 f i rendermodel.obj
 0001:0001ba87       ??1?$vector@Ujoint@ragdollskel@@@@QAE@XZ 0041ca87 f i rendermodel.obj
 0001:0001ba87       ??1?$vector@Uholdspawn@ctfservmode@server@@@@QAE@XZ 0041ca87 f i server1.obj
 0001:0001ba87       ??1?$vector@Uvec2@@@@QAE@XZ 0041ca87 f i worldio.obj
 0001:0001ba87       ??1?$vector@Uvert@skelmodel@@@@QAE@XZ 0041ca87 f i rendermodel.obj
 0001:0001ba87       ??1?$vector@Utri@ragdollskel@@@@QAE@XZ 0041ca87 f i rendermodel.obj
 0001:0001ba87       ??1?$vector@Usmdbone@@@@QAE@XZ 0041ca87 f i rendermodel.obj
 0001:0001ba87       ??1?$vector@Udistlimit@ragdollskel@@@@QAE@XZ 0041ca87 f i rendermodel.obj
 0001:0001ba87       ??1?$vector@Uvvertw@skelmodel@@@@QAE@XZ 0041ca87 f i rendermodel.obj
 0001:0001ba87       ??1?$vector@Umaterialsurface@@@@QAE@XZ 0041ca87 f i octarender.obj
 0001:0001ba87       ??1?$vector@Utri@vertmodel@@@@QAE@XZ 0041ca87 f i rendermodel.obj
 0001:0001ba87       ??1?$vector@ULocalShaderParamState@@@@QAE@XZ 0041ca87 f i shader.obj
 0001:0001ba87       ??1?$vector@Uskelcacheentry@skelmodel@@@@QAE@XZ 0041ca87 f i rendermodel.obj
 0001:0001ba87       ??1?$vector@Ubaseinfo@captureclientmode@game@@@@QAE@XZ 0041ca87 f i client1.obj
 0001:0001ba87       ??1?$vector@PAUident@@@@QAE@XZ 0041ca87 f i command.obj
 0001:0001baa0       ??0?$hashtable@IUvboinfo@@@@QAE@H@Z 0041caa0 f i octarender.obj
 0001:0001bb0f       ??1?$hashset@U?$hashtableentry@IUvboinfo@@@@@@QAE@XZ 0041cb0f f i octarender.obj
 0001:0001bb4a       ?access@?$hashtable@Usortkey@@Usortval@@@@QAEPAUsortval@@ABUsortkey@@@Z 0041cb4a f i octarender.obj
 0001:0001bb84       ??A?$hashtable@Usortkey@@Usortval@@@@QAEAAUsortval@@ABUsortkey@@@Z 0041cb84 f i octarender.obj
 0001:0001bbdd       ??1?$hashset@U?$hashtableentry@Usortkey@@Usortval@@@@@@QAE@XZ 0041cbdd f i octarender.obj
 0001:0001bbf9       ?add@?$vector@Usortkey@@@@QAEAAUsortkey@@ABU2@@Z 0041cbf9 f i octarender.obj
 0001:0001bc32       ?removeobj@?$vector@Usortkey@@@@QAEXABUsortkey@@@Z 0041cc32 f i octarender.obj
 0001:0001bcb1       ??0?$hashtable@Uedgegroup@@H@@QAE@H@Z 0041ccb1 f i octarender.obj
 0001:0001bd20       ??1?$hashset@U?$hashtableentry@Uedgegroup@@H@@@@QAE@XZ 0041cd20 f i octarender.obj
 0001:0001bd44       ?add@?$vector@Umergedface@@@@QAEAAUmergedface@@ABU2@@Z 0041cd44 f i octarender.obj
 0001:0001bd7e       ?growbuf@?$vector@Ugrasstri@@@@QAEXH@Z 0041cd7e f i octarender.obj
 0001:0001bdda       ?deletechunks@?$hashset@U?$hashtableentry@Usortkey@@Usortval@@@@@@QAEXXZ 0041cdda f i octarender.obj
 0001:0001be2e       ?growbuf@?$vector@Usortkey@@@@QAEXH@Z 0041ce2e f i octarender.obj
 0001:0001be84       ?growbuf@?$vector@Utjoint@@@@QAEXH@Z 0041ce84 f i octarender.obj
 0001:0001bee8       ?deletechunks@?$hashset@U?$hashtableentry@Uedgegroup@@H@@@@QAEXXZ 0041cee8 f i octarender.obj
 0001:0001bf08       ?growbuf@?$vector@Umergedface@@@@QAEXH@Z 0041cf08 f i octarender.obj
 0001:0001bf5e       ??1chain@?$hashset@U?$hashtableentry@Usortkey@@Usortval@@@@@@QAE@XZ 0041cf5e f i octarender.obj
 0001:0001bf82       ??1?$hashtableentry@Usortkey@@Usortval@@@@QAE@XZ 0041cf82 f i octarender.obj
 0001:0001bfaa       ??1sortval@@QAE@XZ         0041cfaa f i octarender.obj
 0001:0001bfdb       ?insert@?$hashset@U?$hashtableentry@IUvboinfo@@@@@@QAEPAUchain@1@I@Z 0041cfdb f i octarender.obj
 0001:0001c073       ?insert@?$hashset@U?$hashtableentry@Usortkey@@Usortval@@@@@@QAEPAUchain@1@I@Z 0041d073 f i octarender.obj
 0001:0001c118       ?insert@?$hashset@U?$hashtableentry@Uedgegroup@@H@@@@QAEPAUchain@1@I@Z 0041d118 f i octarender.obj
 0001:0001c1b0       ??0chain@?$hashset@U?$hashtableentry@Usortkey@@Usortval@@@@@@QAE@XZ 0041d1b0 f i octarender.obj
 0001:0001c1f5       ??$remove@I@?$hashset@U?$hashtableentry@IUvboinfo@@@@@@QAE_NABI@Z 0041d1f5 f i octarender.obj
 0001:0001c255       ??$find@G@?$vector@H@@QAEHABG@Z 0041d255 f i octarender.obj
 0001:0001c27b       ?tovec@bvec@@QBE?AUvec@@XZ 0041d27b f i octarender.obj
 0001:0001c2ba       ?lerp@bvec@@QAEXABU1@0M@Z  0041d2ba f i octarender.obj
 0001:0001c323       ?supportpoint@CubePlanes@mpr@@QBE?AUvec@@ABU3@@Z 0041d323 f i physics.obj
 0001:0001c38c       ?center@SolidCube@mpr@@QBE?AUvec@@XZ 0041d38c f i physics.obj
 0001:0001c3d2       ?supportpoint@SolidCube@mpr@@QBE?AUvec@@ABU3@@Z 0041d3d2 f i physics.obj
 0001:0001c418       ?supportpoint@EntAABB@mpr@@QBE?AUvec@@ABU3@@Z 0041d418 f i physics.obj
 0001:0001c477       ??0EntOBB@mpr@@QAE@PAUphysent@@M@Z 0041d477 f i physics.obj
 0001:0001c4b4       ?center@EntOBB@mpr@@QBE?AUvec@@XZ 0041d4b4 f i physics.obj
 0001:0001c4d7       ?contactface@EntOBB@mpr@@QBE?AUvec@@ABU3@0@Z 0041d4d7 f i physics.obj
 0001:0001c6c7       ?supportpoint@EntOBB@mpr@@QBE?AUvec@@ABU3@@Z 0041d6c7 f i physics.obj
 0001:0001c75e       ?contactface@EntCylinder@mpr@@QBE?AUvec@@ABU3@0@Z 0041d75e f i physics.obj
 0001:0001c819       ?supportpoint@EntCylinder@mpr@@QBE?AUvec@@ABU3@@Z 0041d819 f i physics.obj
 0001:0001c88b       ?supportpoint@EntCapsule@mpr@@QBE?AUvec@@ABU3@@Z 0041d88b f i physics.obj
 0001:0001c904       ?contactface@ModelOBB@mpr@@QBE?AUvec@@ABU3@0@Z 0041d904 f i physics.obj
 0001:0001cad6       ?supportpoint@ModelOBB@mpr@@QBE?AUvec@@ABU3@@Z 0041dad6 f i physics.obj
 0001:0001cb5e       ?contactface@ModelEllipse@mpr@@QBE?AUvec@@ABU3@0@Z 0041db5e f i physics.obj
 0001:0001cc6f       ?supportpoint@ModelEllipse@mpr@@QBE?AUvec@@ABU3@@Z 0041dc6f f i physics.obj
 0001:0001cd10       ?gencubeclip@@YAXAAUcube@@ABUivec@@H@Z 0041dd10 f   physics.obj
 0001:0001cd85       ?freeclipplanes@@YAXAAUcube@@@Z 0041dd85 f   physics.obj
 0001:0001cda7       ?pointincube@@YA_NABUclipplanes@@ABUvec@@@Z 0041dda7 f   physics.obj
 0001:0001d462       ?raycube@@YAMABUvec@@0MHHPAUextentity@@@Z 0041e462 f   physics.obj
 0001:0001da0d       ?shadowray@@YAMABUvec@@0MHPAUextentity@@@Z 0041ea0d f   physics.obj
 0001:0001e0e6       ??0ShadowRayCache@@QAE@XZ  0041f0e6 f i physics.obj
 0001:0001e126       ?shadowray@@YAMPAUShadowRayCache@@ABUvec@@1MHPAUextentity@@@Z 0041f126 f   physics.obj
 0001:0001e85a       ?rayent@@YAMABUvec@@0MHHAAH1@Z 0041f85a f   physics.obj
 0001:0001e905       ?raycubepos@@YAMABUvec@@0AAU1@MHH@Z 0041f905 f   physics.obj
 0001:0001e97b       ?raycubelos@@YA_NABUvec@@0AAU1@@Z 0041f97b f   physics.obj
 0001:0001e9fc       ?rayfloor@@YAMABUvec@@AAU1@HM@Z 0041f9fc f   physics.obj
 0001:0001ea84       ?ellipserectcollide@@YA_NPAUphysent@@ABUvec@@11MMMMM@Z 0041fa84 f   physics.obj
 0001:0001edb8       ?ellipsecollide@@YA_NPAUphysent@@ABUvec@@11MMMMM@Z 0041fdb8 f   physics.obj
 0001:0001f060       ?rectcollide@@YA_NPAUphysent@@ABUvec@@1MMMME@Z 00420060 f   physics.obj
 0001:0001f351       ??0dynentcacheentry@@QAE@XZ 00420351 f i physics.obj
 0001:0001f37c       ??1dynentcacheentry@@QAE@XZ 0042037c f i physics.obj
 0001:0001f3b3       ?cleardynentcache@@YAXXZ   004203b3 f   physics.obj
 0001:0001f3e8       ?var_dynentsize@@YAXXZ     004203e8 f   physics.obj
 0001:0001f3ed       ?checkdynentcache@@YAABU?$vector@PAUphysent@@@@HH@Z 004203ed f   physics.obj
 0001:0001f4f8       ?updatedynentcache@@YAXPAUphysent@@@Z 004204f8 f   physics.obj
 0001:0001f602       ?overlapsdynent@@YA_NABUvec@@M@Z 00420602 f   physics.obj
 0001:0001f709       ?plcollide@@YA_NPAUphysent@@ABUvec@@@Z 00420709 f   physics.obj
 0001:0001f996       ?rotatebb@@YAXAAUvec@@0H@Z 00420996 f   physics.obj
 0001:0001fc56       ?mmcollide@@YA_NPAUphysent@@ABUvec@@AAUoctaentities@@@Z 00420c56 f   physics.obj
 0001:00020393       ?collide@@YA_NPAUphysent@@ABUvec@@M_N@Z 00421393 f   physics.obj
 0001:0002044d       ?recalcdir@@YAXPAUphysent@@ABUvec@@AAU2@@Z 0042144d f   physics.obj
 0001:000204a8       ?slideagainst@@YAXPAUphysent@@AAUvec@@ABU2@_N3@Z 004214a8 f   physics.obj
 0001:0002053c       ?switchfloor@@YAXPAUphysent@@AAUvec@@ABU2@@Z 0042153c f   physics.obj
 0001:0002062d       ?trystepup@@YA_NPAUphysent@@AAUvec@@ABU2@M2@Z 0042162d f   physics.obj
 0001:00020a3d       ?trystepdown@@YA_NPAUphysent@@AAUvec@@MMM_N@Z 00421a3d f   physics.obj
 0001:00020cbe       ?trystepdown@@YA_NPAUphysent@@AAUvec@@_N@Z 00421cbe f   physics.obj
 0001:00020d63       ?falling@@YAXPAUphysent@@AAUvec@@ABU2@@Z 00421d63 f   physics.obj
 0001:00020e1a       ?landing@@YAXPAUphysent@@AAUvec@@ABU2@_N@Z 00421e1a f   physics.obj
 0001:00020e62       ?findfloor@@YA_NPAUphysent@@_NABUvec@@AA_NAAU2@@Z 00421e62 f   physics.obj
 0001:00021082       ?move@@YA_NPAUphysent@@AAUvec@@@Z 00422082 f   physics.obj
 0001:00021463       ?bounce@@YA_NPAUphysent@@MMM@Z 00422463 f   physics.obj
 0001:0002168d       ?avoidcollision@@YAXPAUphysent@@ABUvec@@0M@Z 0042268d f   physics.obj
 0001:000217d2       ?movecamera@@YA_NPAUphysent@@ABUvec@@MM@Z 004227d2 f   physics.obj
 0001:00021886       ?droptofloor@@YA_NAAUvec@@MM@Z 00422886 f   physics.obj
 0001:000219da       ?dropenttofloor@@YAXPAUentity@@@Z 004229da f   physics.obj
 0001:00021a19       ?phystest@@YAXXZ           00422a19 f   physics.obj
 0001:00021ae4       ?vecfromyawpitch@@YAXMMHHAAUvec@@@Z 00422ae4 f   physics.obj
 0001:00021bc6       ?vectoyawpitch@@YAXABUvec@@AAM1@Z 00422bc6 f   physics.obj
 0001:00021c0a       ?modifyvelocity@@YAXPAUphysent@@_N11H@Z 00422c0a f   physics.obj
 0001:00021e89       ?modifygravity@@YAXPAUphysent@@_NH@Z 00422e89 f   physics.obj
 0001:00021fcd       ?moveplayer@@YA_NPAUphysent@@H_NH@Z 00422fcd f   physics.obj
 0001:000222cc       ?physicsframe@@YAXXZ       004232cc f   physics.obj
 0001:00022326       ?interppos@@YAXPAUphysent@@@Z 00423326 f   physics.obj
 0001:0002239c       ?moveplayer@@YAXPAUphysent@@H_N@Z 0042339c f   physics.obj
 0001:0002242e       ?bounce@@YA_NPAUphysent@@MM@Z 0042342e f   physics.obj
 0001:000224e9       ?updatephysstate@@YAXPAUphysent@@@Z 004234e9 f   physics.obj
 0001:00022620       ?platformcollide@@YA_NPAUphysent@@0ABUvec@@M@Z 00423620 f   physics.obj
 0001:000226a4       ?moveplatform@@YA_NPAUphysent@@ABUvec@@@Z 004236a4 f   physics.obj
 0001:00022e23       ?run@?$_icmd_backward@$0ICK@@@SAXPAH@Z 00423e23 f   physics.obj
 0001:00022e52       ?run@?$_icmd_forward@$0ICL@@@SAXPAH@Z 00423e52 f   physics.obj
 0001:00022e81       ?run@?$_icmd_left@$0ICM@@@SAXPAH@Z 00423e81 f   physics.obj
 0001:00022eb0       ?run@?$_icmd_right@$0ICN@@@SAXPAH@Z 00423eb0 f   physics.obj
 0001:00022edf       ?run@?$_icmd_jump@$0ICP@@@SAXPAH@Z 00423edf f   physics.obj
 0001:00022f1c       ?run@?$_icmd_attack@$0IDA@@@SAXPAH@Z 00423f1c f   physics.obj
 0001:00022f45       ?entinmap@@YA_NPAUdynent@@_N@Z 00423f45 f   physics.obj
 0001:000230ac       ?add@?$vector@Uplatformcollision@@@@QAEAAUplatformcollision@@ABU2@@Z 004240ac f i physics.obj
 0001:000230f2       ?growbuf@?$vector@Uplatforment@@@@QAEXH@Z 004240f2 f i physics.obj
 0001:00023154       ?growbuf@?$vector@Uplatformcollision@@@@QAEXH@Z 00424154 f i physics.obj
 0001:00025244       ??$collide@UEntOBB@mpr@@UEntCylinder@2@@mpr@@YA_NABUEntOBB@0@ABUEntCylinder@0@PAUvec@@22@Z 00426244 f i physics.obj
 0001:00025996       ??$collide@UEntOBB@mpr@@U12@@mpr@@YA_NABUEntOBB@0@0PAUvec@@11@Z 00426996 f i physics.obj
 0001:000260cc       ??$collide@UEntOBB@mpr@@UModelEllipse@2@@mpr@@YA_NABUEntOBB@0@ABUModelEllipse@0@PAUvec@@22@Z 004270cc f i physics.obj
 0001:000267ff       ??$collide@UEntOBB@mpr@@UModelOBB@2@@mpr@@YA_NABUEntOBB@0@ABUModelOBB@0@PAUvec@@22@Z 004277ff f i physics.obj
 0001:00026f32       ??$collide@USolidCube@mpr@@UEntOBB@2@@mpr@@YA_NABUSolidCube@0@ABUEntOBB@0@@Z 00427f32 f i physics.obj
 0001:00027404       ??$collide@UCubePlanes@mpr@@UEntOBB@2@@mpr@@YA_NABUCubePlanes@0@ABUEntOBB@0@@Z 00428404 f i physics.obj
 0001:000278d8       ??$collide@USolidCube@mpr@@UEntCapsule@2@@mpr@@YA_NABUSolidCube@0@ABUEntCapsule@0@@Z 004288d8 f i physics.obj
 0001:00027dbc       ??$collide@UCubePlanes@mpr@@UEntCapsule@2@@mpr@@YA_NABUCubePlanes@0@ABUEntCapsule@0@@Z 00428dbc f i physics.obj
 0001:000282c2       ?scalartriple@vec@@QBEMABU1@0@Z 004292c2 f i physics.obj
 0001:000282f5       ?cross@vec@@QAEAAU1@ABU1@00@Z 004292f5 f i physics.obj
 0001:00028356       ?pow@@YAMMM@Z              00429356 f i physics.obj
 0001:00028373       ?lerp@vec@@QAEAAU1@ABU1@0M@Z 00429373 f i physics.obj
 0001:000283a2       ?atan2@@YAMMM@Z            004293a2 f i physics.obj
 0001:000283bd       ?reset@physent@@QAEXXZ     004293bd f i physics.obj
 0001:0002840c       ??0physent@@QAE@XZ         0042940c f i physics.obj
 0001:00028479       ?projectxy@vec@@QAEAAU1@ABU1@@Z 00429479 f i physics.obj
 0001:000284e6       ?projectxydir@vec@@QAEAAU1@ABU1@@Z 004294e6 f i physics.obj
 0001:0002850d       ?rescale@vec@@QAEAAU1@M@Z  0042950d f i physics.obj
 0001:00028541       ?projectxy@vec@@QAEAAU1@ABU1@M@Z 00429541 f i physics.obj
 0001:000285c1       ?project@vec@@QAEAAU1@ABU1@@Z 004295c1 f i physics.obj
 0001:000285f2       ?collisionbox@model@@QAEXHAAUvec@@0@Z 004295f2 f i physics.obj
 0001:00028630       ?reject@vec@@QAE_NABU1@M@Z 00429630 f i physics.obj
 0001:00028678       _atan2f                    00429678 f i physics.obj
 0001:00028693       ?rotate_around_z@vec@@QAEAAU1@M@Z 00429693 f i physics.obj
 0001:00028760       ?magnitude2@vec@@QBEMXZ    00429760 f i physics.obj
 0001:0002877c       ?rotate@quat@@QBE?AUvec@@ABU2@@Z 0042977c f i physics.obj
 0001:00028821       ??$cross@Uplane@@Uvec@@@vec@@QAEAAU0@ABUplane@@ABU0@@Z 00429821 f i lightmap.obj
 0001:00028821       ??$cross@Uquat@@Uvec@@@vec@@QAEAAU0@ABUquat@@ABU0@@Z 00429821 f i physics.obj
 0001:00028821       ??$cross@Uvec@@U1@@vec@@QAEAAU0@ABU0@0@Z 00429821 f i octa.obj
 0001:00028821       ??$cross@Uplane@@U1@@vec@@QAEAAU0@ABUplane@@0@Z 00429821 f i octa.obj
 0001:00028850       ?invertedrotate@quat@@QBE?AUvec@@ABU2@@Z 00429850 f i physics.obj
 0001:000288f5       ??0quat@@QAE@ABUvec@@M@Z   004298f5 f i physics.obj
 0001:00028d78       ??0shaftbb@@QAE@ABUivec@@HABUbvec@@@Z 00429d78 f i pvs.obj
 0001:00028e18       ?contains@shaftbb@@QBE_NABU1@@Z 00429e18 f i pvs.obj
 0001:00028e59       ?outside@shaftbb@@QBE_NABUivec@@H@Z 00429e59 f i pvs.obj
 0001:00028eb5       ?calcshaft@shaft@@QAEXABUshaftbb@@0@Z 00429eb5 f i pvs.obj
 0001:00029112       ?outside@shaft@@QBE_NABUshaftbb@@@Z 0042a112 f i pvs.obj
 0001:000291aa       ?inside@shaft@@QBE_NABUshaftbb@@@Z 0042a1aa f i pvs.obj
 0001:0002926f       ??0<unnamed-type-waterplanes>@@QAE@XZ 0042a26f f i pvs.obj
 0001:0002929a       ??1<unnamed-type-waterplanes>@@QAE@XZ 0042a29a f i pvs.obj
 0001:000292c0       ??0pvsworker@@QAE@XZ       0042a2c0 f i pvs.obj
 0001:0002932a       ??1pvsworker@@QAE@XZ       0042a32a f i pvs.obj
 0001:00029363       ?resetlevels@pvsworker@@QAEXXZ 0042a363 f i pvs.obj
 0001:0002939d       ?hasvoxel@pvsworker@@QAEHABUivec@@HHHHPAH@Z 0042a39d f i pvs.obj
 0001:0002964c       ?hidepvs@pvsworker@@QAEXAAUpvsnode@@@Z 0042a64c f i pvs.obj
 0001:00029692       ?shaftcullpvs@pvsworker@@QAEXAAUshaft@@AAUpvsnode@@ABUivec@@H@Z 0042a692 f i pvs.obj
 0001:000297a4       ?cullpvs@pvsworker@@QAEXAAUpvsnode@@ABUivec@@H@Z 0042a7a4 f i pvs.obj
 0001:0002a097       ?compresspvs@pvsworker@@QAE_NAAUpvsnode@@HH@Z 0042b097 f i pvs.obj
 0001:0002a151       ?serializepvs@pvsworker@@QAE_NAAUpvsnode@@H@Z 0042b151 f i pvs.obj
 0001:0002a2e7       ?materialoccluded@pvsworker@@QAE_NAAUpvsnode@@ABUivec@@H11@Z 0042b2e7 f i pvs.obj
 0001:0002a382       ?materialoccluded@pvsworker@@QAE_NAAU?$vector@PAUmaterialsurface@@@@@Z 0042b382 f i pvs.obj
 0001:0002a455       ?calcpvs@pvsworker@@QAEXABUivec@@H@Z 0042b455 f i pvs.obj
 0001:0002a589       ?genviewcell@pvsworker@@QAEHABUivec@@H@Z 0042b589 f i pvs.obj
 0001:0002a6d1       ?run@pvsworker@@SAHPAX@Z   0042b6d1 f i pvs.obj
 0001:0002a751       ??_Gviewcellnode@@QAEPAXI@Z 0042b751 f i pvs.obj
 0001:0002acd4       ?var_lockpvs@@YAXXZ        0042bcd4 f   pvs.obj
 0001:0002ace9       ?setviewcell@@YAXABUvec@@@Z 0042bce9 f   pvs.obj
 0001:0002ad80       ?clearpvs@@YAXXZ           0042bd80 f   pvs.obj
 0001:0002aefb       ?testpvs@@YAXPAH@Z         0042befb f   pvs.obj
 0001:0002b0f7       ?genpvs@@YAXPAH@Z          0042c0f7 f   pvs.obj
 0001:0002b50b       ?pvsstats@@YAXXZ           0042c50b f   pvs.obj
 0001:0002b732       ?pvsoccluded@@YA_NABUivec@@0@Z 0042c732 f   pvs.obj
 0001:0002b750       ?waterpvsoccluded@@YA_NH@Z 0042c750 f   pvs.obj
 0001:0002b7a3       ?saveviewcells@@YAXPAUstream@@AAUviewcellnode@@@Z 0042c7a3 f   pvs.obj
 0001:0002b7f5       ?savepvs@@YAXPAUstream@@@Z 0042c7f5 f   pvs.obj
 0001:0002b894       ?loadviewcells@@YAPAUviewcellnode@@PAUstream@@@Z 0042c894 f   pvs.obj
 0001:0002b91c       ?loadpvs@@YAXPAUstream@@H@Z 0042c91c f   pvs.obj
 0001:0002b9fc       ?add@?$vector@Upvsnode@@@@QAEAAUpvsnode@@XZ 0042c9fc f i pvs.obj
 0001:0002ba40       ??0?$hashtable@Upvsdata@@H@@QAE@H@Z 0042ca40 f i pvs.obj
 0001:0002baaf       ??1?$hashset@U?$hashtableentry@Upvsdata@@H@@@@QAE@XZ 0042caaf f i pvs.obj
 0001:0002bacb       ?add@?$vector@Upvsdata@@@@QAEAAUpvsdata@@ABU2@@Z 0042cacb f i pvs.obj
 0001:0002bb11       ?add@?$vector@Uviewcellrequest@@@@QAEAAUviewcellrequest@@XZ 0042cb11 f i pvs.obj
 0001:0002bb55       ?add@?$vector@PAUpvsworker@@@@QAEAAPAUpvsworker@@ABQAU2@@Z 0042cb55 f i pvs.obj
 0001:0002bb9b       ?growbuf@?$vector@Upvsnode@@@@QAEXH@Z 0042cb9b f i pvs.obj
 0001:0002bbff       ?deletechunks@?$hashset@U?$hashtableentry@Upvsdata@@H@@@@QAEXXZ 0042cbff f i pvs.obj
 0001:0002bc23       ?growbuf@?$vector@Upvsdata@@@@QAEXH@Z 0042cc23 f i pvs.obj
 0001:0002bc87       ?growbuf@?$vector@Uviewcellrequest@@@@QAEXH@Z 0042cc87 f i pvs.obj
 0001:0002bce9       ?growbuf@?$vector@PAUpvsworker@@@@QAEXH@Z 0042cce9 f i pvs.obj
 0001:0002bd4d       ?insert@?$hashset@U?$hashtableentry@Upvsdata@@H@@@@QAEPAUchain@1@I@Z 0042cd4d f i pvs.obj
 0001:0002bde5       ??$putlil@H@stream@@QAE_NH@Z 0042cde5 f i pvs.obj
 0001:0002bde5       ??$putlil@I@stream@@QAE_NI@Z 0042cde5 f i pvs.obj
 0001:0002be01       ??$putlil@G@stream@@QAE_NG@Z 0042ce01 f i pvs.obj
 0001:0002be1f       ??$getlil@H@stream@@QAEHXZ 0042ce1f f i pvs.obj
 0001:0002be3c       ??$getlil@G@stream@@QAEGXZ 0042ce3c f i pvs.obj
 0001:0002be85       ?getentboundingbox@@YA_NAAUextentity@@AAUivec@@1@Z 0042ce85 f   world.obj
 0001:0002bf99       ?modifyoctaentity@@YAXHHPAUcube@@ABUivec@@H11HPAUvtxarray@@@Z 0042cf99 f   world.obj
 0001:0002c522       ?freeoctaentities@@YAXAAUcube@@@Z 0042d522 f   world.obj
 0001:0002c5ea       ?entitiesinoctanodes@@YAXXZ 0042d5ea f   world.obj
 0001:0002c77b       ?findents@@YAXHH_NABUvec@@1AAU?$vector@H@@@Z 0042d77b f   world.obj
 0001:0002c9d5       ?entname@@YAPADAAUentity@@@Z 0042d9d5 f   world.obj
 0001:0002c9fe       ?var_entediting@@YAXXZ     0042d9fe f   world.obj
 0001:0002ca1b       ?noentedit@@YA_NXZ         0042da1b f   world.obj
 0001:0002ca41       ?pointinsel@@YA_NAAUselinfo@@AAUvec@@@Z 0042da41 f   world.obj
 0001:0002cadc       ?entcancel@@YAXXZ          0042dadc f   world.obj
 0001:0002caed       ?entadd@@YAXH@Z            0042daed f   world.obj
 0001:0002cb04       ?newundoent@@YAPAUundoblock@@XZ 0042db04 f   world.obj
 0001:0002cb70       ?makeundoent@@YAXXZ        0042db70 f   world.obj
 0001:0002cb9d       ?detachentity@@YAXAAUextentity@@@Z 0042db9d f   world.obj
 0001:0002cbad       ?attachentity@@YAXAAUextentity@@@Z 0042dbad f   world.obj
 0001:0002cc4f       ?getselpos@@YA?AUvec@@XZ   0042dc4f f   world.obj
 0001:0002ccab       ?copyundoents@@YAPAUundoblock@@PAU1@@Z 0042dcab f   world.obj
 0001:0002cd0c       ?pasteundoents@@YAXPAUundoblock@@@Z 0042dd0c f   world.obj
 0001:0002cdbc       ?entflip@@YAXXZ            0042ddbc f   world.obj
 0001:0002cf2f       ?entrotate@@YAXPAH@Z       0042df2f f   world.obj
 0001:0002d197       ?entselectionbox@@YAXABUentity@@AAUvec@@1@Z 0042e197 f   world.obj
 0001:0002d2d5       ?entdrag@@YAXABUvec@@@Z    0042e2d5 f   world.obj
 0001:0002d5d5       ?renderentarrow@@YAXABUextentity@@ABUvec@@M@Z 0042e5d5 f   world.obj
 0001:0002d5fe       ?renderentcone@@YAXABUextentity@@ABUvec@@MM@Z 0042e5fe f   world.obj
 0001:0002d658       ?renderentradius@@YAXAAUextentity@@_N@Z 0042e658 f   world.obj
 0001:0002d85c       ?renderentselection@@YAXABUvec@@0_N@Z 0042e85c f   world.obj
 0001:0002db7b       ?enttoggle@@YA_NH@Z        0042eb7b f   world.obj
 0001:0002dbba       ?hoveringonent@@YA_NHH@Z   0042ebba f   world.obj
 0001:0002dc0a       ?var_entmoving@@YAXXZ      0042ec0a f   world.obj
 0001:0002dc7a       ?entpush@@YAXPAH@Z         0042ec7a f   world.obj
 0001:0002e093       ?entautoview@@YAXPAH@Z     0042f093 f   world.obj
 0001:0002e17e       ?delent@@YAXXZ             0042f17e f   world.obj
 0001:0002e3dd       ?findtype@@YAHPAD@Z        0042f3dd f   world.obj
 0001:0002e423       ?dropentity@@YA_NAAUentity@@H@Z 0042f423 f   world.obj
 0001:0002e5d3       ?dropent@@YAXXZ            0042f5d3 f   world.obj
 0001:0002e849       ?attachent@@YAXXZ          0042f849 f   world.obj
 0001:0002eab7       ?newentity@@YAPAUextentity@@_NABUvec@@HHHHHH@Z 0042fab7 f   world.obj
 0001:0002eb76       ?newentity@@YAXHHHHHH@Z    0042fb76 f   world.obj
 0001:0002ec44       ?newent@@YAXPADPAH1111@Z   0042fc44 f   world.obj
 0001:0002ec84       ?entcopy@@YAXXZ            0042fc84 f   world.obj
 0001:0002ed64       ?entpaste@@YAXXZ           0042fd64 f   world.obj
 0001:0002ef7d       ?entset@@YAXPADPAH1111@Z   0042ff7d f   world.obj
 0001:0002f2e4       ?printent@@YAXAAUextentity@@PAD@Z 004302e4 f   world.obj
 0001:0002f333       ?nearestent@@YAXXZ         00430333 f   world.obj
 0001:0002f3a3       ?run@?$_icmd_enthavesel@$0EBO@@@SAXXZ 004303a3 f   world.obj
 0001:0002f3eb       ?run@?$_icmd_entselect@$0EBP@@@SAXPAD@Z 004303eb f   world.obj
 0001:0002f450       ?run@?$_icmd_entloop@$0ECA@@@SAXPAD@Z 00430450 f   world.obj
 0001:0002f5dd       ?run@?$_icmd_insel@$0ECB@@@SAXXZ 004305dd f   world.obj
 0001:0002f5ff       ?run@?$_icmd_entget@$0ECC@@@SAXXZ 004305ff f   world.obj
 0001:0002f634       ?run@?$_icmd_entindex@$0ECD@@@SAXXZ 00430634 f   world.obj
 0001:0002f641       ?findentity@@YAHHHHH@Z     00430641 f   world.obj
 0001:0002f6ab       ?findplayerspawn@@YAXPAUdynent@@HH@Z 004306ab f   world.obj
 0001:0002f7c7       ?splitocta@@YAXPAUcube@@H@Z 004307c7 f   world.obj
 0001:0002f814       ?resetmap@@YAXXZ           00430814 f   world.obj
 0001:0002f94b       ?emptymap@@YA_NH_NPBD0@Z   0043094b f   world.obj
 0001:0002fa4e       ?enlargemap@@YA_N_N@Z      00430a4e f   world.obj
 0001:0002fb8f       ?shrinkmap@@YAXXZ          00430b8f f   world.obj
 0001:0002fd65       ?newmap@@YAXPAH@Z          00430d65 f   world.obj
 0001:0002fdcb       ?mapenlarge@@YAXXZ         00430dcb f   world.obj
 0001:0002fed6       ?mapname@@YAXXZ            00430ed6 f   world.obj
 0001:0002fee2       ?mpeditent@@YAXHABUvec@@HHHHHH_N@Z 00430ee2 f   world.obj
 0001:0002ffef       ?removeobj@?$vector@H@@QAEXABH@Z 00430fef f i world.obj
 0001:00030018       ?growbuf@?$vector@Uentity@@@@QAEXH@Z 00431018 f i world.obj
 0001:0003007a       ?fmod@@YAMMM@Z             0043107a f i world.obj
 0001:00030097       ?orthogonal@vec@@QAEXABU1@@Z 00431097 f i world.obj
 0001:00030145       ?concatstring@@YAPADPADPBDI@Z 00431145 f i world.obj
 0001:00030175       ??0octaentities@@QAE@ABUivec@@H@Z 00431175 f i world.obj
 0001:0003023d       ?backup@@YAXPAD0@Z         0043123d f   worldio.obj
 0001:0003029b       ?getmapfilenames@@YAXPBD0PAD11@Z 0043129b f   worldio.obj
 0001:000303af       ?setmapfilenames@@YAXPBD0@Z 004313af f   worldio.obj
 0001:0003049b       ?mapcfgname@@YAXXZ         0043149b f   worldio.obj
 0001:00030512       ?savec@@YAXPAUcube@@PAUstream@@_N@Z 00431512 f   worldio.obj
 0001:00030827       ?loadc@@YAXPAUstream@@AAUcube@@@Z 00431827 f   worldio.obj
 0001:00030b75       ?loadchildren@@YAPAUcube@@PAUstream@@@Z 00431b75 f   worldio.obj
 0001:00030b9c       ?savevslot@@YAXPAUstream@@AAUVSlot@@H@Z 00431b9c f   worldio.obj
 0001:00030ce7       ?savevslots@@YAXPAUstream@@H@Z 00431ce7 f   worldio.obj
 0001:00030db2       ?loadvslot@@YAXPAUstream@@AAUVSlot@@H@Z 00431db2 f   worldio.obj
 0001:00030f31       ?loadvslots@@YAXPAUstream@@H@Z 00431f31 f   worldio.obj
 0001:00031075       ?save_world@@YA_NPBD_N@Z   00432075 f   worldio.obj
 0001:00031698       ?load_world@@YA_NPBD0@Z    00432698 f   worldio.obj
 0001:00032318       ?savecurrentmap@@YAXXZ     00433318 f   worldio.obj
 0001:00032327       ?savemap@@YAXPAD@Z         00433327 f   worldio.obj
 0001:00032353       ?writeobj@@YAXPAD@Z        00433353 f   worldio.obj
 0001:00032cd2       ??1?$hashtable@Uvec@@H@@QAE@XZ 00433cd2 f i worldio.obj
 0001:00032cf6       ??1?$hashtable@Uvec2@@H@@QAE@XZ 00433cf6 f i worldio.obj
 0001:00032d1a       ??1?$hashtable@HU?$vector@Uivec@@@@@@QAE@XZ 00433d1a f i worldio.obj
 0001:00032d40       ?add@?$vector@PAUVSlot@@@@QAEAAPAUVSlot@@ABQAU2@@Z 00433d40 f i worldio.obj
 0001:00032d86       ?add@?$vector@Uvec@@@@QAEAAUvec@@ABU2@@Z 00433d86 f i worldio.obj
 0001:00032d86       ?add@?$vector@Uaviindexentry@@@@QAEAAUaviindexentry@@ABU2@@Z 00433d86 f i movie.obj
 0001:00032d86       ?add@?$vector@Ucubeface@@@@QAEAAUcubeface@@ABU2@@Z 00433d86 f i octa.obj
 0001:00032dbe       ??0?$hashtable@Uvec@@H@@QAE@H@Z 00433dbe f i worldio.obj
 0001:00032e1b       ?access@?$hashtable@Uvec@@H@@QAEAAHABUvec@@ABH@Z 00433e1b f i worldio.obj
 0001:00032e91       ??1?$hashset@U?$hashtableentry@Uvec@@H@@@@QAE@XZ 00433e91 f i worldio.obj
 0001:00032ec7       ??0?$hashtable@Uvec2@@H@@QAE@H@Z 00433ec7 f i worldio.obj
 0001:00032f28       ??1?$hashset@U?$hashtableentry@Uvec2@@H@@@@QAE@XZ 00433f28 f i worldio.obj
 0001:00032f5e       ??0?$hashtable@HU?$vector@Uivec@@@@@@QAE@H@Z 00433f5e f i worldio.obj
 0001:00032fbf       ??A?$hashtable@HU?$vector@Uivec@@@@@@QAEAAU?$vector@Uivec@@@@ABH@Z 00433fbf f i worldio.obj
 0001:00032ff0       ??1?$hashset@U?$hashtableentry@HU?$vector@Uivec@@@@@@@@QAE@XZ 00433ff0 f i worldio.obj
 0001:00033056       ?growbuf@?$vector@PAUVSlot@@@@QAEXH@Z 00434056 f i worldio.obj
 0001:000330ba       ??1chain@?$hashset@U?$hashtableentry@HU?$vector@Uivec@@@@@@@@QAE@XZ 004340ba f i worldio.obj
 0001:000330de       ??1?$hashtableentry@HU?$vector@Uivec@@@@@@QAE@XZ 004340de f i worldio.obj
 0001:00033116       ?insert@?$hashset@U?$hashtableentry@Uvec2@@H@@@@QAEPAUchain@1@I@Z 00434116 f i worldio.obj
 0001:00033197       ?insert@?$hashset@U?$hashtableentry@HU?$vector@Uivec@@@@@@@@QAEPAUchain@1@I@Z 00434197 f i worldio.obj
 0001:0003323c       ??0chain@?$hashset@U?$hashtableentry@HU?$vector@Uivec@@@@@@@@QAE@XZ 0043423c f i worldio.obj
 0001:00033267       ??$putlil@M@stream@@QAE_NM@Z 00434267 f i worldio.obj
 0001:00033287       ??$getlil@M@stream@@QAEMXZ 00434287 f i worldio.obj
 0001:000332a4       ?multiplayer@@YA_N_N@Z     004342a4 f   client.obj
 0001:000332d5       ?setrate@@YAXH@Z           004342d5 f   client.obj
 0001:000332f4       ?var_rate@@YAXXZ           004342f4 f   client.obj
 0001:000332f9       ?var_throttle_accel@@YAXXZ 004342f9 f   client.obj
 0001:000332f9       ?var_throttle_decel@@YAXXZ 004342f9 f   client.obj
 0001:000332f9       ?var_throttle_interval@@YAXXZ 004342f9 f   client.obj
 0001:000332fe       ?throttle@@YAXXZ           004342fe f   client.obj
 0001:0003332a       ?isconnected@@YA_N_N@Z     0043432a f   client.obj
 0001:00033346       ?run@?$_icmd_isconnected@$0CK@@@SAXPAH@Z 00434346 f   client.obj
 0001:00033369       ?run@?$_icmd_connectedip@$0DG@@@SAXXZ 00434369 f   client.obj
 0001:000333af       ?run@?$_icmd_connectedport@$0DM@@@SAXXZ 004343af f   client.obj
 0001:000333d0       ?abortconnect@@YAXXZ       004343d0 f   client.obj
 0001:00033421       ?connectserv@@YAXPBDH0@Z   00434421 f   client.obj
 0001:00033597       ?reconnect@@YAXPBD@Z       00434597 f   client.obj
 0001:000335c7       ?disconnect@@YAX_N0@Z      004345c7 f   client.obj
 0001:0003365c       ?trydisconnect@@YAXXZ      0043465c f   client.obj
 0001:000336ad       ?run@?$_icmd_connect@$0LC@@@SAXPADPAH0@Z 004346ad f   client.obj
 0001:000336c4       ?run@?$_icmd_lanconnect@$0LD@@@SAXPAHPAD@Z 004346c4 f   client.obj
 0001:000336d9       ?run@?$_icmd_localconnect@$0LG@@@SAXXZ 004346d9 f   client.obj
 0001:000336f6       ?run@?$_icmd_localdisconnect@$0LH@@@SAXXZ 004346f6 f   client.obj
 0001:00033708       ?sendclientpacket@@YAXPAU_ENetPacket@@H@Z 00434708 f   client.obj
 0001:00033733       ?flushclient@@YAXXZ        00434733 f   client.obj
 0001:00033744       ?localservertoclient@@YAXHPAU_ENetPacket@@@Z 00434744 f   client.obj
 0001:000337b9       ?clientkeepalive@@YAXXZ    004347b9 f   client.obj
 0001:000337d0       ?gets2c@@YAXXZ             004347d0 f   client.obj
 0001:0003396a       ??1packetbuf@@QAE@XZ       0043496a f i client.obj
 0001:00033991       ?getint@@YAHAAU?$databuf@E@@@Z 00434991 f   server.obj
 0001:000339f8       ?getuint@@YAHAAU?$databuf@E@@@Z 004349f8 f   server.obj
 0001:00033a62       ?sendstring@@YAXPBDAAU?$databuf@E@@@Z 00434a62 f   server.obj
 0001:00033a85       ?sendstring@@YAXPBDAAUpacketbuf@@@Z 00434a85 f   server.obj
 0001:00033aa8       ?sendstring@@YAXPBDAAU?$vector@E@@@Z 00434aa8 f   server.obj
 0001:00033acb       ?getstring@@YAXPADAAU?$databuf@E@@H@Z 00434acb f   server.obj
 0001:00033afc       ?filtertext@@YAXPADPBD_NH@Z 00434afc f   server.obj
 0001:00033b42       ?cleanupserver@@YAXXZ      00434b42 f   server.obj
 0001:00033b8a       ?getclientinfo@@YAPAXH@Z   00434b8a f   server.obj
 0001:00033bae       ?getclientip@@YAIH@Z       00434bae f   server.obj
 0001:00033bd2       ?sendpacket@@YAXHHPAU_ENetPacket@@H@Z 00434bd2 f   server.obj
 0001:00033c67       ?sendf@@YAXHHPBDZZ         00434c67 f   server.obj
 0001:00033e41       ?sendfile@@YAXHHPAUstream@@PBDZZ 00434e41 f   server.obj
 0001:00033fa5       ?disconnect_client@@YAXHH@Z 00434fa5 f   server.obj
 0001:00034081       ?kicknonlocalclients@@YAXH@Z 00435081 f   server.obj
 0001:000340b1       ?process@@YAXPAU_ENetPacket@@HH@Z 004350b1 f   server.obj
 0001:0003411c       ?localclienttoserver@@YAXHPAU_ENetPacket@@@Z 0043511c f   server.obj
 0001:00034158       ?addclient@@YAAAUclient@@XZ 00435158 f   server.obj
 0001:00034243       ?disconnectmaster@@YAXXZ   00435243 f   server.obj
 0001:00034285       ?var_masterport@@YAXXZ     00435285 f   server.obj
 0001:00034285       ?var_mastername@@YAXXZ     00435285 f   server.obj
 0001:0003428a       ?connectmaster@@YAIXZ      0043528a f   server.obj
 0001:0003431c       ?requestmasterf@@YA_NPBDZZ 0043531c f   server.obj
 0001:00034382       ?processmasterinput@@YAXXZ 00435382 f   server.obj
 0001:0003447b       ?flushmasteroutput@@YAXXZ  0043547b f   server.obj
 0001:000344e3       ?flushmasterinput@@YAXXZ   004354e3 f   server.obj
 0001:00034557       ?sendserverinforeply@@YAXAAU?$databuf@E@@@Z 00435557 f   server.obj
 0001:00034582       ?checkserversockets@@YAXXZ 00435582 f   server.obj
 0001:000346d0       ?var_maxclients@@YAXXZ     004356d0 f   server.obj
 0001:000346e4       ?var_serverport@@YAXXZ     004356e4 f   server.obj
 0001:000346f8       ?updatemasterserver@@YAXXZ 004356f8 f   server.obj
 0001:00034738       ?serverslice@@YAX_NI@Z     00435738 f   server.obj
 0001:00034a29       ?localdisconnect@@YAX_N@Z  00435a29 f   server.obj
 0001:00034ad3       ?localconnect@@YAXXZ       00435ad3 f   server.obj
 0001:00034b2f       ?rundedicatedserver@@YAXXZ 00435b2f f   server.obj
 0001:00034b5e       ?setuplistenserver@@YA_N_N@Z 00435b5e f   server.obj
 0001:00034d2b       ?startlistenserver@@YAXPAH@Z 00435d2b f   server.obj
 0001:00034d8c       ?stoplistenserver@@YAXXZ   00435d8c f   server.obj
 0001:00034dc9       ?serveroption@@YA_NPAD@Z   00435dc9 f   server.obj
 0001:00034e7d       ?put@?$vector@D@@QAEXPBDH@Z 00435e7d f i server.obj
 0001:000351a7       ?put@packetbuf@@QAEXABE@Z  004361a7 f i server.obj
 0001:000351c5       ?put@?$databuf@E@@QAEXABE@Z 004361c5 f i server.obj
 0001:000351df       ?subbuf@?$databuf@E@@QAE?AU1@H@Z 004361df f i server.obj
 0001:00035207       ?subbuf@packetbuf@@QAE?AU?$databuf@E@@H@Z 00436207 f i server.obj
 0001:0003522a       ?finalize@packetbuf@@QAEPAU_ENetPacket@@XZ 0043622a f i server.obj
 0001:00035246       ?checkspace@packetbuf@@QAEXH@Z 00436246 f i server.obj
 0001:00035283       ??0packetbuf@@QAE@HH@Z     00436283 f i server.obj
 0001:000352b4       ?resolverloop@@YAHPAX@Z    004362b4 f   serverbrowser.obj
 0001:000353e3       ?resolverinit@@YAXXZ       004363e3 f   serverbrowser.obj
 0001:000354c1       ?resolverstop@@YAXAAUresolverthread@@@Z 004364c1 f   serverbrowser.obj
 0001:000354ff       ?resolverclear@@YAXXZ      004364ff f   serverbrowser.obj
 0001:00035567       ?resolverquery@@YAXPBD@Z   00436567 f   serverbrowser.obj
 0001:000355a9       ?resolvercheck@@YA_NPAPBDPAU_ENetAddress@@@Z 004365a9 f   serverbrowser.obj
 0001:00035646       ?resolverwait@@YA_NPBDPAU_ENetAddress@@@Z 00436646 f   serverbrowser.obj
 0001:000357d6       ?connectthread@@YAHPAX@Z   004367d6 f   serverbrowser.obj
 0001:00035891       ?connectwithtimeout@@YAHIPBDABU_ENetAddress@@@Z 00436891 f   serverbrowser.obj
 0001:000359ec       ??0serverinfo@@QAE@XZ      004369ec f i serverbrowser.obj
 0001:00035a5c       ?compare@serverinfo@@SAHPAPAU1@0@Z 00436a5c f i serverbrowser.obj
 0001:00035bc4       ??_Gserverinfo@@QAEPAXI@Z  00436bc4 f i serverbrowser.obj
 0001:00035c15       ?addserver@@YAXPBDH0_N@Z   00436c15 f   serverbrowser.obj
 0001:00035cf6       ?pingservers@@YAXXZ        00436cf6 f   serverbrowser.obj
 0001:00035ea0       ?checkresolver@@YAXXZ      00436ea0 f   serverbrowser.obj
 0001:00035f4d       ?checkpings@@YAXXZ         00436f4d f   serverbrowser.obj
 0001:0003616c       ?refreshservers@@YAXXZ     0043716c f   serverbrowser.obj
 0001:0003621a       ?showservers@@YAPADPAUg3d_gui@@@Z 0043721a f   serverbrowser.obj
 0001:000363c7       ?clearservers@@YAX_N@Z     004373c7 f   serverbrowser.obj
 0001:00036449       ?retrieveservers@@YAXAAU?$vector@D@@@Z 00437449 f   serverbrowser.obj
 0001:00036669       ?updatefrommaster@@YAXXZ   00437669 f   serverbrowser.obj
 0001:000366ce       ?run@?$_icmd_addserver@$0CGB@@@SAXPBDPAH0@Z 004376ce f   serverbrowser.obj
 0001:000366f1       ?run@?$_icmd_keepserver@$0CGC@@@SAXPBDPAH0@Z 004376f1 f   serverbrowser.obj
 0001:00036714       ?run@?$_icmd_clearservers@$0CGD@@@SAXPAH@Z 00437714 f   serverbrowser.obj
 0001:00036729       ?writeservercfg@@YAXXZ     00437729 f   serverbrowser.obj
 0001:0003684e       ?add@?$vector@PAUserverinfo@@@@QAEAAPAUserverinfo@@ABQAU2@@Z 0043784e f i serverbrowser.obj
 0001:00036894       ?growbuf@?$vector@Uresolverresult@@@@QAEXH@Z 00437894 f i serverbrowser.obj
 0001:000368f6       ?growbuf@?$vector@PAUserverinfo@@@@QAEXH@Z 004378f6 f i serverbrowser.obj
 0001:0003695a       ?clear@editline@@QAEXXZ    0043795a f i 3dgui.obj
 0001:00036973       ?grow@editline@@QAA_NHPBDZZ 00437973 f i 3dgui.obj
 0001:000369d6       ?set@editline@@QAEXPBDH@Z  004379d6 f i 3dgui.obj
 0001:00036a2d       ?prepend@editline@@QAEXPBD@Z 00437a2d f i 3dgui.obj
 0001:00036a8d       ?append@editline@@QAEXPBD@Z 00437a8d f i 3dgui.obj
 0001:00036ae1       ?read@editline@@QAE_NPAUstream@@H@Z 00437ae1 f i 3dgui.obj
 0001:00036bd1       ?del@editline@@QAEXHH@Z    00437bd1 f i 3dgui.obj
 0001:00036c15       ?chop@editline@@QAEXH@Z    00437c15 f i 3dgui.obj
 0001:00036c38       ?insert@editline@@QAEXPADHH@Z 00437c38 f i 3dgui.obj
 0001:00036ca7       ?combinelines@editline@@QAEXAAU?$vector@Ueditline@@@@@Z 00437ca7 f i 3dgui.obj
 0001:00036d15       ??0editor@@QAE@PBDH0@Z     00437d15 f i 3dgui.obj
 0001:00036da8       ?clear@editor@@QAEXPBD@Z   00437da8 f i 3dgui.obj
 0001:00036e0d       ?setfile@editor@@QAEXPBD@Z 00437e0d f i 3dgui.obj
 0001:00036e40       ?load@editor@@QAEXXZ       00437e40 f i 3dgui.obj
 0001:00036ec8       ?save@editor@@QAEXXZ       00437ec8 f i 3dgui.obj
 0001:00036f10       ?mark@editor@@QAEX_N@Z     00437f10 f i 3dgui.obj
 0001:00036f2b       ?region@editor@@QAE_NAAH000@Z 00437f2b f i 3dgui.obj
 0001:00036ffe       ?currentline@editor@@QAEAAUeditline@@XZ 00437ffe f i 3dgui.obj
 0001:00037043       ?copyselectionto@editor@@QAEXPAU1@@Z 00438043 f i 3dgui.obj
 0001:00037118       ?tostring@editor@@QAEPADXZ 00438118 f i 3dgui.obj
 0001:00037191       ?selectiontostring@editor@@QAEPADXZ 00438191 f i 3dgui.obj
 0001:0003728e       ?removelines@editor@@QAEXHH@Z 0043828e f i 3dgui.obj
 0001:000372f2       ?del@editor@@QAEXXZ        004382f2 f i 3dgui.obj
 0001:000373f5       ?insert@editor@@QAEXD@Z    004383f5 f i 3dgui.obj
 0001:000374a6       ?insertallfrom@editor@@QAEXPAU1@@Z 004384a6 f i 3dgui.obj
 0001:000375c4       ?key@editor@@QAEXHH@Z      004385c4 f i 3dgui.obj
 0001:00037804       ?hit@editor@@QAEXHH_N@Z    00438804 f i 3dgui.obj
 0001:000378a6       ?draw@editor@@QAEXHHH_N@Z  004388a6 f i 3dgui.obj
 0001:00037b3d       ??_Geditor@@QAEPAXI@Z      00438b3d f i 3dgui.obj
 0001:00037c67       ?run@?$_icmd_textlist@$0CMB@@@SAXXZ 00438c67 f   3dgui.obj
 0001:00037cdd       ?run@?$_icmd_textshow@$0CMH@@@SAXXZ 00438cdd f   3dgui.obj
 0001:00037d21       ?run@?$_icmd_textfocus@$0CML@@@SAXPADPAH@Z 00438d21 f   3dgui.obj
 0001:00037d63       ?run@?$_icmd_textprev@$0CMM@@@SAXXZ 00438d63 f   3dgui.obj
 0001:00037d84       ?run@?$_icmd_textmode@$0CNE@@@SAXPAH@Z 00438d84 f   3dgui.obj
 0001:00037dcc       ?run@?$_icmd_textsave@$0CNI@@@SAXPAD@Z 00438dcc f   3dgui.obj
 0001:00037df5       ?run@?$_icmd_textload@$0COA@@@SAXPAD@Z 00438df5 f   3dgui.obj
 0001:00037e2f       ?run@?$_icmd_textinit@$0COK@@@SAXPAD00@Z 00438e2f f   3dgui.obj
 0001:00037ecd       ?run@?$_icmd_textcopy@$0COO@@@SAXXZ 00438ecd f   3dgui.obj
 0001:00037ef4       ?run@?$_icmd_textpaste@$0COP@@@SAXXZ 00438ef4 f   3dgui.obj
 0001:00037f1a       ?run@?$_icmd_textmark@$0CPD@@@SAXPAH@Z 00438f1a f   3dgui.obj
 0001:00037f70       ?run@?$_icmd_textselectall@$0CPE@@@SAXXZ 00438f70 f   3dgui.obj
 0001:00037f8d       ?run@?$_icmd_textclear@$0CPF@@@SAXXZ 00438f8d f   3dgui.obj
 0001:00037fa5       ?run@?$_icmd_textcurrentline@$0CPG@@@SAXXZ 00438fa5 f   3dgui.obj
 0001:00037fbe       ?run@?$_icmd_textexec@$0CPM@@@SAXPAH@Z 00438fbe f   3dgui.obj
 0001:00037ff7       ?allowautotab@gui@@UAEX_N@Z 00438ff7 f i 3dgui.obj
 0001:00038003       ?autotab@gui@@QAEXXZ       00439003 f i 3dgui.obj
 0001:0003806c       ?shouldtab@gui@@UAE_NXZ    0043906c f i 3dgui.obj
 0001:0003810c       ?visible@gui@@QAE_NXZ      0043910c f i 3dgui.obj
 0001:0003812f       ?tab@gui@@UAEXPBDH@Z       0043912f f i 3dgui.obj
 0001:00038314       ?pushlist@gui@@UAEXH@Z     00439314 f i 3dgui.obj
 0001:0003845a       ?poplist@gui@@UAEXXZ       0043945a f i 3dgui.obj
 0001:0003856a       ?text@gui@@UAEHPBDH0@Z     0043956a f i 3dgui.obj
 0001:0003858c       ?button@gui@@UAEHPBDH0@Z   0043958c f i 3dgui.obj
 0001:000385ae       ?title@gui@@UAEHPBDH0@Z    004395ae f i 3dgui.obj
 0001:000385d0       ?separator@gui@@UAEXXZ     004395d0 f i 3dgui.obj
 0001:000385e6       ?progress@gui@@UAEXM@Z     004395e6 f i 3dgui.obj
 0001:00038600       ?strut@gui@@UAEXM@Z        00439600 f i 3dgui.obj
 0001:00038652       ?space@gui@@UAEXM@Z        00439652 f i 3dgui.obj
 0001:000386a4       ?layout@gui@@QAEHHH@Z      004396a4 f i 3dgui.obj
 0001:0003872c       ?mergehits@gui@@UAEX_N@Z   0043972c f i 3dgui.obj
 0001:00038738       ?ishit@gui@@QAE_NHHHH@Z    00439738 f i 3dgui.obj
 0001:00038830       ?image@gui@@UAEHPAUTexture@@M_N@Z 00439830 f i 3dgui.obj
 0001:000388ae       ?texture@gui@@UAEHAAUVSlot@@M_N@Z 004398ae f i 3dgui.obj
 0001:00038928       ?slider@gui@@UAEXAAHHHHPAD@Z 00439928 f i 3dgui.obj
 0001:00038b4b       ?field@gui@@UAEPADPBDHHH0H@Z 00439b4b f i 3dgui.obj
 0001:00038b6c       ?keyfield@gui@@UAEPADPBDHHH0H@Z 00439b6c f i 3dgui.obj
 0001:00038b8d       ?field_@gui@@QAEPADPBDHHH0HH@Z 00439b8d f i 3dgui.obj
 0001:00038eef       ?text_@gui@@QAEXPBDHHH_N@Z 00439eef f i 3dgui.obj
 0001:00038f50       ?background@gui@@UAEXHHH@Z 00439f50 f i 3dgui.obj
 0001:00038fe8       ?icon_@gui@@QAEXPAUTexture@@_NHHH1@Z 00439fe8 f i 3dgui.obj
 0001:000391df       ?previewslot@gui@@QAEXAAUVSlot@@_NHHH1@Z 0043a1df f i 3dgui.obj
 0001:000397c9       ?line_@gui@@QAEXHM@Z       0043a7c9 f i 3dgui.obj
 0001:0003989f       ?textbox@gui@@UAEXPBDHHH@Z 0043a89f f i 3dgui.obj
 0001:00039922       ?button_@gui@@QAEHPBDH0_N1@Z 0043a922 f i 3dgui.obj
 0001:00039aa8       ?drawskin@gui@@SAXHHHHHHHABUvec@@M@Z 0043aaa8 f i 3dgui.obj
 0001:00039eb8       ?adjustscale@gui@@QAEXXZ   0043aeb8 f i 3dgui.obj
 0001:00039fb9       ?start@gui@@UAEXHMPAH_N@Z  0043afb9 f i 3dgui.obj
 0001:0003a30b       ?end@gui@@UAEXXZ           0043b30b f i 3dgui.obj
 0001:0003a6a7       ?menukey@@YA_NH_NH@Z       0043b6a7 f   3dgui.obj
 0001:0003aa95       ?g3d_movecursor@@YA_NHH@Z  0043ba95 f   3dgui.obj
 0001:0003ab4c       ?g3d_addgui@@YAXPAUg3d_callback@@AAUvec@@H@Z 0043bb4c f   3dgui.obj
 0001:0003ac5b       ?g3d_sort@@YAHPAUgui@@0@Z  0043bc5b f   3dgui.obj
 0001:0003ac7c       ?g3d_windowhit@@YA_N_N0@Z  0043bc7c f   3dgui.obj
 0001:0003ad01       ?g3d_render@@YAXXZ         0043bd01 f   3dgui.obj
 0001:0003b026       ?consolebox@@YAXHHHH@Z     0043c026 f   3dgui.obj
 0001:0003b155       ?add@?$vector@Ueditline@@@@QAEAAUeditline@@XZ 0043c155 f i 3dgui.obj
 0001:0003b1a9       ?insert@?$vector@Ueditline@@@@QAEAAUeditline@@HABU2@@Z 0043c1a9 f i 3dgui.obj
 0001:0003b21d       ?add@?$vector@PAUeditor@@@@QAEAAPAUeditor@@ABQAU2@@Z 0043c21d f i 3dgui.obj
 0001:0003b263       ?remove@?$vector@PAUeditor@@@@QAEPAUeditor@@H@Z 0043c263 f i 3dgui.obj
 0001:0003b294       ?insert@?$vector@PAUeditor@@@@QAEAAPAUeditor@@HABQAU2@@Z 0043c294 f i 3dgui.obj
 0001:0003b2d5       ?shrink@?$vector@Ugui@@@@QAEXH@Z 0043c2d5 f i 3dgui.obj
 0001:0003b2f1       ??_Egui@@UAEPAXI@Z         0043c2f1 f i  CIL library: CIL module
 0001:0003b2f1       ??_Ggui@@UAEPAXI@Z         0043c2f1 f i 3dgui.obj
 0001:0003b32a       ?growbuf@?$vector@PAUeditor@@@@QAEXH@Z 0043c32a f i 3dgui.obj
 0001:0003b38e       ?growbuf@?$vector@Ulist@gui@@@@QAEXH@Z 0043c38e f i 3dgui.obj
 0001:0003b3f0       ??_Gg3d_gui@@UAEPAXI@Z     0043c3f0 f i 3dgui.obj
 0001:0003b3f0       ??_Eg3d_gui@@UAEPAXI@Z     0043c3f0 f i  CIL library: CIL module
 0001:0003b40d       ??1g3d_gui@@UAE@XZ         0043c40d f i 3dgui.obj
 0001:0003b414       ??0vec@@QAE@MM@Z           0043c414 f i 3dgui.obj
 0001:0003b470       ?triintersect@BIH@@SA_NAAUtri@1@ABUvec@@1MAAMHPAU21@@Z 0043c470 f   bih.obj
 0001:0003b6b0       ?traverse@BIH@@QAE_NABUvec@@00MAAMHPAUBIHNode@@MM@Z 0043c6b0 f i bih.obj
 0001:0003ba19       ?traverse@BIH@@QAE_NABUvec@@0MAAMH@Z 0043ca19 f i bih.obj
 0001:0003bbc9       ?build@BIH@@QAEXAAU?$vector@UBIHNode@@@@PAGHABUvec@@2H@Z 0043cbc9 f   bih.obj
 0001:0003c132       ??0BIH@@QAE@PAU?$vector@Utri@BIH@@@@@Z 0043d132 f   bih.obj
 0001:0003c3b4       ?mmintersect@@YA_NABUextentity@@ABUvec@@1MHAAM@Z 0043d3b4 f   bih.obj
 0001:0003c4ed       ?max@vec@@QAEAAU1@ABU1@@Z  0043d4ed f i bih.obj
 0001:0003c531       ?min@vec@@QAEAAU1@ABU1@@Z  0043d531 f i bih.obj
 0001:0003c575       ?var_blobfadehigh@@YAXXZ   0043d575 f   blob.obj
 0001:0003c575       ?var_blobheight@@YAXXZ     0043d575 f   blob.obj
 0001:0003c575       ?var_blobfadelow@@YAXXZ    0043d575 f   blob.obj
 0001:0003c575       ?var_blobmargin@@YAXXZ     0043d575 f   blob.obj
 0001:0003c575       ?var_blobintensity@@YAXXZ  0043d575 f   blob.obj
 0001:0003c580       ?init@blobrenderer@@QAEXH@Z 0043d580 f i blob.obj
 0001:0003c6f4       ?freeblob@blobrenderer@@QAE_NXZ 0043d6f4 f i blob.obj
 0001:0003c752       ?newblob@blobrenderer@@QAEAAUblobinfo@@ABUvec@@M@Z 0043d752 f i blob.obj
 0001:0003c7bc       ?dupblob@blobrenderer@@QAEXXZ 0043d7bc f i blob.obj
 0001:0003c802       ?addvert@blobrenderer@@QAEHABUvec@@@Z 0043d802 f i blob.obj
 0001:0003c8b2       ?addtris@blobrenderer@@QAEXPBUvec@@H@Z 0043d8b2 f i blob.obj
 0001:0003ca41       ?genflattris@blobrenderer@@QAEXAAUcube@@HPAUvec@@I@Z 0043da41 f i blob.obj
 0001:0003cca2       ?genslopedtris@blobrenderer@@QAEXAAUcube@@HPAUvec@@I@Z 0043dca2 f i blob.obj
 0001:0003d193       ?checkoverlap@blobrenderer@@QAEHABUivec@@H@Z 0043e193 f i blob.obj
 0001:0003d26a       ?gentris@blobrenderer@@QAEXPAUcube@@ABUivec@@HPAEE@Z 0043e26a f i blob.obj
 0001:0003d702       ?addblob@blobrenderer@@QAEPAUblobinfo@@ABUvec@@MM@Z 0043e702 f i blob.obj
 0001:0003d848       ?setuprenderstate@blobrenderer@@SAXXZ 0043e848 f i blob.obj
 0001:0003d8d6       ?cleanuprenderstate@blobrenderer@@SAXXZ 0043e8d6 f i blob.obj
 0001:0003d925       ?fadeblob@blobrenderer@@QAEXPAUblobinfo@@M@Z 0043e925 f i blob.obj
 0001:0003da3b       ?renderblob@blobrenderer@@QAEXABUvec@@MM@Z 0043ea3b f i blob.obj
 0001:0003dc29       ?var_blobstattris@@YAXXZ   0043ec29 f   blob.obj
 0001:0003dc33       ?var_blobdyntris@@YAXXZ    0043ec33 f   blob.obj
 0001:0003dc3e       ?initblobs@@YAXH@Z         0043ec3e f   blob.obj
 0001:0003dc96       ?renderblob@@YAXHABUvec@@MM@Z 0043ec96 f   blob.obj
 0001:0003dcf1       ??$clipabove@$0A@@blobrenderer@@SAHPBUvec@@HMPAU1@@Z 0043ecf1 f i blob.obj
 0001:0003de90       ??$clipbelow@$0A@@blobrenderer@@SAHPBUvec@@HMPAU1@@Z 0043ee90 f i blob.obj
 0001:0003e02f       ??$clipabove@$00@blobrenderer@@SAHPBUvec@@HMPAU1@@Z 0043f02f f i blob.obj
 0001:0003e1d1       ??$clipbelow@$00@blobrenderer@@SAHPBUvec@@HMPAU1@@Z 0043f1d1 f i blob.obj
 0001:0003e373       ??$clipabove@$01@blobrenderer@@SAHPBUvec@@HMPAU1@@Z 0043f373 f i blob.obj
 0001:0003e515       ??$clipbelow@$01@blobrenderer@@SAHPBUvec@@HMPAU1@@Z 0043f515 f i blob.obj
 0001:0003e6b7       ??$split@$01@blobrenderer@@SAHPBUvec@@HMPAU1@@Z 0043f6b7 f i blob.obj
 0001:0003e84f       ?var_maxdecaltris@@YAXXZ   0043f84f f   decal.obj
 0001:0003e854       ?init@decalrenderer@@QAEXH@Z 0043f854 f i decal.obj
 0001:0003e917       ?freedecal@decalrenderer@@QAEHXZ 0043f917 f i decal.obj
 0001:0003e96d       ?fadedecal@decalrenderer@@QAEXAAUdecalinfo@@E@Z 0043f96d f i decal.obj
 0001:0003ea50       ?clearfadeddecals@decalrenderer@@QAEXXZ 0043fa50 f i decal.obj
 0001:0003eafc       ?fadeindecals@decalrenderer@@QAEXXZ 0043fafc f i decal.obj
 0001:0003eb9d       ?fadeoutdecals@decalrenderer@@QAEXXZ 0043fb9d f i decal.obj
 0001:0003ec3c       ?setuprenderstate@decalrenderer@@SAXXZ 0043fc3c f i decal.obj
 0001:0003eca7       ?render@decalrenderer@@QAEXXZ 0043fca7 f i decal.obj
 0001:0003ee99       ?decalclip@decalrenderer@@SAHPBUvec@@HABUplane@@PAU2@@Z 0043fe99 f i decal.obj
 0001:0003f05b       ?adddecal@decalrenderer@@QAEXABUvec@@0MABUbvec@@H@Z 0044005b f i decal.obj
 0001:0003f27d       ?gendecaltris@decalrenderer@@QAEXAAUcube@@HPAUvec@@_N@Z 0044027d f i decal.obj
 0001:0003fb70       ?gendecaltris@decalrenderer@@QAEXPAUcube@@ABUivec@@HPAEE@Z 00440b70 f i decal.obj
 0001:0003ffa4       ?initdecals@@YAXXZ         00440fa4 f   decal.obj
 0001:0003ffbf       ?renderdecals@@YAX_N@Z     00440fbf f   decal.obj
 0001:00040083       ?adddecal@@YAXHABUvec@@0MABUbvec@@H@Z 00441083 f   decal.obj
 0001:000400e8       ?rotate@vec@@QAEAAU1@MMABU1@@Z 004410e8 f i decal.obj
 0001:00040198       ?rotate@vec@@QAEAAU1@MABU1@@Z 00441198 f i decal.obj
 0001:000401d0       ?calcradius@dynlight@@QAEXXZ 004411d0 f i dynlight.obj
 0001:00040244       ?calccolor@dynlight@@QAEXXZ 00441244 f i dynlight.obj
 0001:00040311       ?adddynlight@@YAXABUvec@@M0HHHM0PAUphysent@@@Z 00441311 f   dynlight.obj
 0001:000403f8       ?cleardynlights@@YAXXZ     004413f8 f   dynlight.obj
 0001:0004047a       ?removetrackeddynlights@@YAXPAUphysent@@@Z 0044147a f   dynlight.obj
 0001:000404f8       ?updatedynlights@@YAXXZ    004414f8 f   dynlight.obj
 0001:0004057a       ?finddynlights@@YAHXZ      0044157a f   dynlight.obj
 0001:00040781       ?dynlightreaching@@YAXABUvec@@AAU1@1@Z 00441781 f   dynlight.obj
 0001:00040879       ?calcdynlightmask@@YAXPAUvtxarray@@@Z 00441879 f   dynlight.obj
 0001:000408e7       ?setdynlights@@YAHPAUvtxarray@@@Z 004418e7 f   dynlight.obj
 0001:00040af0       ?insert@?$vector@Udynlight@@@@QAEAAUdynlight@@HABU2@@Z 00441af0 f i dynlight.obj
 0001:00040b80       ?insert@?$vector@PAUdynlight@@@@QAEAAPAUdynlight@@HABQAU2@@Z 00441b80 f i dynlight.obj
 0001:00040beb       ?growbuf@?$vector@Udynlight@@@@QAEXH@Z 00441beb f i dynlight.obj
 0001:00040c4d       ?growbuf@?$vector@PAUdynlight@@@@QAEXH@Z 00441c4d f i dynlight.obj
 0001:00040cb1       ??$dist_to_bb@Uivec@@@vec@@QBEMABUivec@@0@Z 00441cb1 f i dynlight.obj
 0001:00040d03       ??1rendertarget@@UAE@XZ    00441d03 f i glare.obj
 0001:00040d0a       ?attachment@rendertarget@@UBEIXZ 00441d0a f i glare.obj
 0001:00040d10       ?colorformats@rendertarget@@UBEPBIXZ 00441d10 f i glare.obj
 0001:00040d16       ?depthformats@rendertarget@@UBEPBIXZ 00441d16 f i glare.obj
 0001:00040d1c       ?cleanup@rendertarget@@QAEX_N@Z 00441d1c f i glare.obj
 0001:00040d76       ?cleanupblur@rendertarget@@QAEXXZ 00441d76 f i glare.obj
 0001:00040dbb       ?setupblur@rendertarget@@QAEXXZ 00441dbb f i glare.obj
 0001:00040ea9       ?setup@rendertarget@@QAEXHH@Z 00441ea9 f i glare.obj
 0001:0004112f       ?blur@rendertarget@@QAEXHMHHHH_N@Z 0044212f f i glare.obj
 0001:000412f5       ?doblur@rendertarget@@UAEXHM@Z 004422f5 f i glare.obj
 0001:0004136e       ?scissorrender@rendertarget@@UAE_NAAH000@Z 0044236e f i glare.obj
 0001:000414cc       ?scissorblur@rendertarget@@UAE_NAAH000@Z 004424cc f i glare.obj
 0001:00041611       ?render@rendertarget@@QAEXHHHM@Z 00442611 f i glare.obj
 0001:00041a82       ?usesvertexarray@?$varenderer@$0A@@@UAE_NXZ 00442a82 f i renderparticles.obj
 0001:00041a82       ?shouldrender@rendertarget@@UAE_NXZ 00442a82 f i glare.obj
 0001:00041a82       ?hidefrags@ctfclientmode@game@@UAE_NXZ 00442a82 f i client1.obj
 0001:00041a82       ?dorender@rendertarget@@UAE_NXZ 00442a82 f i glare.obj
 0001:00041a82       ?flipdebug@rendertarget@@UBE_NXZ 00442a82 f i glare.obj
 0001:00041a82       ?loaddefaultparts@animmodel@@UAE_NXZ 00442a82 f i rendermodel.obj
 0001:00041a82       ?usesvertexarray@?$varenderer@$00@@UAE_NXZ 00442a82 f i renderparticles.obj
 0001:00041a82       ?keepable@explodeevent@server@@UBE_NXZ 00442a82 f i server1.obj
 0001:00041a82       ?depthtest@rendertarget@@UBE_NXZ 00442a82 f i glare.obj
 0001:00041a82       ?filter@rendertarget@@UBE_NXZ 00442a82 f i glare.obj
 0001:00041a82       ?hidefrags@captureclientmode@game@@UAE_NXZ 00442a82 f i client1.obj
 0001:00041a82       ?usesvertexarray@?$varenderer@$01@@UAE_NXZ 00442a82 f i renderparticles.obj
 0001:00041a82       ?hidefrags@ctfservmode@server@@UAE_NXZ 00442a82 f i server1.obj
 0001:00041a82       ?hidefrags@captureservmode@server@@UAE_NXZ 00442a82 f i server1.obj
 0001:00041a85       ??_Grendertarget@@UAEPAXI@Z 00442a85 f i glare.obj
 0001:00041a85       ??_Erendertarget@@UAEPAXI@Z 00442a85 f i  CIL library: CIL module
 0001:00041aa2       ?dorender@glaretexture@@UAE_NXZ 00442aa2 f i glare.obj
 0001:00041aaa       ??_Gdepthfxtexture@@UAEPAXI@Z 00442aaa f i renderparticles.obj
 0001:00041aaa       ??_Eshadowmaptexture@@UAEPAXI@Z 00442aaa f i  CIL library: CIL module
 0001:00041aaa       ??_Gshadowmaptexture@@UAEPAXI@Z 00442aaa f i shadowmap.obj
 0001:00041aaa       ??_Edepthfxtexture@@UAEPAXI@Z 00442aaa f i  CIL library: CIL module
 0001:00041aaa       ??_Eglaretexture@@UAEPAXI@Z 00442aaa f i  CIL library: CIL module
 0001:00041aaa       ??_Gglaretexture@@UAEPAXI@Z 00442aaa f i glare.obj
 0001:00041ae3       ?var_glaresize@@YAXXZ      00442ae3 f   glare.obj
 0001:00041af0       ?drawglaretex@@YAXXZ       00442af0 f   glare.obj
 0001:00041b30       ?addglare@@YAXXZ           00442b30 f   glare.obj
 0001:00041bc0       ??0grasswedge@@QAE@H@Z     00442bc0 f i grass.obj
 0001:00041e84       ?var_grasscolour@@YAXXZ    00442e84 f   grass.obj
 0001:00042653       ?generategrass@@YAXXZ      00443653 f   grass.obj
 0001:000427a1       ?rendergrass@@YAXXZ        004437a1 f   grass.obj
 0001:00042b54       ?add@?$vector@Ugrassvert@@@@QAEAAUgrassvert@@XZ 00443b54 f i grass.obj
 0001:00042b98       ?growbuf@?$vector@Ugrassvert@@@@QAEXH@Z 00443b98 f i grass.obj
 0001:00042bfa       ?growbuf@?$vector@Ugrassgroup@@@@QAEXH@Z 00443bfa f i grass.obj
 0001:00042c75       ??1QuadNode@@QAE@XZ        00443c75 f i material.obj
 0001:00042c9f       ?insert@QuadNode@@QAEXHHH@Z 00443c9f f i material.obj
 0001:00042db0       ?genmatsurf@QuadNode@@QAEXEEEHHHHAAPAUmaterialsurface@@@Z 00443db0 f i material.obj
 0001:00042dfd       ?genmatsurfs@QuadNode@@QAEXEEEHAAPAUmaterialsurface@@@Z 00443dfd f i material.obj
 0001:00042ea9       ?renderwaterfall@@YAXABUmaterialsurface@@PAUTexture@@MMEPBUvec@@@Z 00443ea9 f   material.obj
 0001:000430bb       ?drawmaterial@@YAXHHHHHHM@Z 004440bb f   material.obj
 0001:000431c8       ?findmaterial@@YAHPBD@Z    004441c8 f   material.obj
 0001:000431f6       ?visiblematerial@@YAHAAUcube@@HHHHHE@Z 004441f6 f   material.obj
 0001:0004329f       ?genmatsurfs@@YAXAAUcube@@HHHHAAU?$vector@Umaterialsurface@@@@AAE2@Z 0044429f f   material.obj
 0001:0004361b       ?optimizematsurfs@@YAHPAUmaterialsurface@@H@Z 0044461b f   material.obj
 0001:00043808       ?setupmaterials@@YAXHH@Z   00444808 f   material.obj
 0001:00043dc7       ??1unionfind@@QAE@XZ       00444dc7 f i material.obj
 0001:00043f60       ?sortmaterials@@YAXAAU?$vector@PAUmaterialsurface@@@@@Z 00444f60 f   material.obj
 0001:000441b7       ?rendermatgrid@@YAXAAU?$vector@PAUmaterialsurface@@@@@Z 004451b7 f   material.obj
 0001:0004430a       ?drawglass@@YAXHHHHHHMPBUvec@@@Z 0044530a f   material.obj
 0001:0004449c       ?var_waterfallenv@@YAXXZ   0044549c f   material.obj
 0001:000444a5       ?rendermaterials@@YAXXZ    004454a5 f   material.obj
 0001:00045146       ?pad@?$vector@E@@QAEPAEH@Z 00446146 f i material.obj
 0001:00045169       ?compressfind@unionfind@@QAEHH@Z 00446169 f i material.obj
 0001:00045188       ?unite@unionfind@@QAEXHH@Z 00446188 f i material.obj
 0001:000452d6       ?gl_checkextensions@@YAXXZ 004462d6 f   rendergl.obj
 0001:00046461       ?glext@@YAXPAD@Z           00447461 f   rendergl.obj
 0001:00046486       ?gl_init@@YAXHHHHH@Z       00447486 f   rendergl.obj
 0001:0004657e       ?enable@varray@@YAXXZ      0044757e f   rendergl.obj
 0001:00046595       ?defattrib@varray@@YAXHHI@Z 00447595 f   rendergl.obj
 0001:000467aa       ?end@varray@@YAHXZ         004477aa f   rendergl.obj
 0001:000468ee       ?disable@varray@@YAXXZ     004478ee f   rendergl.obj
 0001:00046967       ?run@?$_icmd_getcampos@$0CPA@@@SAXXZ 00447967 f   rendergl.obj
 0001:000469cf       ?findorientation@@YAXXZ    004479cf f   rendergl.obj
 0001:00046ac7       ?transplayer@@YAXXZ        00447ac7 f   rendergl.obj
 0001:00046b6a       ?var_zoom@@YAXXZ           00447b6a f   rendergl.obj
 0001:00046b7e       ?computezoom@@YAXXZ        00447b7e f   rendergl.obj
 0001:00046cc1       ?isthirdperson@@YA_NXZ     00447cc1 f   rendergl.obj
 0001:00046ce4       ?fixcamerarange@@YAXXZ     00447ce4 f   rendergl.obj
 0001:00046d5d       ?mousemove@@YAXHH@Z        00447d5d f   rendergl.obj
 0001:00046e73       ?recomputecamera@@YAXXZ    00447e73 f   rendergl.obj
 0001:000470c6       ?readmatrices@@YAXXZ       004480c6 f   rendergl.obj
 0001:00047115       ?project@@YAXMMH_N00M@Z    00448115 f   rendergl.obj
 0001:000471fb       ?calcavatarpos@@YA?AUvec@@ABU1@M@Z 004481fb f   rendergl.obj
 0001:000472f4       ?pushprojection@@YAXABUglmatrixf@@@Z 004482f4 f   rendergl.obj
 0001:00047353       ?popprojection@@YAXXZ      00448353 f   rendergl.obj
 0001:000473a4       ?enablepolygonoffset@@YAXI@Z 004483a4 f   rendergl.obj
 0001:0004743d       ?disablepolygonoffset@@YAXI@Z 0044843d f   rendergl.obj
 0001:000474ae       ?calcspherescissor@@YAXABUvec@@MAAM111@Z 004484ae f   rendergl.obj
 0001:000477a6       ?pushscissor@@YAHMMMM@Z    004487a6 f   rendergl.obj
 0001:000479a7       ?popscissor@@YAXXZ         004489a7 f   rendergl.obj
 0001:000479e8       ?setenvmatrix@@YAXXZ       004489e8 f   rendergl.obj
 0001:00047a1c       ?var_fogcolour@@YAXXZ      00448a1c f   rendergl.obj
 0001:00047dde       ?drawfogoverlay@@YAXHMH@Z  00448dde f   rendergl.obj
 0001:00047f33       ?rendergame@@YAX_N@Z       00448f33 f   rendergl.obj
 0001:00047f4e       ?drawglare@@YAXXZ          00448f4e f   rendergl.obj
 0001:0004811e       ?drawreflection@@YAXM_N@Z  0044911e f   rendergl.obj
 0001:000488e1       ?drawcubemap@@YAXHABUvec@@MMABUcubemapside@@@Z 004498e1 f   rendergl.obj
 0001:00048aca       ?clearminimap@@YAXXZ       00449aca f   rendergl.obj
 0001:00048ae8       ?var_minimapcolour@@YAXXZ  00449ae8 f   rendergl.obj
 0001:00048b15       ?var_minimapsize@@YAXXZ    00449b15 f   rendergl.obj
 0001:00048b24       ?clipminimap@@YAXAAUivec@@0PAUcube@@HHHH@Z 00449b24 f   rendergl.obj
 0001:00048beb       ?drawminimap@@YAXXZ        00449beb f   rendergl.obj
 0001:00049268       ?cleanupmotionblur@@YAXXZ  0044a268 f   rendergl.obj
 0001:0004929a       ?var_motionblur@@YAXXZ     0044a29a f   rendergl.obj
 0001:000492a9       ?addmotionblur@@YAXXZ      0044a2a9 f   rendergl.obj
 0001:00049588       ?gl_drawframe@@YAXHH@Z     0044a588 f   rendergl.obj
 0001:00049a2e       ?gl_drawmainmenu@@YAXHH@Z  0044aa2e f   rendergl.obj
 0001:00049abe       ?damagecompass@@YAXHABUvec@@@Z 0044aabe f   rendergl.obj
 0001:00049bd7       ?drawdamagecompass@@YAXHH@Z 0044abd7 f   rendergl.obj
 0001:00049e27       ?var_damagescreen@@YAXXZ   0044ae27 f   rendergl.obj
 0001:00049e38       ?damageblend@@YAXH@Z       0044ae38 f   rendergl.obj
 0001:00049e7c       ?drawdamagescreen@@YAXHH@Z 0044ae7c f   rendergl.obj
 0001:00049ff4       ?loadcrosshair@@YAXPBDH@Z  0044aff4 f   rendergl.obj
 0001:0004a05d       ?loadcrosshair_@@YAXPBDPAH@Z 0044b05d f   rendergl.obj
 0001:0004a070       ?run@?$_icmd_getcrosshair@$0IIA@@@SAXPAH@Z 0044b070 f   rendergl.obj
 0001:0004a0bc       ?writecrosshairs@@YAXPAUstream@@@Z 0044b0bc f   rendergl.obj
 0001:0004a0f8       ?drawcrosshair@@YAXHH@Z    0044b0f8 f   rendergl.obj
 0001:0004a351       ?gl_drawhud@@YAXHH@Z       0044b351 f   rendergl.obj
 0001:0004aad8       ??$transform@Uvec@@@glmatrixf@@QBEXABUvec@@AAU1@@Z 0044bad8 f i rendergl.obj
 0001:0004ab28       ??$perspectivetransform@Uvec4@@@glmatrixf@@QBE?AUvec@@ABUvec4@@@Z 0044bb28 f i rendergl.obj
 0001:0004abff       ?frustum@glmatrixf@@QAEXMMMMMM@Z 0044bbff f i rendergl.obj
 0001:0004aca4       ?perspective@glmatrixf@@QAEXMMMM@Z 0044bca4 f i rendergl.obj
 0001:0004ad0a       ?clip@glmatrixf@@QAEXABUplane@@ABU1@@Z 0044bd0a f i rendergl.obj
 0001:0004adc8       ?transposedtransform@glmatrixf@@QBEXABUplane@@AAU2@@Z 0044bdc8 f i rendergl.obj
 0001:0004ae78       ?transpose@glmatrixf@@QAEXXZ 0044be78 f i rendergl.obj
 0001:0004af09       ?reflectz@glmatrixf@@QAEXM@Z 0044bf09 f i rendergl.obj
 0001:0004afa0       ??$mul@MM@glmatrixf@@QAEXQBM0@Z 0044bfa0 f i rendergl.obj
 0001:0004b1a8       ??0glmatrixf@@QAE@ABUvec4@@000@Z 0044c1a8 f i rendergl.obj
 0001:0004b23a       ??0ragdollskel@@QAE@XZ     0044c23a f i rendermodel.obj
 0001:0004b2ba       ?setupjoints@ragdollskel@@QAEXXZ 0044c2ba f i rendermodel.obj
 0001:0004b530       ?setuprotfrictions@ragdollskel@@QAEXXZ 0044c530 f i rendermodel.obj
 0001:0004b656       ??0vert@ragdolldata@@QAE@XZ 0044c656 f i rendermodel.obj
 0001:0004b674       ??0ragdolldata@@QAE@PAUragdollskel@@M@Z 0044c674 f i rendermodel.obj
 0001:0004b791       ?calcanimjoint@ragdolldata@@QAEXHABUmatrix3x4@@@Z 0044c791 f i rendermodel.obj
 0001:0004b8e0       ?calctris@ragdolldata@@QAEXXZ 0044c8e0 f i rendermodel.obj
 0001:0004b9d2       ?calcboundsphere@ragdolldata@@QAEXXZ 0044c9d2 f i rendermodel.obj
 0001:0004ba95       ?init@ragdolldata@@QAEXPAUdynent@@@Z 0044ca95 f i rendermodel.obj
 0001:0004bb82       ?collidevert@ragdolldata@@SA_NABUvec@@0M@Z 0044cb82 f i rendermodel.obj
 0001:0004bc43       ?constraindist@ragdolldata@@QAEXXZ 0044cc43 f   rendermodel.obj
 0001:0004be1b       ?applyrotlimit@ragdolldata@@QAEXAAUtri@ragdollskel@@0MABUvec@@@Z 0044ce1b f i rendermodel.obj
 0001:0004c46e       ?constrainrot@ragdolldata@@QAEXXZ 0044d46e f   rendermodel.obj
 0001:0004c535       ?calcrotfriction@ragdolldata@@QAEXXZ 0044d535 f   rendermodel.obj
 0001:0004c577       ?applyrotfriction@ragdolldata@@QAEXM@Z 0044d577 f   rendermodel.obj
 0001:0004c6ef       ?updatepos@ragdolldata@@QAEXXZ 0044d6ef f   rendermodel.obj
 0001:0004c85b       ?move@ragdolldata@@QAEXPAUdynent@@M@Z 0044d85b f   rendermodel.obj
 0001:0004cc49       ?moveragdoll@@YAXPAUdynent@@@Z 0044dc49 f   rendermodel.obj
 0001:0004cda7       ?cleanragdoll@@YAXPAUdynent@@@Z 0044dda7 f   rendermodel.obj
 0001:0004cdc2       ??_Gragdolldata@@QAEPAXI@Z 0044ddc2 f i rendermodel.obj
 0001:0004cdfa       ?var_glowmodels@@YAXXZ     0044ddfa f   rendermodel.obj
 0001:0004cdfa       ?var_bumpmodels@@YAXXZ     0044ddfa f   rendermodel.obj
 0001:0004cdfa       ?var_lightmodels@@YAXXZ    0044ddfa f   rendermodel.obj
 0001:0004cdfa       ?var_envmapmodels@@YAXXZ   0044ddfa f   rendermodel.obj
 0001:0004cdff       ?setframes@animpos@animmodel@@QAEXABUaniminfo@@@Z 0044ddff f i rendermodel.obj
 0001:0004cec0       ??8animpos@animmodel@@QBE_NABU01@@Z 0044dec0 f i rendermodel.obj
 0001:0004cee9       ??9animpos@animmodel@@QBE_NABU01@@Z 0044dee9 f i rendermodel.obj
 0001:0004cf12       ??9animstate@animmodel@@QBE_NABU01@@Z 0044df12 f i rendermodel.obj
 0001:0004cf5c       ?envmapped@skin@animmodel@@QAE_NXZ 0044df5c f i rendermodel.obj
 0001:0004cf92       ?bumpmapped@skin@animmodel@@QAE_NXZ 0044df92 f i rendermodel.obj
 0001:0004cfab       ?normals@skin@animmodel@@QAE_NXZ 0044dfab f i rendermodel.obj
 0001:0004cfe6       ?setuptmus@skin@animmodel@@QAEXPBUanimstate@2@_N@Z 0044dfe6 f i rendermodel.obj
 0001:0004d4ba       ?setshaderparams@skin@animmodel@@QAEXPAUmesh@2@PBUanimstate@2@_N@Z 0044e4ba f i rendermodel.obj
 0001:0004d6f9       ?loadshader@skin@animmodel@@QAEPAUShader@@_N0@Z 0044e6f9 f i rendermodel.obj
 0001:0004d977       ?preloadshader@skin@animmodel@@QAEXXZ 0044e977 f i rendermodel.obj
 0001:0004dad3       ?bind@skin@animmodel@@QAEXPAUmesh@2@PBUanimstate@2@@Z 0044ead3 f i rendermodel.obj
 0001:0004e019       ??1mesh@animmodel@@UAE@XZ  0044f019 f i rendermodel.obj
 0001:0004e036       ?gentris@mesh@animmodel@@UAEXHPAUTexture@@PAU?$vector@Utri@BIH@@@@ABUmatrix3x4@@@Z 0044f036 f i rendermodel.obj
 0001:0004e036       ?calcbb@mesh@animmodel@@UAEXHAAUvec@@0ABUmatrix3x4@@@Z 0044f036 f i rendermodel.obj
 0001:0004e039       ?setshader@mesh@animmodel@@UAEXPAUShader@@@Z 0044f039 f i rendermodel.obj
 0001:0004e059       ??0meshgroup@animmodel@@QAE@XZ 0044f059 f i rendermodel.obj
 0001:0004e0a5       ??1meshgroup@animmodel@@UAE@XZ 0044f0a5 f i rendermodel.obj
 0001:0004e12c       ?findtag@meshgroup@animmodel@@UAEHPBD@Z 0044f12c f i rendermodel.obj
 0001:0004e132       ?concattagtransform@meshgroup@animmodel@@UAEXPAUpart@2@HHABUmatrix3x4@@AAU4@@Z 0044f132 f i rendermodel.obj
 0001:0004e132       ?moved@servmode@server@@UAEXPAUclientinfo@2@ABUvec@@_N12@Z 0044f132 f i server1.obj
 0001:0004e132       ?render@meshgroup@animmodel@@UAEXPBUanimstate@2@MABUvec@@PAUdynent@@PAUpart@2@@Z 0044f132 f i rendermodel.obj
 0001:0004e135       ?sharemeshes@animmodel@@QAAPAUmeshgroup@1@PADZZ 0044f135 f i rendermodel.obj
 0001:0004e1df       ??0part@animmodel@@QAE@XZ  0044f1df f i rendermodel.obj
 0001:0004e24c       ??1part@animmodel@@UAE@XZ  0044f24c f i rendermodel.obj
 0001:0004e2ea       ?cleanup@part@animmodel@@UAEXXZ 0044f2ea f i rendermodel.obj
 0001:0004e2f9       ?calcbb@part@animmodel@@QAEXHAAUvec@@0ABUmatrix3x4@@@Z 0044f2f9 f i rendermodel.obj
 0001:0004e3cc       ?gentris@part@animmodel@@QAEXHPAU?$vector@Utri@BIH@@@@ABUmatrix3x4@@@Z 0044f3cc f i rendermodel.obj
 0001:0004e4c0       ?link@part@animmodel@@QAE_NPAU12@PBDABUvec@@HHPAU3@@Z 0044f4c0 f i rendermodel.obj
 0001:0004e554       ?unlink@part@animmodel@@QAE_NPAU12@@Z 0044f554 f i rendermodel.obj
 0001:0004e5d7       ?initskins@part@animmodel@@QAEXPAUTexture@@0H@Z 0044f5d7 f i rendermodel.obj
 0001:0004e70d       ?getdefaultanim@part@animmodel@@UAEXAAUaniminfo@@HIPAUdynent@@@Z 0044f70d f i rendermodel.obj
 0001:0004e71f       ?calcanim@part@animmodel@@QAE_NHHHHPAUdynent@@HAAUaniminfo@@@Z 0044f71f f i rendermodel.obj
 0001:0004e9d0       ?calcpitchaxis@part@animmodel@@QAEMHMAAUvec@@00@Z 0044f9d0 f i rendermodel.obj
 0001:0004eac8       ?render@part@animmodel@@QAEXHHHMABUvec@@PAUdynent@@00@Z 0044fac8 f i rendermodel.obj
 0001:0004eafc       ?render@part@animmodel@@QAEXHHHMABUvec@@PAUdynent@@00PAUanimstate@2@@Z 0044fafc f i rendermodel.obj
 0001:0004f07a       ?setanim@part@animmodel@@QAEXHHHHMH@Z 0045007a f i rendermodel.obj
 0001:0004f177       ?render@animmodel@@QAEXHHHMABUvec@@PAUdynent@@PAUmodelattach@@00@Z 00450177 f i rendermodel.obj
 0001:0004f3d3       ?render@animmodel@@UAEXHHHABUvec@@MMPAUdynent@@PAUmodelattach@@00M@Z 004503d3 f i rendermodel.obj
 0001:0004f8cd       ??0animmodel@@QAE@PBD@Z    004508cd f i rendermodel.obj
 0001:0004f985       ??1animmodel@@UAE@XZ       00450985 f i rendermodel.obj
 0001:0004fa02       ?name@animmodel@@UAEPADXZ  00450a02 f i rendermodel.obj
 0001:0004fa06       ?cleanup@animmodel@@UAEXXZ 00450a06 f i rendermodel.obj
 0001:0004fa2c       ?initmatrix@animmodel@@QAEXAAUmatrix3x4@@@Z 00450a2c f i rendermodel.obj
 0001:0004faca       ?preloadBIH@animmodel@@UAEXXZ 00450aca f i rendermodel.obj
 0001:0004fb39       ?setBIH@animmodel@@UAEPAUBIH@@XZ 00450b39 f i rendermodel.obj
 0001:0004fc01       ?envmapped@animmodel@@UAE_NXZ 00450c01 f i rendermodel.obj
 0001:0004fc61       ?preloadshaders@animmodel@@UAEXXZ 00450c61 f i rendermodel.obj
 0001:0004fcac       ?setshader@animmodel@@UAEXPAUShader@@@Z 00450cac f i rendermodel.obj
 0001:0004fcef       ?setenvmap@animmodel@@UAEXMMPAUTexture@@@Z 00450cef f i rendermodel.obj
 0001:0004fd52       ?setspec@animmodel@@UAEXM@Z 00450d52 f i rendermodel.obj
 0001:0004fd93       ?setambient@animmodel@@UAEXM@Z 00450d93 f i rendermodel.obj
 0001:0004fdd4       ?setglow@animmodel@@UAEXM@Z 00450dd4 f i rendermodel.obj
 0001:0004fe15       ?setglare@animmodel@@UAEXMM@Z 00450e15 f i rendermodel.obj
 0001:0004fe5e       ?setalphatest@animmodel@@UAEXM@Z 00450e5e f i rendermodel.obj
 0001:0004fe9f       ?setalphablend@animmodel@@UAEX_N@Z 00450e9f f i rendermodel.obj
 0001:0004fee2       ?setfullbright@animmodel@@UAEXM@Z 00450ee2 f i rendermodel.obj
 0001:0004ff23       ?setcullface@animmodel@@UAEX_N@Z 00450f23 f i rendermodel.obj
 0001:0004ff66       ?calcbb@animmodel@@UAEXHAAUvec@@0@Z 00450f66 f i rendermodel.obj
 0001:0005002b       ?startrender@animmodel@@UAEXXZ 0045102b f i rendermodel.obj
 0001:00050140       ?disablebones@animmodel@@SAXXZ 00451140 f i rendermodel.obj
 0001:00050158       ?disablemtc@animmodel@@SAXXZ 00451158 f i rendermodel.obj
 0001:00050181       ?disabletc@animmodel@@SAXXZ 00451181 f i rendermodel.obj
 0001:000501a2       ?disablevbo@animmodel@@SAXXZ 004511a2 f i rendermodel.obj
 0001:00050225       ?disableglow@animmodel@@SAXXZ 00451225 f i rendermodel.obj
 0001:00050267       ?disableenvmap@animmodel@@SAX_N@Z 00451267 f i rendermodel.obj
 0001:000502d2       ?endrender@animmodel@@UAEXXZ 004512d2 f i rendermodel.obj
 0001:000503ac       ??_Emesh@animmodel@@UAEPAXI@Z 004513ac f i  CIL library: CIL module
 0001:000503ac       ??_Gmesh@animmodel@@UAEPAXI@Z 004513ac f i rendermodel.obj
 0001:000503c8       ??_Emeshgroup@animmodel@@UAEPAXI@Z 004513c8 f i  CIL library: CIL module
 0001:000503c8       ??_Gmeshgroup@animmodel@@UAEPAXI@Z 004513c8 f i rendermodel.obj
 0001:000503e4       ??_Epart@animmodel@@UAEPAXI@Z 004513e4 f i  CIL library: CIL module
 0001:000503e4       ??_Gpart@animmodel@@UAEPAXI@Z 004513e4 f i rendermodel.obj
 0001:00050400       ??_Ganimmodel@@UAEPAXI@Z   00451400 f i rendermodel.obj
 0001:00050400       ??_Eanimmodel@@UAEPAXI@Z   00451400 f i  CIL library: CIL module
 0001:0005041c       ??0vertmesh@vertmodel@@QAE@XZ 0045141c f i rendermodel.obj
 0001:00050461       ??1vertmesh@vertmodel@@UAE@XZ 00451461 f i rendermodel.obj
 0001:000504db       ?smoothnorms@vertmesh@vertmodel@@QAEXM_N@Z 004514db f i rendermodel.obj
 0001:00050832       ?buildnorms@vertmesh@vertmodel@@QAEX_N@Z 00451832 f i rendermodel.obj
 0001:000509b0       ?calctangents@vertmesh@vertmodel@@QAEXXZ 004519b0 f i rendermodel.obj
 0001:00050d74       ?calcbb@vertmesh@vertmodel@@UAEXHAAUvec@@0ABUmatrix3x4@@@Z 00451d74 f i rendermodel.obj
 0001:00050dfd       ?gentris@vertmesh@vertmodel@@UAEXHPAUTexture@@PAU?$vector@Utri@BIH@@@@ABUmatrix3x4@@@Z 00451dfd f i rendermodel.obj
 0001:00050f1a       ?genvbo@vertmesh@vertmodel@@QAEHAAU?$vector@G@@H@Z 00451f1a f i rendermodel.obj
 0001:00050f9d       ?filltc@vertmesh@vertmodel@@QAEXPAEI@Z 00451f9d f i rendermodel.obj
 0001:00050fd0       ?interpverts@vertmesh@vertmodel@@QAEXABUanimstate@animmodel@@_N1PIAXAAUskin@4@@Z 00451fd0 f i rendermodel.obj
 0001:000514e7       ?render@vertmesh@vertmodel@@QAEXPBUanimstate@animmodel@@AAUskin@4@AAUvbocacheentry@2@@Z 004524e7 f i rendermodel.obj
 0001:00051795       ??0tag@vertmodel@@QAE@XZ   00452795 f i rendermodel.obj
 0001:00051795       ??0videobuffer@recorder@@QAE@XZ 00452795 f i movie.obj
 0001:0005179b       ??0vertmeshgroup@vertmodel@@QAE@XZ 0045279b f i rendermodel.obj
 0001:00051803       ??1vertmeshgroup@vertmodel@@UAE@XZ 00452803 f i rendermodel.obj
 0001:000518b8       ?findtag@vertmeshgroup@vertmodel@@UAEHPBD@Z 004528b8 f i rendermodel.obj
 0001:000518f1       ?totalframes@vertmeshgroup@vertmodel@@UBEHXZ 004528f1 f i rendermodel.obj
 0001:000518f5       ?concattagtransform@vertmeshgroup@vertmodel@@UAEXPAUpart@animmodel@@HHABUmatrix3x4@@AAU5@@Z 004528f5 f i rendermodel.obj
 0001:0005195d       ?calctagmatrix@vertmeshgroup@vertmodel@@QAEXPAUpart@animmodel@@HABUanimstate@4@AAUglmatrixf@@@Z 0045295d f i rendermodel.obj
 0001:00051a4c       ?genvbo@vertmeshgroup@vertmodel@@QAEX_N0AAUvbocacheentry@2@@Z 00452a4c f i rendermodel.obj
 0001:00051ce0       ?bindvbo@vertmeshgroup@vertmodel@@QAEXPBUanimstate@animmodel@@AAUvbocacheentry@2@@Z 00452ce0 f i rendermodel.obj
 0001:00051e94       ?cleanup@vertmeshgroup@vertmodel@@UAEXXZ 00452e94 f i rendermodel.obj
 0001:00051eee       ?render@vertmeshgroup@vertmodel@@UAEXPBUanimstate@animmodel@@MABUvec@@PAUdynent@@PAUpart@4@@Z 00452eee f i rendermodel.obj
 0001:000521be       ??0vertmodel@@QAE@PBD@Z    004531be f i rendermodel.obj
 0001:000521f4       ??_Gvertmesh@vertmodel@@UAEPAXI@Z 004531f4 f i rendermodel.obj
 0001:000521f4       ??_Evertmesh@vertmodel@@UAEPAXI@Z 004531f4 f i  CIL library: CIL module
 0001:00052210       ??_Gvertmeshgroup@vertmodel@@UAEPAXI@Z 00453210 f i rendermodel.obj
 0001:00052210       ??_Evertmeshgroup@vertmodel@@UAEPAXI@Z 00453210 f i  CIL library: CIL module
 0001:00052248       ?size@blendcombo@skelmodel@@QBEHXZ 00453248 f i rendermodel.obj
 0001:00052265       ?sortcmp@blendcombo@skelmodel@@SAHPBU12@0@Z 00453265 f i rendermodel.obj
 0001:000522b2       ?addweight@blendcombo@skelmodel@@QAEHHMH@Z 004532b2 f i rendermodel.obj
 0001:00052346       ?finalize@blendcombo@skelmodel@@QAEXH@Z 00453346 f i rendermodel.obj
 0001:0005239a       ?serialize@blendcombo@skelmodel@@QAEXAAUvvertw@2@@Z 0045339a f i rendermodel.obj
 0001:0005246f       ??8animcacheentry@skelmodel@@QBE_NABU01@@Z 0045346f f i rendermodel.obj
 0001:000524eb       ??0vbocacheentry@skelmodel@@QAE@XZ 004534eb f i rendermodel.obj
 0001:00052515       ??0skelcacheentry@skelmodel@@QAE@XZ 00453515 f i rendermodel.obj
 0001:0005254c       ??0blendcacheentry@skelmodel@@QAE@XZ 0045354c f i rendermodel.obj
 0001:00052561       ??0skelmesh@skelmodel@@QAE@XZ 00453561 f i rendermodel.obj
 0001:000525ac       ??1skelmesh@skelmodel@@UAE@XZ 004535ac f i rendermodel.obj
 0001:00052615       ?smoothnorms@skelmesh@skelmodel@@QAEXM_N@Z 00453615 f i rendermodel.obj
 0001:00052958       ?buildnorms@skelmesh@skelmodel@@QAEX_N@Z 00453958 f i rendermodel.obj
 0001:00052ab4       ?calctangents@skelmesh@skelmodel@@QAEX_N@Z 00453ab4 f i rendermodel.obj
 0001:00052e15       ?calcbb@skelmesh@skelmodel@@UAEXHAAUvec@@0ABUmatrix3x4@@@Z 00453e15 f i rendermodel.obj
 0001:00052e9c       ?gentris@skelmesh@skelmodel@@UAEXHPAUTexture@@PAU?$vector@Utri@BIH@@@@ABUmatrix3x4@@@Z 00453e9c f i rendermodel.obj
 0001:00052f90       ?genvbo@skelmesh@skelmodel@@QAEHAAU?$vector@G@@H@Z 00453f90 f i rendermodel.obj
 0001:0005304d       ?filltc@skelmesh@skelmodel@@QAEXPAEI@Z 0045404d f i rendermodel.obj
 0001:00053089       ?fillbump@skelmesh@skelmodel@@QAEXPAEI@Z 00454089 f i rendermodel.obj
 0001:000530f5       ?setshader@skelmesh@skelmodel@@UAEXPAUShader@@@Z 004540f5 f i rendermodel.obj
 0001:00053176       ?render@skelmesh@skelmodel@@QAEXPBUanimstate@animmodel@@AAUskin@4@AAUvbocacheentry@2@@Z 00454176 f i rendermodel.obj
 0001:0005344a       ??0boneinfo@skelmodel@@QAE@XZ 0045444a f i rendermodel.obj
 0001:0005347d       ??0skeleton@skelmodel@@QAE@XZ 0045447d f i rendermodel.obj
 0001:000534fa       ??1skeleton@skelmodel@@QAE@XZ 004544fa f i rendermodel.obj
 0001:00053660       ?findskelanim@skeleton@skelmodel@@QAEPAUskelanimspec@2@PBDD@Z 00454660 f i rendermodel.obj
 0001:000536f5       ?addskelanim@skeleton@skelmodel@@QAEAAUskelanimspec@2@PBD@Z 004546f5 f i rendermodel.obj
 0001:0005376f       ?findbone@skeleton@skelmodel@@QAEHPBD@Z 0045476f f i rendermodel.obj
 0001:000537a9       ?findtag@skeleton@skelmodel@@QAEHPBD@Z 004547a9 f i rendermodel.obj
 0001:000537d9       ?addtag@skeleton@skelmodel@@QAE_NPBDH@Z 004547d9 f i rendermodel.obj
 0001:0005381a       ?calcantipodes@skeleton@skelmodel@@QAEXXZ 0045481a f i rendermodel.obj
 0001:00053a63       ?remapbones@skeleton@skelmodel@@QAEXXZ 00454a63 f i rendermodel.obj
 0001:00053db7       ?expandbonemask@skeleton@skelmodel@@QAEXPAEHH@Z 00454db7 f i rendermodel.obj
 0001:00053df8       ?applybonemask@skeleton@skelmodel@@QAEXPAGPAEH@Z 00454df8 f i rendermodel.obj
 0001:00053e8e       ?linkchildren@skeleton@skelmodel@@QAEXXZ 00454e8e f i rendermodel.obj
 0001:00053ed1       ?availgpubones@skeleton@skelmodel@@QBEHXZ 00454ed1 f i rendermodel.obj
 0001:00053f16       ?gpuaccelerate@skeleton@skelmodel@@QBE_NXZ 00454f16 f i rendermodel.obj
 0001:00053f3f       ?interpmatbones@skeleton@skelmodel@@QAEXPBUanimstate@animmodel@@MABUvec@@HPBEAAUskelcacheentry@2@@Z 00454f3f f i rendermodel.obj
 0001:000542d6       ?interpbones@skeleton@skelmodel@@QAEXPBUanimstate@animmodel@@MABUvec@@HPBEAAUskelcacheentry@2@@Z 004552d6 f i rendermodel.obj
 0001:0005460b       ?initmatragdoll@skeleton@skelmodel@@QAEXAAUragdolldata@@AAUskelcacheentry@2@PAUpart@animmodel@@@Z 0045560b f i rendermodel.obj
 0001:00054819       ?initragdoll@skeleton@skelmodel@@QAEXAAUragdolldata@@AAUskelcacheentry@2@PAUpart@animmodel@@@Z 00455819 f i rendermodel.obj
 0001:00054a7e       ?genmatragdollbones@skeleton@skelmodel@@QAEXAAUragdolldata@@AAUskelcacheentry@2@PAUpart@animmodel@@@Z 00455a7e f i rendermodel.obj
 0001:00054c66       ?genragdollbones@skeleton@skelmodel@@QAEXAAUragdolldata@@AAUskelcacheentry@2@PAUpart@animmodel@@@Z 00455c66 f i rendermodel.obj
 0001:00054eca       ?concattagtransform@skeleton@skelmodel@@QAEXPAUpart@animmodel@@HHABUmatrix3x4@@AAU5@@Z 00455eca f i rendermodel.obj
 0001:00054f4f       ?calctagmatrix@skeleton@skelmodel@@QAEXPAUpart@animmodel@@HABUmatrix3x4@@AAUlinkedpart@4@@Z 00455f4f f i rendermodel.obj
 0001:00054ff3       ?calctags@skeleton@skelmodel@@QAEXAAUskelcacheentry@2@PAUpart@animmodel@@@Z 00455ff3 f i rendermodel.obj
 0001:00055082       ?calctags@skeleton@skelmodel@@QAEXPAUpart@animmodel@@@Z 00456082 f i rendermodel.obj
 0001:000550f8       ?cleanup@skeleton@skelmodel@@QAEX_N@Z 004560f8 f i rendermodel.obj
 0001:000551a6       ?checkskelcache@skeleton@skelmodel@@QAEAAUskelcacheentry@2@PAUpart@animmodel@@PBUanimstate@5@MABUvec@@PAUragdolldata@@@Z 004561a6 f i rendermodel.obj
 0001:000553d4       ?setasmbones@skeleton@skelmodel@@QAEXAAUskelcacheentry@2@H@Z 004563d4 f i rendermodel.obj
 0001:00055580       ?bindubo@skeleton@skelmodel@@QAEXAAUUniformLoc@@AAUskelcacheentry@2@1H@Z 00456580 f i rendermodel.obj
 0001:00055701       ?setglslbones@skeleton@skelmodel@@QAEXAAUUniformLoc@@AAUskelcacheentry@2@1H@Z 00456701 f i rendermodel.obj
 0001:000557d7       ?setgpubones@skeleton@skelmodel@@QAEXAAUskelcacheentry@2@PAUblendcacheentry@2@H@Z 004567d7 f i rendermodel.obj
 0001:00055863       ??0skelmeshgroup@skelmodel@@QAE@XZ 00456863 f i rendermodel.obj
 0001:00055908       ??1skelmeshgroup@skelmodel@@UAE@XZ 00456908 f i rendermodel.obj
 0001:00055a60       ?shareskeleton@skelmeshgroup@skelmodel@@QAEXPAD@Z 00456a60 f i rendermodel.obj
 0001:00055b8f       ?findtag@skelmeshgroup@skelmodel@@UAEHPBD@Z 00456b8f f i rendermodel.obj
 0001:00055ba0       ?totalframes@skelmeshgroup@skelmodel@@UBEHXZ 00456ba0 f i rendermodel.obj
 0001:00055baf       ?genvbo@skelmeshgroup@skelmodel@@QAEX_N0AAUvbocacheentry@2@@Z 00456baf f i rendermodel.obj
 0001:000563f4       ?bindvbo@skelmeshgroup@skelmodel@@QAEXPBUanimstate@animmodel@@AAUvbocacheentry@2@PAUskelcacheentry@2@PAUblendcacheentry@2@@Z 004573f4 f i rendermodel.obj
 0001:00056625       ?concattagtransform@skelmeshgroup@skelmodel@@UAEXPAUpart@animmodel@@HHABUmatrix3x4@@AAU5@@Z 00457625 f i rendermodel.obj
 0001:00056640       ?addblendcombo@skelmeshgroup@skelmodel@@QAEHABUblendcombo@2@@Z 00457640 f i rendermodel.obj
 0001:00056764       ?sortblendcombos@skelmeshgroup@skelmodel@@QAEXXZ 00457764 f i rendermodel.obj
 0001:000567ff       ?blendmatbones@skelmeshgroup@skelmodel@@QAEXABUskelcacheentry@2@AAUblendcacheentry@2@@Z 004577ff f i rendermodel.obj
 0001:000568d7       ?blendbones@skelmeshgroup@skelmodel@@QAEXABUskelcacheentry@2@AAUblendcacheentry@2@@Z 004578d7 f i rendermodel.obj
 0001:000569d3       ?cleanup@skelmeshgroup@skelmodel@@UAEXXZ 004579d3 f i rendermodel.obj
 0001:00056ab0       ?checkvbocache@skelmeshgroup@skelmodel@@QAEAAUvbocacheentry@2@AAUskelcacheentry@2@H@Z 00457ab0 f i rendermodel.obj
 0001:00056b36       ?checkblendcache@skelmeshgroup@skelmodel@@QAEAAUblendcacheentry@2@AAUskelcacheentry@2@H@Z 00457b36 f i rendermodel.obj
 0001:00056ba0       ?render@skelmeshgroup@skelmodel@@UAEXPBUanimstate@animmodel@@MABUvec@@PAUdynent@@PAUpart@4@@Z 00457ba0 f i rendermodel.obj
 0001:00057072       ??0skelpart@skelmodel@@QAE@XZ 00458072 f i rendermodel.obj
 0001:000570ac       ??1skelpart@skelmodel@@UAE@XZ 004580ac f i rendermodel.obj
 0001:000570f1       ?sharepartmask@skelpart@skelmodel@@QAEPAEPAUanimpartmask@2@@Z 004580f1 f i rendermodel.obj
 0001:00057136       ?initanimparts@skelpart@skelmodel@@QAEXXZ 00458136 f i rendermodel.obj
 0001:0005717d       ?addanimpart@skelpart@skelmodel@@QAE_NPAG@Z 0045817d f i rendermodel.obj
 0001:000571ae       ?endanimparts@skelpart@skelmodel@@QAEXXZ 004581ae f i rendermodel.obj
 0001:000571f0       ??0skelmodel@@QAE@PBD@Z    004581f0 f i rendermodel.obj
 0001:00057226       ?linktype@skelmodel@@UBEHPAUanimmodel@@@Z 00458226 f i rendermodel.obj
 0001:00057268       ??_Gskelmesh@skelmodel@@UAEPAXI@Z 00458268 f i rendermodel.obj
 0001:00057268       ??_Eskelmesh@skelmodel@@UAEPAXI@Z 00458268 f i  CIL library: CIL module
 0001:00057284       ??_Gskelmeshgroup@skelmodel@@UAEPAXI@Z 00458284 f i rendermodel.obj
 0001:00057284       ??_Eskelmeshgroup@skelmodel@@UAEPAXI@Z 00458284 f i  CIL library: CIL module
 0001:000572a0       ??_Eskelpart@skelmodel@@UAEPAXI@Z 004582a0 f i  CIL library: CIL module
 0001:000572a0       ??_Gskelpart@skelmodel@@UAEPAXI@Z 004582a0 f i rendermodel.obj
 0001:000572bc       ??_Evertmodel@@UAEPAXI@Z   004582bc f i  CIL library: CIL module
 0001:000572bc       ??_Gskelmodel@@UAEPAXI@Z   004582bc f i rendermodel.obj
 0001:000572bc       ??_Gvertmodel@@UAEPAXI@Z   004582bc f i rendermodel.obj
 0001:000572bc       ??_Eskelmodel@@UAEPAXI@Z   004582bc f i  CIL library: CIL module
 0001:000572d9       ??1ragdollskel@@QAE@XZ     004582d9 f i rendermodel.obj
 0001:000573c0       ??1vertmodel@@UAE@XZ       004583c0 f i rendermodel.obj
 0001:000573c0       ??1skelmodel@@UAE@XZ       004583c0 f i rendermodel.obj
 0001:000573e4       ?linktype@md2@@UBEHPAUanimmodel@@@Z 004583e4 f i rendermodel.obj
 0001:000573ea       ?genverts@md2meshgroup@md2@@QAEXPAHAAU?$vector@Utcvert@vertmodel@@@@AAU?$vector@G@@AAU?$vector@Utri@vertmodel@@@@@Z 004583ea f i rendermodel.obj
 0001:0005759b       ?load@md2meshgroup@md2@@QAE_NPAD@Z 0045859b f i rendermodel.obj
 0001:000579ce       ?getdefaultanim@md2part@md2@@UAEXAAUaniminfo@@HIPAUdynent@@@Z 004589ce f i rendermodel.obj
 0001:00057a4a       ?loadmeshes@md2@@UAEPAUmeshgroup@animmodel@@PAD0@Z 00458a4a f i rendermodel.obj
 0001:00057ab9       ?load@md2@@UAE_NXZ         00458ab9 f i rendermodel.obj
 0001:00057ca6       ??1?$hashtable@Uivec@@H@@QAE@XZ 00458ca6 f i rendermodel.obj
 0001:00057cde       ??_Gmd2part@md2@@UAEPAXI@Z 00458cde f i rendermodel.obj
 0001:00057cde       ??_Emd2part@md2@@UAEPAXI@Z 00458cde f i  CIL library: CIL module
 0001:00057d16       ?md2pitch@@YAXPAM000@Z     00458d16 f   rendermodel.obj
 0001:00057d92       ?md2anim@@YAXPADPAH1PAM1@Z 00458d92 f   rendermodel.obj
 0001:00057e58       ?type@md3@@UBEHXZ          00458e58 f i rendermodel.obj
 0001:00057e58       ?totalframes@meshgroup@animmodel@@UBEHXZ 00458e58 f i rendermodel.obj
 0001:00057e5c       ?load@md3meshgroup@md3@@QAE_NPAD@Z 00458e5c f i rendermodel.obj
 0001:000583d2       ?loadmeshes@md3@@UAEPAUmeshgroup@animmodel@@PAD0@Z 004593d2 f i rendermodel.obj
 0001:00058443       ?loaddefaultparts@md3@@UAE_NXZ 00459443 f i rendermodel.obj
 0001:00058554       ?load@md3@@UAE_NXZ         00459554 f i rendermodel.obj
 0001:00058658       ?md3load@@YAXPAD@Z         00459658 f   rendermodel.obj
 0001:0005874b       ?md3pitch@@YAXPAM000@Z     0045974b f   rendermodel.obj
 0001:000587c7       ?md3skin@@YAXPAD00PAM1@Z   004597c7 f   rendermodel.obj
 0001:000588d9       ?md3spec@@YAXPADPAH@Z      004598d9 f   rendermodel.obj
 0001:00058982       ?md3ambient@@YAXPADPAH@Z   00459982 f   rendermodel.obj
 0001:00058a2f       ?md3glow@@YAXPADPAH@Z      00459a2f f   rendermodel.obj
 0001:00058adc       ?md3glare@@YAXPADPAM1@Z    00459adc f   rendermodel.obj
 0001:00058b6b       ?md3alphatest@@YAXPADPAM@Z 00459b6b f   rendermodel.obj
 0001:00058c1c       ?md3alphablend@@YAXPADPAH@Z 00459c1c f   rendermodel.obj
 0001:00058ca8       ?md3cullface@@YAXPADPAH@Z  00459ca8 f   rendermodel.obj
 0001:00058d34       ?md3envmap@@YAXPAD0@Z      00459d34 f   rendermodel.obj
 0001:00058dcc       ?md3bumpmap@@YAXPAD00@Z    00459dcc f   rendermodel.obj
 0001:00058eb6       ?md3fullbright@@YAXPADPAM@Z 00459eb6 f   rendermodel.obj
 0001:00058f3e       ?md3shader@@YAXPAD0@Z      00459f3e f   rendermodel.obj
 0001:00058fc9       ?md3scroll@@YAXPADPAM1@Z   00459fc9 f   rendermodel.obj
 0001:00059058       ?md3anim@@YAXPADPAH1PAM1@Z 0045a058 f   rendermodel.obj
 0001:0005911e       ?md3link@@YAXPAH0PADPAM22@Z 0045a11e f   rendermodel.obj
 0001:000591b6       ?md3noclip@@YAXPADPAH@Z    0045a1b6 f   rendermodel.obj
 0001:00059232       ?type@md5@@UBEHXZ          0045a232 f i rendermodel.obj
 0001:00059236       ?cleanup@md5mesh@md5@@QAEXXZ 0045a236 f i rendermodel.obj
 0001:0005925b       ?buildverts@md5mesh@md5@@QAEXAAU?$vector@Umd5joint@@@@@Z 0045a25b f i rendermodel.obj
 0001:000593b8       ?load@md5mesh@md5@@QAEXPAUstream@@PADI@Z 0045a3b8 f i rendermodel.obj
 0001:0005970c       ?loadmd5mesh@md5meshgroup@md5@@QAE_NPBDM@Z 0045a70c f i rendermodel.obj
 0001:00059c7c       ?loadmd5anim@md5meshgroup@md5@@QAEPAUskelanimspec@skelmodel@@PBD@Z 0045ac7c f i rendermodel.obj
 0001:0005a60b       ?loadmeshes@md5@@UAEPAUmeshgroup@animmodel@@PAD0@Z 0045b60b f i rendermodel.obj
 0001:0005a6a7       ?loaddefaultparts@md5@@UAE_NXZ 0045b6a7 f i rendermodel.obj
 0001:0005a7f1       ?load@md5@@UAE_NXZ         0045b7f1 f i rendermodel.obj
 0001:0005a8f4       ??_Emd5mesh@md5@@UAEPAXI@Z 0045b8f4 f i  CIL library: CIL module
 0001:0005a8f4       ??_Gmd5mesh@md5@@UAEPAXI@Z 0045b8f4 f i rendermodel.obj
 0001:0005a93d       ?setmd5dir@@YAXPAD@Z       0045b93d f   rendermodel.obj
 0001:0005a971       ?md5load@@YAXPAD0PAM@Z     0045b971 f   rendermodel.obj
 0001:0005aaca       ?md5tag@@YAXPAD0@Z         0045baca f   rendermodel.obj
 0001:0005ab38       ?md5pitch@@YAXPADPAM111@Z  0045bb38 f   rendermodel.obj
 0001:0005ac52       ?md5adjust@@YAXPADPAM11111@Z 0045bc52 f   rendermodel.obj
 0001:0005ad4a       ?md5skin@@YAXPAD00PAM1@Z   0045bd4a f   rendermodel.obj
 0001:0005ae61       ?md5spec@@YAXPADPAH@Z      0045be61 f   rendermodel.obj
 0001:0005af0f       ?md5ambient@@YAXPADPAH@Z   0045bf0f f   rendermodel.obj
 0001:0005afc1       ?md5glow@@YAXPADPAH@Z      0045bfc1 f   rendermodel.obj
 0001:0005b073       ?md5glare@@YAXPADPAM1@Z    0045c073 f   rendermodel.obj
 0001:0005b107       ?md5alphatest@@YAXPADPAM@Z 0045c107 f   rendermodel.obj
 0001:0005b1c1       ?md5alphablend@@YAXPADPAH@Z 0045c1c1 f   rendermodel.obj
 0001:0005b252       ?md5cullface@@YAXPADPAH@Z  0045c252 f   rendermodel.obj
 0001:0005b2e3       ?md5envmap@@YAXPAD0@Z      0045c2e3 f   rendermodel.obj
 0001:0005b380       ?md5bumpmap@@YAXPAD00@Z    0045c380 f   rendermodel.obj
 0001:0005b488       ?md5fullbright@@YAXPADPAM@Z 0045c488 f   rendermodel.obj
 0001:0005b515       ?md5shader@@YAXPAD0@Z      0045c515 f   rendermodel.obj
 0001:0005b5a5       ?md5scroll@@YAXPADPAM1@Z   0045c5a5 f   rendermodel.obj
 0001:0005b639       ?md5anim@@YAXPAD0PAMPAH@Z  0045c639 f   rendermodel.obj
 0001:0005b780       ?md5animpart@@YAXPAD@Z     0045c780 f   rendermodel.obj
 0001:0005b8e2       ?md5link@@YAXPAH0PADPAM22@Z 0045c8e2 f   rendermodel.obj
 0001:0005b97a       ?md5noclip@@YAXPADPAH@Z    0045c97a f   rendermodel.obj
 0001:0005b9fb       ?type@obj@@UBEHXZ          0045c9fb f i rendermodel.obj
 0001:0005b9ff       ?parsevert@objmeshgroup@obj@@QAEXPADAAU?$vector@Uvec@@@@@Z 0045c9ff f i rendermodel.obj
 0001:0005ba7d       ?load@objmeshgroup@obj@@QAE_NPADM@Z 0045ca7d f i rendermodel.obj
 0001:0005c22f       ?loadmeshes@obj@@UAEPAUmeshgroup@animmodel@@PAD0@Z 0045d22f f i rendermodel.obj
 0001:0005c2a6       ?loaddefaultparts@obj@@UAE_NXZ 0045d2a6 f i rendermodel.obj
 0001:0005c3f4       ?load@obj@@UAE_NXZ         0045d3f4 f i rendermodel.obj
 0001:0005c4f8       ??_Gmd2meshgroup@md2@@UAEPAXI@Z 0045d4f8 f i rendermodel.obj
 0001:0005c4f8       ??_Gobjmeshgroup@obj@@UAEPAXI@Z 0045d4f8 f i rendermodel.obj
 0001:0005c4f8       ??_Emd3meshgroup@md3@@UAEPAXI@Z 0045d4f8 f i  CIL library: CIL module
 0001:0005c4f8       ??_Gmd3meshgroup@md3@@UAEPAXI@Z 0045d4f8 f i rendermodel.obj
 0001:0005c4f8       ??_Eobjmeshgroup@obj@@UAEPAXI@Z 0045d4f8 f i  CIL library: CIL module
 0001:0005c4f8       ??_Emd2meshgroup@md2@@UAEPAXI@Z 0045d4f8 f i  CIL library: CIL module
 0001:0005c530       ?objload@@YAXPADPAM@Z      0045d530 f   rendermodel.obj
 0001:0005c672       ?objpitch@@YAXPAM000@Z     0045d672 f   rendermodel.obj
 0001:0005c6ee       ?objskin@@YAXPAD00PAM1@Z   0045d6ee f   rendermodel.obj
 0001:0005c805       ?objspec@@YAXPADPAH@Z      0045d805 f   rendermodel.obj
 0001:0005c8b3       ?objambient@@YAXPADPAH@Z   0045d8b3 f   rendermodel.obj
 0001:0005c965       ?objglow@@YAXPADPAH@Z      0045d965 f   rendermodel.obj
 0001:0005ca17       ?objglare@@YAXPADPAM1@Z    0045da17 f   rendermodel.obj
 0001:0005caab       ?objalphatest@@YAXPADPAM@Z 0045daab f   rendermodel.obj
 0001:0005cb65       ?objalphablend@@YAXPADPAH@Z 0045db65 f   rendermodel.obj
 0001:0005cbf6       ?objcullface@@YAXPADPAH@Z  0045dbf6 f   rendermodel.obj
 0001:0005cc87       ?objenvmap@@YAXPAD0@Z      0045dc87 f   rendermodel.obj
 0001:0005cd24       ?objbumpmap@@YAXPAD00@Z    0045dd24 f   rendermodel.obj
 0001:0005ce2c       ?objfullbright@@YAXPADPAM@Z 0045de2c f   rendermodel.obj
 0001:0005ceb9       ?objshader@@YAXPAD0@Z      0045deb9 f   rendermodel.obj
 0001:0005cf49       ?objscroll@@YAXPADPAM1@Z   0045df49 f   rendermodel.obj
 0001:0005cfdd       ?objnoclip@@YAXPADPAH@Z    0045dfdd f   rendermodel.obj
 0001:0005d05e       ?type@smd@@UBEHXZ          0045e05e f i rendermodel.obj
 0001:0005d062       ?skipcomment@smdmeshgroup@smd@@QAE_NAAPAD@Z 0045e062 f i rendermodel.obj
 0001:0005d0aa       ?skipsection@smdmeshgroup@smd@@QAEXPAUstream@@PADI@Z 0045e0aa f i rendermodel.obj
 0001:0005d0eb       ?readname@smdmeshgroup@smd@@QAEXAAPADPADI@Z 0045e0eb f i rendermodel.obj
 0001:0005d167       ?readnodes@smdmeshgroup@smd@@QAEXPAUstream@@PADIAAU?$vector@Usmdbone@@@@@Z 0045e167 f i rendermodel.obj
 0001:0005d303       ?readmaterial@smdmeshgroup@smd@@QAEXAAPADPADI@Z 0045e303 f i rendermodel.obj
 0001:0005d37f       ?finalize@smdmeshdata@smdmeshgroup@smd@@QAEXXZ 0045e37f f i rendermodel.obj
 0001:0005d490       ?readtriangles@smdmeshgroup@smd@@QAEXPAUstream@@PADI@Z 0045e490 f i rendermodel.obj
 0001:0005d972       ?readskeleton@smdmeshgroup@smd@@QAEXPAUstream@@PADI@Z 0045e972 f i rendermodel.obj
 0001:0005db77       ?loadmesh@smdmeshgroup@smd@@QAE_NPBD@Z 0045eb77 f i rendermodel.obj
 0001:0005de2f       ?readframes@smdmeshgroup@smd@@QAEHPAUstream@@PADIAAU?$vector@Udualquat@@@@@Z 0045ee2f f i rendermodel.obj
 0001:0005e3ad       ?loadanim@smdmeshgroup@smd@@QAEPAUskelanimspec@skelmodel@@PBD@Z 0045f3ad f i rendermodel.obj
 0001:0005e6e5       ?loadmeshes@smd@@UAEPAUmeshgroup@animmodel@@PAD0@Z 0045f6e5 f i rendermodel.obj
 0001:0005e770       ?loaddefaultparts@smd@@UAE_NXZ 0045f770 f i rendermodel.obj
 0001:0005e851       ?load@smd@@UAE_NXZ         0045f851 f i rendermodel.obj
 0001:0005e954       ??_Giqmmeshgroup@iqm@@UAEPAXI@Z 0045f954 f i rendermodel.obj
 0001:0005e954       ??_Gmd5meshgroup@md5@@UAEPAXI@Z 0045f954 f i rendermodel.obj
 0001:0005e954       ??_Eiqmmeshgroup@iqm@@UAEPAXI@Z 0045f954 f i  CIL library: CIL module
 0001:0005e954       ??_Esmdmeshgroup@smd@@UAEPAXI@Z 0045f954 f i  CIL library: CIL module
 0001:0005e954       ??_Gsmdmeshgroup@smd@@UAEPAXI@Z 0045f954 f i rendermodel.obj
 0001:0005e954       ??_Emd5meshgroup@md5@@UAEPAXI@Z 0045f954 f i  CIL library: CIL module
 0001:0005e98c       ??1?$hashtable@PBDUsmdmeshdata@smdmeshgroup@smd@@@@QAE@XZ 0045f98c f i rendermodel.obj
 0001:0005e9b2       ??_Esmdmesh@smd@@UAEPAXI@Z 0045f9b2 f i  CIL library: CIL module
 0001:0005e9b2       ??_Gsmdmesh@smd@@UAEPAXI@Z 0045f9b2 f i rendermodel.obj
 0001:0005e9ea       ?setsmddir@@YAXPAD@Z       0045f9ea f   rendermodel.obj
 0001:0005ea1e       ?smdload@@YAXPAD0@Z        0045fa1e f   rendermodel.obj
 0001:0005eb29       ?smdtag@@YAXPAD0@Z         0045fb29 f   rendermodel.obj
 0001:0005eb97       ?smdpitch@@YAXPADPAM111@Z  0045fb97 f   rendermodel.obj
 0001:0005ecb1       ?smdadjust@@YAXPADPAM11111@Z 0045fcb1 f   rendermodel.obj
 0001:0005eda9       ?smdskin@@YAXPAD00PAM1@Z   0045fda9 f   rendermodel.obj
 0001:0005eec0       ?smdspec@@YAXPADPAH@Z      0045fec0 f   rendermodel.obj
 0001:0005ef6e       ?smdambient@@YAXPADPAH@Z   0045ff6e f   rendermodel.obj
 0001:0005f020       ?smdglow@@YAXPADPAH@Z      00460020 f   rendermodel.obj
 0001:0005f0d2       ?smdglare@@YAXPADPAM1@Z    004600d2 f   rendermodel.obj
 0001:0005f166       ?smdalphatest@@YAXPADPAM@Z 00460166 f   rendermodel.obj
 0001:0005f220       ?smdalphablend@@YAXPADPAH@Z 00460220 f   rendermodel.obj
 0001:0005f2b1       ?smdcullface@@YAXPADPAH@Z  004602b1 f   rendermodel.obj
 0001:0005f342       ?smdenvmap@@YAXPAD0@Z      00460342 f   rendermodel.obj
 0001:0005f3df       ?smdbumpmap@@YAXPAD00@Z    004603df f   rendermodel.obj
 0001:0005f4e7       ?smdfullbright@@YAXPADPAM@Z 004604e7 f   rendermodel.obj
 0001:0005f574       ?smdshader@@YAXPAD0@Z      00460574 f   rendermodel.obj
 0001:0005f604       ?smdscroll@@YAXPADPAM1@Z   00460604 f   rendermodel.obj
 0001:0005f698       ?smdanim@@YAXPAD0PAMPAH@Z  00460698 f   rendermodel.obj
 0001:0005f7df       ?smdanimpart@@YAXPAD@Z     004607df f   rendermodel.obj
 0001:0005f941       ?smdlink@@YAXPAH0PADPAM22@Z 00460941 f   rendermodel.obj
 0001:0005f9d9       ?smdnoclip@@YAXPADPAH@Z    004609d9 f   rendermodel.obj
 0001:0005fa5a       ?type@iqm@@UBEHXZ          00460a5a f i rendermodel.obj
 0001:0005fa5e       ?loadiqmmeshes@iqmmeshgroup@iqm@@QAE_NPBDABUiqmheader@@PAE@Z 00460a5e f i rendermodel.obj
 0001:00060049       ?loadiqmanims@iqmmeshgroup@iqm@@QAE_NPBDABUiqmheader@@PAE@Z 00461049 f i rendermodel.obj
 0001:00060519       ?loadiqm@iqmmeshgroup@iqm@@QAE_NPBD_N1@Z 00461519 f i rendermodel.obj
 0001:0006060e       ?loadanim@iqmmeshgroup@iqm@@QAEPAUskelanimspec@skelmodel@@PBD@Z 0046160e f i rendermodel.obj
 0001:000606a3       ?loadmeshes@iqm@@UAEPAUmeshgroup@animmodel@@PAD0@Z 004616a3 f i rendermodel.obj
 0001:00060732       ?loaddefaultparts@iqm@@UAE_NXZ 00461732 f i rendermodel.obj
 0001:00060813       ?load@iqm@@UAE_NXZ         00461813 f i rendermodel.obj
 0001:00060916       ??_Gmd5@@UAEPAXI@Z         00461916 f i rendermodel.obj
 0001:00060916       ??_Gmd2@@UAEPAXI@Z         00461916 f i rendermodel.obj
 0001:00060916       ??_Gobj@@UAEPAXI@Z         00461916 f i rendermodel.obj
 0001:00060916       ??_Gmd3@@UAEPAXI@Z         00461916 f i rendermodel.obj
 0001:00060916       ??_Eiqm@@UAEPAXI@Z         00461916 f i  CIL library: CIL module
 0001:00060916       ??_Emd3@@UAEPAXI@Z         00461916 f i  CIL library: CIL module
 0001:00060916       ??_Emd2@@UAEPAXI@Z         00461916 f i  CIL library: CIL module
 0001:00060916       ??_Gsmd@@UAEPAXI@Z         00461916 f i rendermodel.obj
 0001:00060916       ??_Eobj@@UAEPAXI@Z         00461916 f i  CIL library: CIL module
 0001:00060916       ??_Emd5@@UAEPAXI@Z         00461916 f i  CIL library: CIL module
 0001:00060916       ??_Esmd@@UAEPAXI@Z         00461916 f i  CIL library: CIL module
 0001:00060916       ??_Giqm@@UAEPAXI@Z         00461916 f i rendermodel.obj
 0001:0006094f       ?setiqmdir@@YAXPAD@Z       0046194f f   rendermodel.obj
 0001:00060983       ?iqmload@@YAXPAD0@Z        00461983 f   rendermodel.obj
 0001:00060a8e       ?iqmtag@@YAXPAD0@Z         00461a8e f   rendermodel.obj
 0001:00060afc       ?iqmpitch@@YAXPADPAM111@Z  00461afc f   rendermodel.obj
 0001:00060c16       ?iqmadjust@@YAXPADPAM11111@Z 00461c16 f   rendermodel.obj
 0001:00060d0e       ?iqmskin@@YAXPAD00PAM1@Z   00461d0e f   rendermodel.obj
 0001:00060e25       ?iqmspec@@YAXPADPAH@Z      00461e25 f   rendermodel.obj
 0001:00060ed3       ?iqmambient@@YAXPADPAH@Z   00461ed3 f   rendermodel.obj
 0001:00060f85       ?iqmglow@@YAXPADPAH@Z      00461f85 f   rendermodel.obj
 0001:00061037       ?iqmglare@@YAXPADPAM1@Z    00462037 f   rendermodel.obj
 0001:000610cb       ?iqmalphatest@@YAXPADPAM@Z 004620cb f   rendermodel.obj
 0001:00061185       ?iqmalphablend@@YAXPADPAH@Z 00462185 f   rendermodel.obj
 0001:00061216       ?iqmcullface@@YAXPADPAH@Z  00462216 f   rendermodel.obj
 0001:000612a7       ?iqmenvmap@@YAXPAD0@Z      004622a7 f   rendermodel.obj
 0001:00061344       ?iqmbumpmap@@YAXPAD00@Z    00462344 f   rendermodel.obj
 0001:0006144c       ?iqmfullbright@@YAXPADPAM@Z 0046244c f   rendermodel.obj
 0001:000614d9       ?iqmshader@@YAXPAD0@Z      004624d9 f   rendermodel.obj
 0001:00061569       ?iqmscroll@@YAXPADPAM1@Z   00462569 f   rendermodel.obj
 0001:000615fd       ?iqmanim@@YAXPAD0PAMPAH@Z  004625fd f   rendermodel.obj
 0001:00061744       ?iqmanimpart@@YAXPAD@Z     00462744 f   rendermodel.obj
 0001:000618a6       ?iqmlink@@YAXPAH0PADPAM22@Z 004628a6 f   rendermodel.obj
 0001:0006193e       ?iqmnoclip@@YAXPADPAH@Z    0046293e f   rendermodel.obj
 0001:00061b99       ?mdlcullface@@YAXPAH@Z     00462b99 f   rendermodel.obj
 0001:00061bc6       ?mdlcollide@@YAXPAH@Z      00462bc6 f   rendermodel.obj
 0001:00061bec       ?mdlellipsecollide@@YAXPAH@Z 00462bec f   rendermodel.obj
 0001:00061c12       ?mdlspec@@YAXPAH@Z         00462c12 f   rendermodel.obj
 0001:00061c5c       ?mdlambient@@YAXPAH@Z      00462c5c f   rendermodel.obj
 0001:00061caa       ?mdlalphatest@@YAXPAM@Z    00462caa f   rendermodel.obj
 0001:00061cf3       ?mdlalphablend@@YAXPAH@Z   00462cf3 f   rendermodel.obj
 0001:00061d20       ?mdlalphadepth@@YAXPAH@Z   00462d20 f   rendermodel.obj
 0001:00061d46       ?mdldepthoffset@@YAXPAH@Z  00462d46 f   rendermodel.obj
 0001:00061d6c       ?mdlglow@@YAXPAH@Z         00462d6c f   rendermodel.obj
 0001:00061dba       ?mdlglare@@YAXPAM0@Z       00462dba f   rendermodel.obj
 0001:00061dee       ?mdlenvmap@@YAXPAM0PAD@Z   00462dee f   rendermodel.obj
 0001:00061e43       ?mdlfullbright@@YAXPAM@Z   00462e43 f   rendermodel.obj
 0001:00061e6c       ?mdlshader@@YAXPAD@Z       00462e6c f   rendermodel.obj
 0001:00061e9d       ?mdlspin@@YAXPAM0@Z        00462e9d f   rendermodel.obj
 0001:00061ec8       ?mdlscale@@YAXPAH@Z        00462ec8 f   rendermodel.obj
 0001:00061f10       ?mdltrans@@YAXPAM00@Z      00462f10 f   rendermodel.obj
 0001:00061f56       ?mdlyaw@@YAXPAM@Z          00462f56 f   rendermodel.obj
 0001:00061f78       ?mdlpitch@@YAXPAM@Z        00462f78 f   rendermodel.obj
 0001:00061f9a       ?mdlshadow@@YAXPAH@Z       00462f9a f   rendermodel.obj
 0001:00061fc0       ?mdlbb@@YAXPAM00@Z         00462fc0 f   rendermodel.obj
 0001:00061ff4       ?mdlextendbb@@YAXPAM00@Z   00462ff4 f   rendermodel.obj
 0001:0006203a       ?mdlname@@YAXXZ            0046303a f   rendermodel.obj
 0001:00062060       ?rdvert@@YAXPAM000@Z       00463060 f   rendermodel.obj
 0001:00062155       ?rdeye@@YAXPAH@Z           00463155 f   rendermodel.obj
 0001:000621eb       ?rdtri@@YAXPAH00@Z         004631eb f   rendermodel.obj
 0001:000622b1       ?rdjoint@@YAXPAH0PAD11@Z   004632b1 f   rendermodel.obj
 0001:000623ce       ?rdlimitdist@@YAXPAH0PAM1@Z 004633ce f   rendermodel.obj
 0001:000624b6       ?rdlimitrot@@YAXPAH0PAM1111@Z 004634b6 f   rendermodel.obj
 0001:000625c6       ?rdanimjoints@@YAXPAH@Z    004635c6 f   rendermodel.obj
 0001:0006265f       ?mmodel@@YAXPAD@Z          0046365f f   rendermodel.obj
 0001:000626b0       ?mapmodelcompat@@YAXPAH00PAD1@Z 004636b0 f   rendermodel.obj
 0001:000626bb       ?mapmodelreset@@YAXPAH@Z   004636bb f   rendermodel.obj
 0001:000626ef       ?getmminfo@@YAAAUmapmodelinfo@@H@Z 004636ef f   rendermodel.obj
 0001:000626ef       ?mapmodelname@@YAPBDH@Z    004636ef f   rendermodel.obj
 0001:0006270b       ?run@?$_icmd_mapmodelname@$0BFN@@@SAXPAH@Z 0046370b f   rendermodel.obj
 0001:00062738       ?run@?$_icmd_nummapmodels@$0BFO@@@SAXXZ 00463738 f   rendermodel.obj
 0001:00062745       ?preloadmodel@@YAXPBD@Z    00463745 f   rendermodel.obj
 0001:0006277c       ?flushpreloadedmodels@@YAXXZ 0046377c f   rendermodel.obj
 0001:000627eb       ?preloadusedmapmodels@@YAX_N0@Z 004637eb f   rendermodel.obj
 0001:0006290d       ?loadmodel@@YAPAUmodel@@PBDH_N@Z 0046390d f   rendermodel.obj
 0001:00062a3b       ?preloadmodelshaders@@YAXXZ 00463a3b f   rendermodel.obj
 0001:00062a77       ?clearmodel@@YAXPAD@Z      00463a77 f   rendermodel.obj
 0001:00062af4       ?modeloccluded@@YA_NABUvec@@M@Z 00463af4 f   rendermodel.obj
 0001:00062b9d       ?render3dbox@@YAXAAUvec@@MMMM@Z 00463b9d f   rendermodel.obj
 0001:00062bde       ?renderellipse@@YAXAAUvec@@MMM@Z 00463bde f   rendermodel.obj
 0001:00062c1e       ?addbatchedmodel@@YAAAUmodelbatch@@PAUmodel@@@Z 00463c1e f   rendermodel.obj
 0001:00062cb6       ?renderbatchedmodel@@YAXPAUmodel@@AAUbatchedmodel@@@Z 00463cb6 f   rendermodel.obj
 0001:00062d98       ?endmodelbatches@@YAXXZ    00463d98 f   rendermodel.obj
 0001:000631d9       ?endmodelquery@@YAXXZ      004641d9 f   rendermodel.obj
 0001:000632ff       ?rendermodelquery@@YAXPAUmodel@@PAUdynent@@ABUvec@@M@Z 004642ff f   rendermodel.obj
 0001:0006345a       ?rendermodel@@YAXPAUentitylight@@PBDHABUvec@@MMHPAUdynent@@PAUmodelattach@@HHM@Z 0046445a f   rendermodel.obj
 0001:00063da9       ?abovemodel@@YAXAAUvec@@PBD@Z 00464da9 f   rendermodel.obj
 0001:00063dca       ?matchanim@@YA_NPBD0@Z     00464dca f   rendermodel.obj
 0001:00063e41       ?findanims@@YAXPBDAAU?$vector@H@@@Z 00464e41 f   rendermodel.obj
 0001:00063e77       ?loadskin@@YAXPBD0AAPAUTexture@@1@Z 00464e77 f   rendermodel.obj
 0001:00064024       ?renderclient@@YAXPAUdynent@@PBDPAUmodelattach@@HHHHHM_N@Z 00465024 f   rendermodel.obj
 0001:00064301       ?setbbfrommodel@@YAXPAUdynent@@PBD@Z 00465301 f   rendermodel.obj
 0001:000643c5       ?removeobj@?$vector@PAUclientinfo@server@@@@QAEXABQAUclientinfo@server@@@Z 004653c5 f i server1.obj
 0001:000643c5       ?removeobj@?$vector@PAUvtxarray@@@@QAEXABQAUvtxarray@@@Z 004653c5 f i octarender.obj
 0001:000643c5       ?removeobj@?$vector@PAUmesh@animmodel@@@@QAEXABQAUmesh@animmodel@@@Z 004653c5 f i rendermodel.obj
 0001:00064408       ?add@?$vector@Ulinkedpart@animmodel@@@@QAEAAUlinkedpart@animmodel@@XZ 00465408 f i rendermodel.obj
 0001:0006446f       ??0?$hashtable@PADPAUmeshgroup@animmodel@@@@QAE@H@Z 0046546f f i rendermodel.obj
 0001:000644de       ??A?$hashtable@PADPAUmeshgroup@animmodel@@@@QAEAAPAUmeshgroup@animmodel@@ABQAD@Z 004654de f i rendermodel.obj
 0001:00064528       ??1?$hashset@U?$hashtableentry@PADPAUmeshgroup@animmodel@@@@@@QAE@XZ 00465528 f i rendermodel.obj
 0001:00064563       ?add@?$vector@Utri@BIH@@@@QAEAAUtri@BIH@@XZ 00465563 f i rendermodel.obj
 0001:000645a1       ??1?$vector@Uskelanimspec@skelmodel@@@@QAE@XZ 004655a1 f i rendermodel.obj
 0001:000645de       ??1?$vector@Utag@skelmodel@@@@QAE@XZ 004655de f i rendermodel.obj
 0001:00064619       ?add@?$vector@Utag@skelmodel@@@@QAEAAUtag@skelmodel@@XZ 00465619 f i rendermodel.obj
 0001:00064666       ??0?$hashtable@PADPAUskeleton@skelmodel@@@@QAE@H@Z 00465666 f i rendermodel.obj
 0001:000646d5       ??A?$hashtable@PADPAUskeleton@skelmodel@@@@QAEAAPAUskeleton@skelmodel@@ABQAD@Z 004656d5 f i rendermodel.obj
 0001:0006471f       ??1?$hashset@U?$hashtableentry@PADPAUskeleton@skelmodel@@@@@@QAE@XZ 0046571f f i rendermodel.obj
 0001:0006475a       ??0?$hashtable@Uivec@@H@@QAE@H@Z 0046575a f i rendermodel.obj
 0001:000647bb       ?access@?$hashtable@Uivec@@H@@QAEPAHABUivec@@@Z 004657bb f i rendermodel.obj
 0001:000647ee       ??A?$hashtable@Uivec@@H@@QAEAAHABUivec@@@Z 004657ee f i rendermodel.obj
 0001:0006483f       ??1?$hashset@U?$hashtableentry@Uivec@@H@@@@QAE@XZ 0046583f f i rendermodel.obj
 0001:0006485b       ?add@?$vector@Utcvert@vertmodel@@@@QAEAAUtcvert@vertmodel@@XZ 0046585b f i rendermodel.obj
 0001:0006487c       ?add@?$vector@Utri@vertmodel@@@@QAEAAUtri@vertmodel@@XZ 0046587c f i rendermodel.obj
 0001:0006489f       ?add@?$vector@Umd5adjustment@@@@QAEAAUmd5adjustment@@ABU2@@Z 0046589f f i rendermodel.obj
 0001:000648e9       ?add@?$vector@Umd5joint@@@@QAEAAUmd5joint@@ABU2@@Z 004658e9 f i rendermodel.obj
 0001:00064923       ?deletearrays@?$vector@PAD@@QAEXXZ 00465923 f i rendermodel.obj
 0001:0006493d       ?add@?$vector@Usmdadjustment@@@@QAEAAUsmdadjustment@@ABU2@@Z 0046593d f i rendermodel.obj
 0001:00064987       ??A?$hashtable@PBDUsmdmeshdata@smdmeshgroup@smd@@@@QAEAAUsmdmeshdata@smdmeshgroup@smd@@ABQBD@Z 00465987 f i rendermodel.obj
 0001:000649d9       ??1?$hashset@U?$hashtableentry@PBDUsmdmeshdata@smdmeshgroup@smd@@@@@@QAE@XZ 004659d9 f i rendermodel.obj
 0001:00064a3f       ??1?$hashset@H@@QAE@XZ     00465a3f f i rendermodel.obj
 0001:00064a75       ?add@?$vector@Uiqmadjustment@@@@QAEAAUiqmadjustment@@ABU2@@Z 00465a75 f i rendermodel.obj
 0001:00064abf       ??0?$hashtable@PBDPAUmodel@@@@QAE@H@Z 00465abf f i rendermodel.obj
 0001:00064b2e       ?access@?$hashtable@PBDPAUmodel@@@@QAEPAPAUmodel@@ABQBD@Z 00465b2e f i rendermodel.obj
 0001:00064b6a       ?access@?$hashtable@PBDPAUmodel@@@@QAEAAPAUmodel@@ABQBDABQAU2@@Z 00465b6a f i rendermodel.obj
 0001:00064bbd       ??1?$hashset@U?$hashtableentry@PBDPAUmodel@@@@@@QAE@XZ 00465bbd f i rendermodel.obj
 0001:00064bf8       ?add@?$vector@PAUmodelbatch@@@@QAEAAPAUmodelbatch@@ABQAU2@@Z 00465bf8 f i rendermodel.obj
 0001:00064c3e       ?growbuf@?$vector@Udistlimit@ragdollskel@@@@QAEXH@Z 00465c3e f i rendermodel.obj
 0001:00064c3e       ?growbuf@?$vector@Uanimspec@animmodel@@@@QAEXH@Z 00465c3e f i rendermodel.obj
 0001:00064c94       ?growbuf@?$vector@Ugui@@@@QAEXH@Z 00465c94 f i 3dgui.obj
 0001:00064c94       ?growbuf@?$vector@Urotlimit@ragdollskel@@@@QAEXH@Z 00465c94 f i rendermodel.obj
 0001:00064cea       ?growbuf@?$vector@Ujoint@ragdollskel@@@@QAEXH@Z 00465cea f i rendermodel.obj
 0001:00064d40       ?growbuf@?$vector@Ulinkedpart@animmodel@@@@QAEXH@Z 00465d40 f i rendermodel.obj
 0001:00064d96       ?growbuf@?$vector@Utri@BIH@@@@QAEXH@Z 00465d96 f i rendermodel.obj
 0001:00064dec       ?deletechunks@?$hashset@U?$hashtableentry@Uivec@@H@@@@QAEXXZ 00465dec f i rendermodel.obj
 0001:00064e0c       ?growbuf@?$vector@Utri@vertmodel@@@@QAEXH@Z 00465e0c f i rendermodel.obj
 0001:00064e62       ?growbuf@?$vector@Umd5adjustment@@@@QAEXH@Z 00465e62 f i rendermodel.obj
 0001:00064ec4       ?growbuf@?$vector@Umd5hierarchy@@@@QAEXH@Z 00465ec4 f i rendermodel.obj
 0001:00064f20       ?growbuf@?$vector@Usmdadjustment@@@@QAEXH@Z 00465f20 f i rendermodel.obj
 0001:00064f82       ?growbuf@?$vector@Uiqmadjustment@@@@QAEXH@Z 00465f82 f i rendermodel.obj
 0001:00064fe4       ?growbuf@?$vector@Umapmodelinfo@@@@QAEXH@Z 00465fe4 f i rendermodel.obj
 0001:0006504c       ?growbuf@?$vector@Ubatchedmodel@@@@QAEXH@Z 0046604c f i rendermodel.obj
 0001:000650a2       ?growbuf@?$vector@PAUmodelbatch@@@@QAEXH@Z 004660a2 f i rendermodel.obj
 0001:00065106       ?growbuf@?$vector@Umodelattach@@@@QAEXH@Z 00466106 f i rendermodel.obj
 0001:00065168       ??1chain@?$hashset@U?$hashtableentry@PBDUsmdmeshdata@smdmeshgroup@smd@@@@@@QAE@XZ 00466168 f i rendermodel.obj
 0001:0006518c       ??1?$hashtableentry@PBDUsmdmeshdata@smdmeshgroup@smd@@@@QAE@XZ 0046618c f i rendermodel.obj
 0001:000651b4       ??1smdmeshdata@smdmeshgroup@smd@@QAE@XZ 004661b4 f i rendermodel.obj
 0001:0006520c       ?insert@?$hashset@U?$hashtableentry@PADPAUmeshgroup@animmodel@@@@@@QAEPAUchain@1@I@Z 0046620c f i rendermodel.obj
 0001:000652a4       ?insert@?$hashset@U?$hashtableentry@PADPAUskeleton@skelmodel@@@@@@QAEPAUchain@1@I@Z 004662a4 f i rendermodel.obj
 0001:0006533c       ?insert@?$hashset@U?$hashtableentry@Uvec@@H@@@@QAEPAUchain@1@I@Z 0046633c f i worldio.obj
 0001:0006533c       ?insert@?$hashset@U?$hashtableentry@Uivec@@H@@@@QAEPAUchain@1@I@Z 0046633c f i rendermodel.obj
 0001:000653bd       ?insert@?$hashset@U?$hashtableentry@PBDUsmdmeshdata@smdmeshgroup@smd@@@@@@QAEPAUchain@1@I@Z 004663bd f i rendermodel.obj
 0001:00065462       ?insert@?$hashset@U?$hashtableentry@PBDPAUmodel@@@@@@QAEPAUchain@1@I@Z 00466462 f i rendermodel.obj
 0001:000654fa       ??0chain@?$hashset@U?$hashtableentry@PBDUsmdmeshdata@smdmeshgroup@smd@@@@@@QAE@XZ 004664fa f i rendermodel.obj
 0001:0006553a       ??$genvbo@Uvvertbumpw@skelmodel@@@skelmesh@skelmodel@@QAEHAAU?$vector@G@@HAAU?$vector@Uvvertbumpw@skelmodel@@@@@Z 0046653a f i rendermodel.obj
 0001:000656dc       ??$genvbo@Uvvertw@skelmodel@@@skelmesh@skelmodel@@QAEHAAU?$vector@G@@HAAU?$vector@Uvvertw@skelmodel@@@@@Z 004666dc f i rendermodel.obj
 0001:00065842       ??$genvbo@Uvvertbump@skelmodel@@@skelmesh@skelmodel@@QAEHAAU?$vector@G@@HAAU?$vector@Uvvertbump@skelmodel@@@@PAHH@Z 00466842 f i rendermodel.obj
 0001:00065afa       ??$genvbo@Uvvertn@skelmodel@@@skelmesh@skelmodel@@QAEHAAU?$vector@G@@HAAU?$vector@Uvvertn@skelmodel@@@@PAHH@Z 00466afa f i rendermodel.obj
 0001:00065d39       ??$genvbo@Uvvert@skelmodel@@@skelmesh@skelmodel@@QAEHAAU?$vector@G@@HAAU?$vector@Uvvert@skelmodel@@@@PAHH@Z 00466d39 f i rendermodel.obj
 0001:00065f57       ??$blendbones@Umatrix3x4@@@skelmeshgroup@skelmodel@@SAXAAUmatrix3x4@@PBU2@ABUblendcombo@1@@Z 00466f57 f i rendermodel.obj
 0001:00066011       ??$blendbones@Udualquat@@@skelmeshgroup@skelmodel@@SAXAAUdualquat@@PBU2@ABUblendcombo@1@@Z 00467011 f i rendermodel.obj
 0001:000660a4       ??$interpverts@Umatrix3x4@@@skelmesh@skelmodel@@QAEXPIBUmatrix3x4@@0_N1PIAXAAUskin@animmodel@@@Z 004670a4 f i rendermodel.obj
 0001:00066274       ??$interpverts@Udualquat@@@skelmesh@skelmodel@@QAEXPIBUdualquat@@0_N1PIAXAAUskin@animmodel@@@Z 00467274 f i rendermodel.obj
 0001:000664a3       ??$access@Usmdvertkey@smdmeshgroup@smd@@@?$hashset@H@@QAEAAHABUsmdvertkey@smdmeshgroup@smd@@ABH@Z 004674a3 f i rendermodel.obj
 0001:00066593       ??$remove@PAD@?$hashset@U?$hashtableentry@PBDPAUmodel@@@@@@QAE_NABQAD@Z 00467593 f i rendermodel.obj
 0001:00066607       ?accumulate@matrix3x4@@QAEXABU1@M@Z 00467607 f i rendermodel.obj
 0001:0006669c       ?feetpos@physent@@QBE?AUvec@@M@Z 0046769c f i rendermodel.obj
 0001:000666d5       ??_Gmodel@@UAEPAXI@Z       004676d5 f i rendermodel.obj
 0001:000666d5       ??_Emodel@@UAEPAXI@Z       004676d5 f i  CIL library: CIL module
 0001:000666f1       ??0matrix3x3@@QAE@ABUquat@@@Z 004676f1 f i rendermodel.obj
 0001:000667e6       ?translate@dualquat@@QAEXABUvec@@@Z 004677e6 f i rendermodel.obj
 0001:00066860       ?mulorient@dualquat@@QAEXABUquat@@@Z 00467860 f i rendermodel.obj
 0001:000668bd       ??0dualquat@@QAE@ABUquat@@ABUvec@@@Z 004678bd f i rendermodel.obj
 0001:0006693f       ?restorew@quat@@QAEXXZ     0046793f f i rendermodel.obj
 0001:00066983       ??$convertmatrix@Umatrix3x4@@@quat@@QAEXABUmatrix3x4@@@Z 00467983 f i rendermodel.obj
 0001:00066ade       ??0dualquat@@QAE@ABUmatrix3x4@@@Z 00467ade f i rendermodel.obj
 0001:00066b65       ?transposemul@matrix3x4@@QAEXABUmatrix3x3@@ABUvec@@ABU1@@Z 00467b65 f i rendermodel.obj
 0001:00066ce5       ?invert@dualquat@@QAEAAU1@XZ 00467ce5 f i rendermodel.obj
 0001:00066d79       ?mul@dualquat@@QAEXABU1@@Z 00467d79 f i rendermodel.obj
 0001:00066da0       ?transform@dualquat@@QBE?AUvec@@ABU2@@Z 00467da0 f i rendermodel.obj
 0001:00066eb0       ?transposemul@matrix3x4@@QAEXABU1@0@Z 00467eb0 f i rendermodel.obj
 0001:00067060       ?fixantipodal@dualquat@@QAEXABU1@@Z 00468060 f i rendermodel.obj
 0001:0006709f       ?mulorient@dualquat@@QAEXABUquat@@ABU1@@Z 0046809f f i rendermodel.obj
 0001:000671e3       ?mul@quat@@QAEAAU1@ABU1@0@Z 004681e3 f i rendermodel.obj
 0001:0006725f       ?mul@dualquat@@QAEXABU1@0@Z 0046825f f i rendermodel.obj
 0001:00067297       ?normalize@dualquat@@QAEXXZ 00468297 f i rendermodel.obj
 0001:000672f2       ?gettranslation@dualquat@@QBE?AUvec@@XZ 004682f2 f i rendermodel.obj
 0001:0006738c       ?mulorient@matrix3x4@@QAEXABUmatrix3x3@@@Z 0046838c f i rendermodel.obj
 0001:00067522       ?rotate@matrix3x3@@QAEXMMABUvec@@@Z 00468522 f i rendermodel.obj
 0001:000675dc       ??0matrix3x4@@QAE@ABUdualquat@@@Z 004685dc f i rendermodel.obj
 0001:00067782       ?accumulate@dualquat@@QAEXABU1@M@Z 00468782 f i rendermodel.obj
 0001:0006780c       ?mul@quat@@QAEAAU1@M@Z     0046880c f i rendermodel.obj
 0001:00067824       ?mul@dualquat@@QAEAAU1@M@Z 00468824 f i rendermodel.obj
 0001:00067848       ??0glmatrixf@@QAE@ABUmatrix3x4@@@Z 00468848 f i rendermodel.obj
 0001:0006789f       ?lerp@vec4@@QAEAAU1@ABU1@0M@Z 0046889f f i rendermodel.obj
 0001:000678dc       ?lerp@matrix3x4@@QAEXABU1@0M@Z 004688dc f i rendermodel.obj
 0001:0006791e       ?transformnormal@matrix3x4@@QBE?AUvec@@ABU2@@Z 0046891e f i rendermodel.obj
 0001:00067965       ?mul@matrix3x4@@QAEXABU1@0@Z 00468965 f i rendermodel.obj
 0001:00067add       ?lerp@vec@@QAEAAU1@ABU1@M@Z 00468add f i rendermodel.obj
 0001:00067b0c       ?transform@matrix3x4@@QBE?AUvec@@ABU2@@Z 00468b0c f i rendermodel.obj
 0001:00067b5c       ?rotate_around_y@matrix3x4@@QAEXM@Z 00468b5c f i rendermodel.obj
 0001:00067bdc       ?rotate_around_z@matrix3x4@@QAEXM@Z 00468bdc f i rendermodel.obj
 0001:00067c5c       ??1model@@UAE@XZ           00468c5c f i rendermodel.obj
 0001:00067c9f       ?spawned@servmode@server@@UAEXPAUclientinfo@2@@Z 00468c9f f i server1.obj
 0001:00067c9f       ?senditems@clientmode@game@@UAEXAAUpacketbuf@@@Z 00468c9f f i client1.obj
 0001:00067c9f       ?setshader@model@@UAEXPAUShader@@@Z 00468c9f f i rendermodel.obj
 0001:00067c9f       ?setalphablend@model@@UAEX_N@Z 00468c9f f i rendermodel.obj
 0001:00067c9f       ?setcullface@model@@UAEX_N@Z 00468c9f f i rendermodel.obj
 0001:00067c9f       ?init@partrenderer@@UAEXH@Z 00468c9f f i renderparticles.obj
 0001:00067c9f       ?setglow@model@@UAEXM@Z    00468c9f f i rendermodel.obj
 0001:00067c9f       ?respawned@captureclientmode@game@@UAEXPAUfpsent@@@Z 00468c9f f i client1.obj
 0001:00067c9f       ?getteamscores@clientmode@game@@UAEXAAU?$vector@Uteamscore@@@@@Z 00468c9f f i client1.obj
 0001:00067c9f       ?cleanup@listrenderer@@UAEXPAUlistparticle@@@Z 00468c9f f i renderparticles.obj
 0001:00067c9f       ?process@gameevent@server@@UAEXPAUclientinfo@2@@Z 00468c9f f i server1.obj
 0001:00067c9f       ?setspec@model@@UAEXM@Z    00468c9f f i rendermodel.obj
 0001:00067c9f       ?entergame@servmode@server@@UAEXPAUclientinfo@2@@Z 00468c9f f i server1.obj
 0001:00067c9f       ?setalphatest@model@@UAEXM@Z 00468c9f f i rendermodel.obj
 0001:00067c9f       ?getteamscores@servmode@server@@UAEXAAU?$vector@Uteamscore@@@@@Z 00468c9f f i server1.obj
 0001:00067c9f       ?resettracked@partrenderer@@UAEXPAUphysent@@@Z 00468c9f f i renderparticles.obj
 0001:00067c9f       ?pushlist@g3d_gui@@UAEXH@Z 00468c9f f i 3dgui.obj
 0001:00067c9f       ?setambient@model@@UAEXM@Z 00468c9f f i rendermodel.obj
 0001:00067c9f       ?setfullbright@model@@UAEXM@Z 00468c9f f i rendermodel.obj
 0001:00067c9f       ?removeplayer@clientmode@game@@UAEXPAUfpsent@@@Z 00468c9f f i client1.obj
 0001:00067c9f       ?reset@servmode@server@@UAEX_N@Z 00468c9f f i server1.obj
 0001:00067c9f       ?checkitems@clientmode@game@@UAEXPAUfpsent@@@Z 00468c9f f i client1.obj
 0001:00067c9f       ?respawned@clientmode@game@@UAEXPAUfpsent@@@Z 00468c9f f i client1.obj
 0001:00067ca2       ?preloadBIH@model@@UAEXXZ  00468ca2 f i rendermodel.obj
 0001:00067cae       ?screenview@rendertarget@@UBE_NXZ 00468cae f i glare.obj
 0001:00067cae       ?envmapped@model@@UAE_NXZ  00468cae f i rendermodel.obj
 0001:00067cae       ?shadowcompare@rendertarget@@UBE_NXZ 00468cae f i glare.obj
 0001:00067cae       ?swaptexs@rendertarget@@UBE_NXZ 00468cae f i glare.obj
 0001:00067cae       ?usesvertexarray@partrenderer@@UAE_NXZ 00468cae f i renderparticles.obj
 0001:00067cae       ?shouldtab@g3d_gui@@UAE_NXZ 00468cae f i 3dgui.obj
 0001:00067cae       ?texrect@rendertarget@@UBE_NXZ 00468cae f i glare.obj
 0001:00067cae       ?hidefrags@servmode@server@@UAE_NXZ 00468cae f i server1.obj
 0001:00067cae       ?keepable@gameevent@server@@UBE_NXZ 00468cae f i server1.obj
 0001:00067cae       ?flipdebug@shadowmaptexture@@UBE_NXZ 00468cae f i shadowmap.obj
 0001:00067cae       ?hidefrags@clientmode@game@@UAE_NXZ 00468cae f i client1.obj
 0001:00067cb1       ?rotate_around_z@glmatrixf@@QAEXM@Z 00468cb1 f i rendermodel.obj
 0001:00067d57       ?invertnormal@glmatrixf@@QBEXAAUvec@@@Z 00468d57 f i rendermodel.obj
 0001:00067db4       ?rotate@glmatrixf@@QAEXMMABUvec@@@Z 00468db4 f i rendermodel.obj
 0001:00067f46       ??9animinfo@@QBE_NABU0@@Z  00468f46 f i rendermodel.obj
 0001:00067f8a       ?transformedtranslate@matrix3x4@@QAEXABUvec@@M@Z 00468f8a f i rendermodel.obj
 0001:00067fe9       ?scale@matrix3x4@@QAEXM@Z  00468fe9 f i rendermodel.obj
 0001:0006801b       ?setvariant_@Shader@@QAEXHHPAU1@@Z 0046901b f i rendermodel.obj
 0001:0006806e       ?setvariant@Shader@@QAEXHH@Z 0046906e f i rendermodel.obj
 0001:00068096       ?max@vec@@QAEAAU1@M@Z      00469096 f i rendermodel.obj
 0001:000680e0       ?reflect@vec@@QAEAAU1@ABU1@@Z 004690e0 f i rendermodel.obj
 0001:00068129       ?multranspose@matrix3x3@@QAEXABU1@0@Z 00469129 f i rendermodel.obj
 0001:0006822a       ?calcangleaxis@matrix3x3@@QAE_NAAMAAUvec@@M@Z 0046922a f i rendermodel.obj
 0001:000683f1       ?mul@matrix3x3@@QAEXABU1@0@Z 004693f1 f i rendermodel.obj
 0001:00068577       ?transposemul@matrix3x3@@QAEXABU1@0@Z 00469577 f i rendermodel.obj
 0001:000686fd       ?add@vec4@@QAEAAU1@ABU1@@Z 004696fd f i rendermodel.obj
 0001:0006871f       ?mul@vec4@@QAEAAU1@M@Z     0046971f f i rendermodel.obj
 0001:00068744       ?mul@matrix3x4@@QAEXABUmatrix3x3@@ABUvec@@ABU1@@Z 00469744 f i rendermodel.obj
 0001:000688c4       ?transform@matrix3x3@@QBE?AUvec@@ABU2@@Z 004698c4 f i rendermodel.obj
 0001:0006890b       ?addblurtiles@rendertarget@@QAE_NMMMMM@Z 0046990b f i renderparticles.obj
 0001:00068b01       ?finalize@particleemitter@@QAEXXZ 00469b01 f i renderparticles.obj
 0001:00068c2f       ?extendbb@particleemitter@@QAEXABUvec@@M@Z 00469c2f f i renderparticles.obj
 0001:00068cc9       ?extendbb@particleemitter@@QAEXMM@Z 00469cc9 f i renderparticles.obj
 0001:00068d05       ?clearparticleemitters@@YAXXZ 00469d05 f   renderparticles.obj
 0001:00068d1d       ?addparticleemitters@@YAXXZ 00469d1d f   renderparticles.obj
 0001:00068e2a       ??1partrenderer@@UAE@XZ    00469e2a f i renderparticles.obj
 0001:00068e31       ?seedemitter@partrenderer@@UAEXAAUparticleemitter@@ABUvec@@1HMH@Z 00469e31 f i renderparticles.obj
 0001:00068e34       ?calc@partrenderer@@QAEXPAUparticle@@AAH1AAUvec@@2_N@Z 00469e34 f i renderparticles.obj
 0001:00069034       ??_Epartrenderer@@UAEPAXI@Z 0046a034 f i  CIL library: CIL module
 0001:00069034       ??_Gpartrenderer@@UAEPAXI@Z 0046a034 f i renderparticles.obj
 0001:00069051       ??0listrenderer@@QAE@PBDHHH@Z 0046a051 f i renderparticles.obj
 0001:00069099       ??0listrenderer@@QAE@HH@Z  0046a099 f i renderparticles.obj
 0001:000690db       ??1listrenderer@@UAE@XZ    0046a0db f i renderparticles.obj
 0001:00069105       ?reset@listrenderer@@UAEXXZ 0046a105 f i renderparticles.obj
 0001:0006913a       ?resettracked@listrenderer@@UAEXPAUphysent@@@Z 0046a13a f i renderparticles.obj
 0001:0006917c       ?addpart@listrenderer@@UAEPAUparticle@@ABUvec@@0HHMH@Z 0046a17c f i renderparticles.obj
 0001:00069246       ?count@listrenderer@@UAEHXZ 0046a246 f i renderparticles.obj
 0001:00069256       ?haswork@listrenderer@@UAE_NXZ 0046a256 f i renderparticles.obj
 0001:0006925f       ?render@listrenderer@@UAEXXZ 0046a25f f i renderparticles.obj
 0001:00069323       ??_Elistrenderer@@UAEPAXI@Z 0046a323 f i  CIL library: CIL module
 0001:00069323       ??_Glistrenderer@@UAEPAXI@Z 0046a323 f i renderparticles.obj
 0001:0006933f       ??0meterrenderer@@QAE@H@Z  0046a33f f i renderparticles.obj
 0001:00069372       ?startrender@meterrenderer@@UAEXXZ 0046a372 f i renderparticles.obj
 0001:00069392       ?endrender@meterrenderer@@UAEXXZ 0046a392 f i renderparticles.obj
 0001:000693b2       ?renderpart@meterrenderer@@UAEXPAUlistparticle@@ABUvec@@1HHPAE@Z 0046a3b2 f i renderparticles.obj
 0001:0006950c       ?cleanup@textrenderer@@UAEXPAUlistparticle@@@Z 0046a50c f i renderparticles.obj
 0001:00069527       ?renderpart@textrenderer@@UAEXPAUlistparticle@@ABUvec@@1HHPAE@Z 0046a527 f i renderparticles.obj
 0001:00069666       ??_Emeterrenderer@@UAEPAXI@Z 0046a666 f i  CIL library: CIL module
 0001:00069666       ??_Efireballrenderer@@UAEPAXI@Z 0046a666 f i  CIL library: CIL module
 0001:00069666       ??_Glightningrenderer@@UAEPAXI@Z 0046a666 f i renderparticles.obj
 0001:00069666       ??_Etextrenderer@@UAEPAXI@Z 0046a666 f i  CIL library: CIL module
 0001:00069666       ??_Gmeterrenderer@@UAEPAXI@Z 0046a666 f i renderparticles.obj
 0001:00069666       ??_Gfireballrenderer@@UAEPAXI@Z 0046a666 f i renderparticles.obj
 0001:00069666       ??_Gtextrenderer@@UAEPAXI@Z 0046a666 f i renderparticles.obj
 0001:00069666       ??_Elightningrenderer@@UAEPAXI@Z 0046a666 f i  CIL library: CIL module
 0001:00069683       ??1textrenderer@@UAE@XZ    0046a683 f i renderparticles.obj
 0001:00069683       ??1meterrenderer@@UAE@XZ   0046a683 f i renderparticles.obj
 0001:00069683       ??1fireballrenderer@@UAE@XZ 0046a683 f i renderparticles.obj
 0001:00069683       ??1lightningrenderer@@UAE@XZ 0046a683 f i renderparticles.obj
 0001:000696a7       ??$genpos@$00@@YAXABUvec@@0MHHPAUpartvert@@@Z 0046a6a7 f i renderparticles.obj
 0001:000697b1       ??$genpos@$01@@YAXABUvec@@0MHHPAUpartvert@@@Z 0046a7b1 f i renderparticles.obj
 0001:0006981f       ??$genrotpos@$0A@@@YAXABUvec@@0MHHPAUpartvert@@H@Z 0046a81f f i renderparticles.obj
 0001:000699cf       ?var_depthfxfilter@@YAXXZ  0046a9cf f   renderparticles.obj
 0001:000699cf       ?var_fpdepthfx@@YAXXZ      0046a9cf f   renderparticles.obj
 0001:000699cf       ?var_depthfxprecision@@YAXXZ 0046a9cf f   renderparticles.obj
 0001:000699cf       ?var_depthfxrect@@YAXXZ    0046a9cf f   renderparticles.obj
 0001:000699cf       ?var_depthfxsize@@YAXXZ    0046a9cf f   renderparticles.obj
 0001:000699d4       ?colorformats@depthfxtexture@@UBEPBIXZ 0046a9d4 f i renderparticles.obj
 0001:00069a32       ?addscissorvert@depthfxtexture@@QAEXABUvec@@AAM111@Z 0046aa32 f i renderparticles.obj
 0001:00069b08       ?addscissorbox@depthfxtexture@@QAE_NABUvec@@M@Z 0046ab08 f i renderparticles.obj
 0001:00069b5e       ?addscissorbox@depthfxtexture@@QAE_NABUvec@@0@Z 0046ab5e f i renderparticles.obj
 0001:00069c0d       ?screenview@depthfxtexture@@UBE_NXZ 0046ac0d f i renderparticles.obj
 0001:00069c19       ?texrect@depthfxtexture@@UBE_NXZ 0046ac19 f i renderparticles.obj
 0001:00069c2d       ?filter@depthfxtexture@@UBE_NXZ 0046ac2d f i renderparticles.obj
 0001:00069c39       ?highprecision@depthfxtexture@@QBE_NXZ 0046ac39 f i renderparticles.obj
 0001:00069c58       ?shouldrender@depthfxtexture@@UAE_NXZ 0046ac58 f i renderparticles.obj
 0001:00069ca1       ?dorender@depthfxtexture@@UAE_NXZ 0046aca1 f i renderparticles.obj
 0001:00069d54       ?dodebug@depthfxtexture@@UAEXHH@Z 0046ad54 f i renderparticles.obj
 0001:00069db0       ?cleanupdepthfx@@YAXXZ     0046adb0 f   renderparticles.obj
 0001:00069dbd       ?binddepthfxtex@@YA_NXZ    0046adbd f   renderparticles.obj
 0001:00069e99       ?binddepthfxparams@@YAXMM_NPAX@Z 0046ae99 f   renderparticles.obj
 0001:0006a036       ?drawdepthfxtex@@YAXXZ     0046b036 f   renderparticles.obj
 0001:0006af2b       ??0fireballrenderer@@QAE@PBD@Z 0046bf2b f i renderparticles.obj
 0001:0006af65       ?startrender@fireballrenderer@@UAEXXZ 0046bf65 f i renderparticles.obj
 0001:0006af6a       ?endrender@fireballrenderer@@UAEXXZ 0046bf6a f i renderparticles.obj
 0001:0006af79       ?cleanup@fireballrenderer@@UAEXXZ 0046bf79 f i renderparticles.obj
 0001:0006af7e       ?finddepthfxranges@fireballrenderer@@QAEHPAPAXPAMHHAAUvec@@2@Z 0046bf7e f i renderparticles.obj
 0001:0006b26e       ?seedemitter@fireballrenderer@@UAEXAAUparticleemitter@@ABUvec@@1HMH@Z 0046c26e f i renderparticles.obj
 0001:0006b2ad       ?renderpart@fireballrenderer@@UAEXPAUlistparticle@@ABUvec@@1HHPAE@Z 0046c2ad f i renderparticles.obj
 0001:0006b719       ??0flarerenderer@@QAE@PBDH@Z 0046c719 f i renderparticles.obj
 0001:0006b7bd       ?reset@flarerenderer@@UAEXXZ 0046c7bd f i renderparticles.obj
 0001:0006b7c2       ?newflare@flarerenderer@@QAEXAAUvec@@ABU2@EEEMM_N2@Z 0046c7c2 f i renderparticles.obj
 0001:0006b858       ?addflare@flarerenderer@@QAEXAAUvec@@EEE_N1@Z 0046c858 f i renderparticles.obj
 0001:0006b9c3       ?makelightflares@flarerenderer@@QAEXXZ 0046c9c3 f i renderparticles.obj
 0001:0006bbcc       ?count@flarerenderer@@UAEHXZ 0046cbcc f i renderparticles.obj
 0001:0006bbd0       ?haswork@flarerenderer@@UAE_NXZ 0046cbd0 f i renderparticles.obj
 0001:0006bbf1       ?render@flarerenderer@@UAEXXZ 0046cbf1 f i renderparticles.obj
 0001:0006bd0c       ?addpart@flarerenderer@@UAEPAUparticle@@ABUvec@@0HHMH@Z 0046cd0c f i renderparticles.obj
 0001:0006c051       ?startrender@lightningrenderer@@UAEXXZ 0046d051 f i renderparticles.obj
 0001:0006c05d       ?endrender@lightningrenderer@@UAEXXZ 0046d05d f i renderparticles.obj
 0001:0006c069       ?update@lightningrenderer@@UAEXXZ 0046d069 f i renderparticles.obj
 0001:0006c0ad       ?seedemitter@lightningrenderer@@UAEXAAUparticleemitter@@ABUvec@@1HMH@Z 0046d0ad f i renderparticles.obj
 0001:0006c0e9       ?renderpart@lightningrenderer@@UAEXPAUlistparticle@@ABUvec@@1HHPAE@Z 0046d0e9 f i renderparticles.obj
 0001:0006c165       ?finddepthfxranges@@YAXXZ  0046d165 f   renderparticles.obj
 0001:0006c268       ?var_maxparticles@@YAXXZ   0046d268 f   renderparticles.obj
 0001:0006c268       ?var_fewparticles@@YAXXZ   0046d268 f   renderparticles.obj
 0001:0006c26d       ?particleinit@@YAXXZ       0046d26d f   renderparticles.obj
 0001:0006c2db       ?removetrackedparticles@@YAXPAUphysent@@@Z 0046d2db f   renderparticles.obj
 0001:0006c2f9       ?renderparticles@@YAX_N@Z  0046d2f9 f   renderparticles.obj
 0001:0006cae9       ?canaddparticles@@YA_NXZ   0046dae9 f   renderparticles.obj
 0001:0006cafd       ?regular_particle_splash@@YAXHHHABUvec@@HMHHH@Z 0046dafd f   renderparticles.obj
 0001:0006cb2f       ?particle_splash@@YAXHHHABUvec@@HMHH@Z 0046db2f f   renderparticles.obj
 0001:0006cb65       ?particle_trail@@YAXHHABUvec@@0HMH@Z 0046db65 f   renderparticles.obj
 0001:0006cc8c       ?particle_text@@YAXABUvec@@PBDHHHMH@Z 0046dc8c f   renderparticles.obj
 0001:0006ccfe       ?particle_textcopy@@YAXABUvec@@PBDHHHMH@Z 0046dcfe f   renderparticles.obj
 0001:0006cd81       ?particle_icon@@YAXABUvec@@HHHHHMH@Z 0046dd81 f   renderparticles.obj
 0001:0006cdd7       ?particle_meter@@YAXABUvec@@MHHHHM@Z 0046ddd7 f   renderparticles.obj
 0001:0006ce4f       ?particle_flare@@YAXABUvec@@0HHHMPAUphysent@@@Z 0046de4f f   renderparticles.obj
 0001:0006ce80       ?particle_fireball@@YAXABUvec@@MHHHM@Z 0046de80 f   renderparticles.obj
 0001:0006cf38       ?regularshape@@YAXHHHHHHABUvec@@MH@Z 0046df38 f   renderparticles.obj
 0001:0006da77       ?printparticles@@YA_NAAUextentity@@PAD@Z 0046ea77 f   renderparticles.obj
 0001:0006db25       ?seedparticles@@YAXXZ      0046eb25 f   renderparticles.obj
 0001:0006dbd8       ?updateparticles@@YAXXZ    0046ebd8 f   renderparticles.obj
 0001:0006de52       ??0?$varenderer@$0A@@@QAE@PBDHH@Z 0046ee52 f i renderparticles.obj
 0001:0006dee3       ?init@?$varenderer@$0A@@@UAEXH@Z 0046eee3 f i renderparticles.obj
 0001:0006dee3       ?init@?$varenderer@$00@@UAEXH@Z 0046eee3 f i renderparticles.obj
 0001:0006dee3       ?init@?$varenderer@$01@@UAEXH@Z 0046eee3 f i renderparticles.obj
 0001:0006df83       ?reset@?$varenderer@$00@@UAEXXZ 0046ef83 f i renderparticles.obj
 0001:0006df83       ?reset@?$varenderer@$01@@UAEXXZ 0046ef83 f i renderparticles.obj
 0001:0006df83       ?reset@?$varenderer@$0A@@@UAEXXZ 0046ef83 f i renderparticles.obj
 0001:0006df8c       ?resettracked@?$varenderer@$0A@@@UAEXPAUphysent@@@Z 0046ef8c f i renderparticles.obj
 0001:0006df8c       ?resettracked@?$varenderer@$01@@UAEXPAUphysent@@@Z 0046ef8c f i renderparticles.obj
 0001:0006df8c       ?resettracked@?$varenderer@$00@@UAEXPAUphysent@@@Z 0046ef8c f i renderparticles.obj
 0001:0006dfc8       ?haswork@?$varenderer@$00@@UAE_NXZ 0046efc8 f i renderparticles.obj
 0001:0006dfc8       ?haswork@?$varenderer@$01@@UAE_NXZ 0046efc8 f i renderparticles.obj
 0001:0006dfc8       ?haswork@?$varenderer@$0A@@@UAE_NXZ 0046efc8 f i renderparticles.obj
 0001:0006dfd1       ?seedemitter@?$varenderer@$0A@@@UAEXAAUparticleemitter@@ABUvec@@1HMH@Z 0046efd1 f i renderparticles.obj
 0001:0006e0ed       ?update@?$varenderer@$0A@@@UAEXXZ 0046f0ed f i renderparticles.obj
 0001:0006e180       ?addpart@?$varenderer@$01@@UAEPAUparticle@@ABUvec@@0HHMH@Z 0046f180 f i renderparticles.obj
 0001:0006e180       ?addpart@?$varenderer@$0A@@@UAEPAUparticle@@ABUvec@@0HHMH@Z 0046f180 f i renderparticles.obj
 0001:0006e180       ?addpart@?$varenderer@$00@@UAEPAUparticle@@ABUvec@@0HHMH@Z 0046f180 f i renderparticles.obj
 0001:0006e23c       ?seedemitter@?$varenderer@$01@@UAEXAAUparticleemitter@@ABUvec@@1HMH@Z 0046f23c f i renderparticles.obj
 0001:0006e393       ?update@?$varenderer@$01@@UAEXXZ 0046f393 f i renderparticles.obj
 0001:0006e426       ?count@?$varenderer@$0A@@@UAEHXZ 0046f426 f i renderparticles.obj
 0001:0006e426       ?count@?$varenderer@$00@@UAEHXZ 0046f426 f i renderparticles.obj
 0001:0006e426       ?count@?$varenderer@$01@@UAEHXZ 0046f426 f i renderparticles.obj
 0001:0006e42a       ?seedemitter@?$varenderer@$00@@UAEXAAUparticleemitter@@ABUvec@@1HMH@Z 0046f42a f i renderparticles.obj
 0001:0006e53c       ?update@?$varenderer@$00@@UAEXXZ 0046f53c f i renderparticles.obj
 0001:0006e5cf       ?render@?$varenderer@$00@@UAEXXZ 0046f5cf f i renderparticles.obj
 0001:0006e5cf       ?render@?$varenderer@$0A@@@UAEXXZ 0046f5cf f i renderparticles.obj
 0001:0006e5cf       ?render@?$varenderer@$01@@UAEXXZ 0046f5cf f i renderparticles.obj
 0001:0006e64c       ??_G?$varenderer@$0A@@@UAEPAXI@Z 0046f64c f i renderparticles.obj
 0001:0006e64c       ??_E?$varenderer@$0A@@@UAEPAXI@Z 0046f64c f i  CIL library: CIL module
 0001:0006e64c       ??_G?$varenderer@$00@@UAEPAXI@Z 0046f64c f i renderparticles.obj
 0001:0006e64c       ??_Gflarerenderer@@UAEPAXI@Z 0046f64c f i renderparticles.obj
 0001:0006e64c       ??_E?$varenderer@$00@@UAEPAXI@Z 0046f64c f i  CIL library: CIL module
 0001:0006e64c       ??_G?$varenderer@$01@@UAEPAXI@Z 0046f64c f i renderparticles.obj
 0001:0006e64c       ??_Eflarerenderer@@UAEPAXI@Z 0046f64c f i  CIL library: CIL module
 0001:0006e64c       ??_E?$varenderer@$01@@UAEPAXI@Z 0046f64c f i  CIL library: CIL module
 0001:0006e685       ?genverts@?$varenderer@$0A@@@QAEXPAUparticle@@PAUpartvert@@_N@Z 0046f685 f i renderparticles.obj
 0001:0006e8f2       ?genverts@?$varenderer@$01@@QAEXPAUparticle@@PAUpartvert@@_N@Z 0046f8f2 f i renderparticles.obj
 0001:0006eb4b       ?genverts@?$varenderer@$00@@QAEXPAUparticle@@PAUpartvert@@_N@Z 0046fb4b f i renderparticles.obj
 0001:0006ef4a       ?loadsky@@YAXPBDQAPAUTexture@@@Z 0046ff4a f   rendersky.obj
 0001:0006f00f       ?loadskyoverlay@@YAPAUTexture@@PBD@Z 0047000f f   rendersky.obj
 0001:0006f0b0       ?var_skybox@@YAXXZ         004700b0 f   rendersky.obj
 0001:0006f0c7       ?var_cloudbox@@YAXXZ       004700c7 f   rendersky.obj
 0001:0006f0de       ?var_cloudlayer@@YAXXZ     004700de f   rendersky.obj
 0001:0006f0f3       ?draw_envbox_face@@YAXMMHHHMMHHHMMHHHMMHHHI@Z 004700f3 f   rendersky.obj
 0001:0006f1fe       ?draw_envbox@@YAXHMMHPAPAUTexture@@@Z 004701fe f   rendersky.obj
 0001:0006f4e6       ?draw_env_overlay@@YAXHPAUTexture@@MM@Z 004704e6 f   rendersky.obj
 0001:0006f55f       ??0domevert@@QAE@ABUvec@@ABUbvec@@M@Z 0047055f f i rendersky.obj
 0001:0006f593       ??0domevert@@QAE@ABU0@0@Z  00470593 f i rendersky.obj
 0001:0006fcf5       ?var_fogdomecolour@@YAXXZ  00470cf5 f   rendersky.obj
 0001:0006fef2       ?drawskylimits@@YA_N_N@Z   00470ef2 f   rendersky.obj
 0001:0006ff3b       ?drawskyoutline@@YAXXZ     00470f3b f   rendersky.obj
 0001:0007020a       ?drawskybox@@YAXH_N@Z      0047120a f   rendersky.obj
 0001:000709f4       ?limitsky@@YA_NXZ          004719f4 f   rendersky.obj
 0001:00070a9d       ?newfont@@YAXPAD0PAH11111@Z 00471a9d f   rendertext.obj
 0001:00070b33       ?fontoffset@@YAXPAD@Z      00471b33 f   rendertext.obj
 0001:00070b47       ?fontchar@@YAXPAH000@Z     00471b47 f   rendertext.obj
 0001:00070bb0       ?setfont@@YA_NPBD@Z        00471bb0 f   rendertext.obj
 0001:00070bca       ?gettextres@@YAXAAH0@Z     00471bca f   rendertext.obj
 0001:00070c08       ?text_width@@YAHPBD@Z      00471c08 f   rendertext.obj
 0001:00070c27       ?tabify@@YAXPBDPAH@Z       00471c27 f   rendertext.obj
 0001:00070ce6       ?draw_textf@@YAXPBDHHZZ    00471ce6 f   rendertext.obj
 0001:00070f74       ?text_visible@@YAHPBDHHH@Z 00471f74 f   rendertext.obj
 0001:00071135       ?text_pos@@YAXPBDHAAH1H@Z  00472135 f   rendertext.obj
 0001:000712e3       ?text_bounds@@YAXPBDAAH1H@Z 004722e3 f   rendertext.obj
 0001:00071442       ?draw_text@@YAXPBDHHHHHHHH@Z 00472442 f   rendertext.obj
 0001:00071765       ?reloadfonts@@YAXXZ        00472765 f   rendertext.obj
 0001:000717a8       ??0?$hashtable@PBDUfont@@@@QAE@H@Z 004727a8 f i rendertext.obj
 0001:00071817       ?access@?$hashtable@PBDUfont@@@@QAEPAUfont@@ABQBD@Z 00472817 f i rendertext.obj
 0001:00071861       ??A?$hashtable@PBDUfont@@@@QAEAAUfont@@ABQBD@Z 00472861 f i rendertext.obj
 0001:000718b8       ??1?$hashset@U?$hashtableentry@PBDUfont@@@@@@QAE@XZ 004728b8 f i rendertext.obj
 0001:00071921       ?growbuf@?$vector@Uteamscore@@@@QAEXH@Z 00472921 f i client1.obj
 0001:00071921       ?growbuf@?$vector@Utag@skelmodel@@@@QAEXH@Z 00472921 f i rendermodel.obj
 0001:00071921       ?growbuf@?$vector@Ucharinfo@font@@@@QAEXH@Z 00472921 f i rendertext.obj
 0001:00071921       ?growbuf@?$vector@Utcvert@vertmodel@@@@QAEXH@Z 00472921 f i rendermodel.obj
 0001:00071921       ?growbuf@?$vector@Ucrcinfo@server@@@@QAEXH@Z 00472921 f i server1.obj
 0001:00071979       ?growbuf@?$vector@PAUfont@@@@QAEXH@Z 00472979 f i rendertext.obj
 0001:000719dd       ??1chain@?$hashset@U?$hashtableentry@PBDUfont@@@@@@QAE@XZ 004729dd f i rendertext.obj
 0001:00071a01       ??1?$hashtableentry@PBDUfont@@@@QAE@XZ 00472a01 f i rendertext.obj
 0001:00071a29       ??1font@@QAE@XZ            00472a29 f i rendertext.obj
 0001:00071a61       ?insert@?$hashset@U?$hashtableentry@PBDUfont@@@@@@QAEPAUchain@1@I@Z 00472a61 f i rendertext.obj
 0001:00071b1d       ??0chain@?$hashset@U?$hashtableentry@PBDUfont@@@@@@QAE@XZ 00472b1d f i rendertext.obj
 0001:00071bb9       ?isfoggedsphere@@YA_NMABUvec@@@Z 00472bb9 f   renderva.obj
 0001:00071c3f       ?isvisiblesphere@@YAHMABUvec@@@Z 00472c3f f   renderva.obj
 0001:00071dc2       ?isvisiblecube@@YAHABUivec@@H@Z 00472dc2 f   renderva.obj
 0001:00071e78       ?findvisiblevas@@YAXAAU?$vector@PAUvtxarray@@@@_N@Z 00472e78 f   renderva.obj
 0001:00071fa4       ?calcvfcD@@YAXXZ           00472fa4 f   renderva.obj
 0001:00071ffb       ?setvfcP@@YAXMABUvec@@0@Z  00472ffb f   renderva.obj
 0001:0007227f       ?savevfcP@@YAXXZ           0047327f f   renderva.obj
 0001:00072294       ?restorevfcP@@YAXXZ        00473294 f   renderva.obj
 0001:000722ad       ?visiblecubes@@YAX_N@Z     004732ad f   renderva.obj
 0001:00072466       ?newquery@@YAPAUoccludequery@@PAX@Z 00473466 f   renderva.obj
 0001:000724bb       ?checkquery@@YA_NPAUoccludequery@@_N@Z 004734bb f   renderva.obj
 0001:00072510       ?drawbb@@YAXABUivec@@0ABUvec@@@Z 00473510 f   renderva.obj
 0001:000726cc       ?findvisiblemms@@YAXABU?$vector@PAUextentity@@@@@Z 004736cc f   renderva.obj
 0001:00072859       ?rendermapmodel@@YAXAAUextentity@@@Z 00473859 f   renderva.obj
 0001:000728da       ?renderreflectedmapmodels@@YAXXZ 004738da f   renderva.obj
 0001:00072a21       ?rendermapmodels@@YAXXZ    00473a21 f   renderva.obj
 0001:00072d72       ?bboccluded@@YA_NABUivec@@0@Z 00473d72 f   renderva.obj
 0001:00072f30       ?renderoutline@@YAXXZ      00473f30 f   renderva.obj
 0001:00073101       ?renderblendbrush@@YAXIMMMM@Z 00474101 f   renderva.obj
 0001:0007334c       ?rendershadowmapreceivers@@YAXXZ 0047434c f   renderva.obj
 0001:000734b8       ?renderdepthobstacles@@YAXABUvec@@0MPAMH@Z 004744b8 f   renderva.obj
 0001:00073715       ??0renderstate@@QAE@XZ     00474715 f i renderva.obj
 0001:000737bf       ?renderquery@@YAXAAUrenderstate@@PAUoccludequery@@PAUvtxarray@@_N@Z 004747bf f   renderva.obj
 0001:00073877       ??0geombatch@@QAE@ABUelementset@@PAGPAUvtxarray@@@Z 00474877 f i renderva.obj
 0001:000738a4       ?compare@geombatch@@QBEHABU1@@Z 004748a4 f i renderva.obj
 0001:00075535       ?renderzpass@@YAXAAUrenderstate@@PAUvtxarray@@@Z 00476535 f   renderva.obj
 0001:000756cf       ?renderfoggedvas@@YAXAAUrenderstate@@_N@Z 004766cf f   renderva.obj
 0001:000757b5       ?rendershadowmappass@@YAXAAUrenderstate@@PAUvtxarray@@@Z 004767b5 f   renderva.obj
 0001:0007583b       ?renderva@@YAXAAUrenderstate@@PAUvtxarray@@H_N2@Z 0047683b f   renderva.obj
 0001:00075ca7       ?loadcaustics@@YAX_N@Z     00476ca7 f   renderva.obj
 0001:00075d30       ?cleanupva@@YAXXZ          00476d30 f   renderva.obj
 0001:00075dbe       ?var_caustics@@YAXXZ       00476dbe f   renderva.obj
 0001:00075dc7       ?setupcaustics@@YAXHMPAM@Z 00476dc7 f   renderva.obj
 0001:00075fe1       ?setupTMUs@@YAXAAUrenderstate@@M_N@Z 00476fe1 f   renderva.obj
 0001:00076311       ?cleanupTMUs@@YAXAAUrenderstate@@M_N@Z 00477311 f   renderva.obj
 0001:000767e6       ?rendergeom@@YAXM_N@Z      004777e6 f   renderva.obj
 0001:0007767d       ?renderalphageom@@YAX_N@Z  0047867d f   renderva.obj
 0001:00077c82       ?findreflectedvas@@YAXAAU?$vector@PAUvtxarray@@@@H@Z 00478c82 f   renderva.obj
 0001:00077d8e       ?renderskyva@@YAXPAUvtxarray@@_N@Z 00478d8e f   renderva.obj
 0001:00077e65       ?renderreflectedskyvas@@YAXAAU?$vector@PAUvtxarray@@@@H@Z 00478e65 f   renderva.obj
 0001:00077f14       ?rendersky@@YA_N_N@Z       00478f14 f   renderva.obj
 0001:00077fc5       ?add@?$vector@Ugeombatch@@@@QAEAAUgeombatch@@ABU2@@Z 00478fc5 f i renderva.obj
 0001:0007800f       ?growbuf@?$vector@Ugeombatch@@@@QAEXH@Z 0047900f f i renderva.obj
 0001:00078071       ?setvariant@Shader@@QAEXHHAAUSlot@@AAUVSlot@@@Z 00479071 f i renderva.obj
 0001:000780a8       ?setvariant@Shader@@QAEXHHAAUSlot@@AAUVSlot@@PAU1@@Z 004790a8 f i renderva.obj
 0001:000780e0       ?normalize@plane@@QAEAAU1@XZ 004790e0 f i renderva.obj
 0001:0007810a       ??0GlobalShaderParamState@@QAE@XZ 0047910a f i shader.obj
 0001:00078133       ?loadshaders@@YAXXZ        00479133 f   shader.obj
 0001:00078381       ?lookupshaderbyname@@YAPAUShader@@PBD@Z 00479381 f   shader.obj
 0001:000789c9       ?checkglslsupport@@YA_NXZ  004799c9 f   shader.obj
 0001:00078e67       ?allocenvparams@Shader@@QAEXPAUSlot@@@Z 00479e67 f   shader.obj
 0001:00079349       ?setenvparamf@@YAXPBDHHMMMM@Z 0047a349 f   shader.obj
 0001:00079388       ?setlocalparamf@@YAXPBDHHMMMM@Z 0047a388 f   shader.obj
 0001:000793c7       ?setlocalparamfv@@YAXPBDHHPBM@Z 0047a3c7 f   shader.obj
 0001:000793ea       ?flushenvparams@Shader@@QAEXPAUSlot@@@Z 0047a3ea f   shader.obj
 0001:00079737       ?setslotparams@Shader@@QAEXAAUSlot@@AAUVSlot@@@Z 0047a737 f   shader.obj
 0001:00079765       ?bindprograms@Shader@@QAEXXZ 0047a765 f   shader.obj
 0001:000797be       ?var_shaders@@YAXXZ        0047a7be f   shader.obj
 0001:000797be       ?var_forceglsl@@YAXXZ      0047a7be f   shader.obj
 0001:000797d5       ?var_shaderprecision@@YAXXZ 0047a7d5 f   shader.obj
 0001:000797ec       ?compile@Shader@@QAE_NXZ   0047a7ec f   shader.obj
 0001:000799c8       ?cleanup@Shader@@QAEX_N@Z  0047a9c8 f   shader.obj
 0001:00079df4       ?newshader@@YAPAUShader@@HPBD00PAU1@H@Z 0047adf4 f   shader.obj
 0001:0007a292       ?genemufog@@YAXAAU?$vector@D@@0HH@Z 0047b292 f   shader.obj
 0001:0007b9cf       ?defershader@@YAXPAHPBD1@Z 0047c9cf f   shader.obj
 0001:0007ba73       ?useshader@@YAXPAUShader@@@Z 0047ca73 f   shader.obj
 0001:0007bb21       ?fixshaderdetail@@YAXXZ    0047cb21 f   shader.obj
 0001:0007bb9e       ?uniformlocversion@Shader@@SAHXZ 0047cb9e f   shader.obj
 0001:0007bc19       ?var_nativeshaders@@YAXXZ  0047cc19 f   shader.obj
 0001:0007bc19       ?var_shaderdetail@@YAXXZ   0047cc19 f   shader.obj
 0001:0007bc1e       ?fixdetailshader@Shader@@QAEX_N0@Z 0047cc1e f   shader.obj
 0001:0007bcd1       ?useshaderbyname@@YAPAUShader@@PBD@Z 0047ccd1 f   shader.obj
 0001:0007bcff       ?shader@@YAXPAHPAD11@Z     0047ccff f   shader.obj
 0001:0007c0a9       ?variantshader@@YAXPAHPAD011@Z 0047d0a9 f   shader.obj
 0001:0007c3ec       ?setshader@@YAXPAD@Z       0047d3ec f   shader.obj
 0001:0007c42d       ?findshaderparam@@YAPAUShaderParam@@AAUSlot@@PBDHH@Z 0047d42d f   shader.obj
 0001:0007c4cf       ?findshaderparam@@YAPAUShaderParam@@AAUVSlot@@PBDHH@Z 0047d4cf f   shader.obj
 0001:0007c5f7       ?linkslotshader@@YAXAAUSlot@@_N@Z 0047d5f7 f   shader.obj
 0001:0007c62b       ?linkvslotshader@@YAXAAUVSlot@@_N@Z 0047d62b f   shader.obj
 0001:0007c774       ?altshader@@YAXPAD0@Z      0047d774 f   shader.obj
 0001:0007c7a3       ?fastshader@@YAXPAD0PAH@Z  0047d7a3 f   shader.obj
 0001:0007c7ef       ?run@?$_icmd_forceshader@$0HBL@@@SAXPBD@Z 0047d7ef f   shader.obj
 0001:0007c7f4       ?isshaderdefined@@YAXPAD@Z 0047d7f4 f   shader.obj
 0001:0007c80d       ?isshadernative@@YAXPAD@Z  0047d80d f   shader.obj
 0001:0007c833       ?getshaderparamname@@YAPBDPBD@Z 0047d833 f   shader.obj
 0001:0007c8aa       ?addshaderparam@@YAXPBDHHMMMM@Z 0047d8aa f   shader.obj
 0001:0007c97c       ?run@?$_icmd_setvertexparam@$0HEP@@@SAXPAHPAM111@Z 0047d97c f   shader.obj
 0001:0007ca30       ?run@?$_icmd_setpixelparam@$0HFA@@@SAXPAHPAM111@Z 0047da30 f   shader.obj
 0001:0007ca6c       ?run@?$_icmd_setuniformparam@$0HFB@@@SAXPADPAM111@Z 0047da6c f   shader.obj
 0001:0007ca6c       ?run@?$_icmd_defuniformparam@$0HFF@@@SAXPADPAM111@Z 0047da6c f   shader.obj
 0001:0007cb2f       ?run@?$_icmd_setshaderparam@$0HFC@@@SAXPADPAM111@Z 0047db2f f   shader.obj
 0001:0007cbf1       ?run@?$_icmd_defvertexparam@$0HFD@@@SAXPADPAHPAM222@Z 0047dbf1 f   shader.obj
 0001:0007ccdc       ?run@?$_icmd_defpixelparam@$0HFE@@@SAXPADPAHPAM222@Z 0047dcdc f   shader.obj
 0001:0007ce57       ?cleanuppostfx@@YAX_N@Z    0047de57 f   shader.obj
 0001:0007cec0       ?renderpostfx@@YAXXZ       0047dec0 f   shader.obj
 0001:0007d29f       ?clearpostfx@@YAXXZ        0047e29f f   shader.obj
 0001:0007d2b6       ?run@?$_icmd_addpostfx@$0IBD@@@SAXPADPAH10PAM222@Z 0047e2b6 f   shader.obj
 0001:0007d371       ?run@?$_icmd_setpostfx@$0IBJ@@@SAXPADPAM111@Z 0047e371 f   shader.obj
 0001:0007d3b9       ?parsetmufunc@@YAXAAUtmu@@AAUtmufunc@@PBD@Z 0047e3b9 f   shader.obj
 0001:0007d591       ?resettmu@@YAXH@Z          0047e591 f   shader.obj
 0001:0007d5fa       ?colortmu@@YAXHMMMM@Z      0047e5fa f   shader.obj
 0001:0007d68e       ?committmufunc@@YAXI_NAAUtmufunc@@1@Z 0047e68e f   shader.obj
 0001:0007d7b0       ?setuptmu@@YAXHPBD0@Z      0047e7b0 f   shader.obj
 0001:0007d87e       ?inittmus@@YAXXZ           0047e87e f   shader.obj
 0001:0007d936       ?cleanupshaders@@YAXXZ     0047e936 f   shader.obj
 0001:0007da83       ?reloadshaders@@YAXXZ      0047ea83 f   shader.obj
 0001:0007dbf7       ?setupblurkernel@@YAXHMPAM0@Z 0047ebf7 f   shader.obj
 0001:0007dd0a       ?setblurshader@@YAXHHHPAM0I@Z 0047ed0a f   shader.obj
 0001:0007de72       ?add@?$vector@ULocalShaderParamState@@@@QAEAAULocalShaderParamState@@ABU2@@Z 0047ee72 f i shader.obj
 0001:0007deac       ?add@?$vector@UUniformLoc@@@@QAEAAUUniformLoc@@ABU2@@Z 0047eeac f i shader.obj
 0001:0007dee6       ??0?$hashtable@PBDUShader@@@@QAE@H@Z 0047eee6 f i shader.obj
 0001:0007df55       ?access@?$hashtable@PBDUShader@@@@QAEPAUShader@@ABQBD@Z 0047ef55 f i shader.obj
 0001:0007dfa2       ??A?$hashtable@PBDUShader@@@@QAEAAUShader@@ABQBD@Z 0047efa2 f i shader.obj
 0001:0007dffc       ??1?$hashset@U?$hashtableentry@PBDUShader@@@@@@QAE@XZ 0047effc f i shader.obj
 0001:0007e068       ?insert@?$vector@D@@QAEPADHPBDH@Z 0047f068 f i shader.obj
 0001:0007e0e0       ?add@?$vector@Upostfxpass@@@@QAEAAUpostfxpass@@XZ 0047f0e0 f i shader.obj
 0001:0007e14a       ?growbuf@?$vector@ULocalShaderParamState@@@@QAEXH@Z 0047f14a f i shader.obj
 0001:0007e1a0       ?growbuf@?$vector@PAUfpsent@@@@QAEXH@Z 0047f1a0 f i fps.obj
 0001:0007e1a0       ?growbuf@?$vector@H@@QAEXH@Z 0047f1a0 f i lightmap.obj
 0001:0007e1a0       ?growbuf@?$vector@PBD@@QAEXH@Z 0047f1a0 f i serverbrowser.obj
 0001:0007e1a0       ?growbuf@?$vector@PAUclientinfo@server@@@@QAEXH@Z 0047f1a0 f i server1.obj
 0001:0007e1a0       ?growbuf@?$vector@PAUgameevent@server@@@@QAEXH@Z 0047f1a0 f i server1.obj
 0001:0007e1a0       ?growbuf@?$vector@PAUskelmeshgroup@skelmodel@@@@QAEXH@Z 0047f1a0 f i rendermodel.obj
 0001:0007e1a0       ?growbuf@?$vector@PAUextentity@@@@QAEXH@Z 0047f1a0 f i cubeloader.obj
 0001:0007e1a0       ?growbuf@?$vector@PAUmaterialsurface@@@@QAEXH@Z 0047f1a0 f i pvs.obj
 0001:0007e1a0       ?growbuf@?$vector@PAUident@@@@QAEXH@Z 0047f1a0 f i command.obj
 0001:0007e1a0       ?growbuf@?$vector@PAUShader@@@@QAEXH@Z 0047f1a0 f i shader.obj
 0001:0007e1a0       ?growbuf@?$vector@PAUmesh@animmodel@@@@QAEXH@Z 0047f1a0 f i rendermodel.obj
 0001:0007e1a0       ?growbuf@?$vector@PAUoctaentities@@@@QAEXH@Z 0047f1a0 f i octarender.obj
 0001:0007e1a0       ?growbuf@?$vector@PAUphysent@@@@QAEXH@Z 0047f1a0 f i physics.obj
 0001:0007e1a0       ?growbuf@?$vector@PBUextentity@@@@QAEXH@Z 0047f1a0 f i lightmap.obj
 0001:0007e1a0       ?growbuf@?$vector@PAD@@QAEXH@Z 0047f1a0 f i command.obj
 0001:0007e1a0       ?growbuf@?$vector@PAUvtxarray@@@@QAEXH@Z 0047f1a0 f i octarender.obj
 0001:0007e1a0       ?growbuf@?$vector@PAUplatforment@@@@QAEXH@Z 0047f1a0 f i physics.obj
 0001:0007e1a0       ?growbuf@?$vector@PAUpart@animmodel@@@@QAEXH@Z 0047f1a0 f i rendermodel.obj
 0001:0007e1f8       ?growbuf@?$vector@UUniformLoc@@@@QAEXH@Z 0047f1f8 f i shader.obj
 0001:0007e24e       ?growbuf@?$vector@Upostfxpass@@@@QAEXH@Z 0047f24e f i shader.obj
 0001:0007e2b0       ??1chain@?$hashset@U?$hashtableentry@PBDUShader@@@@@@QAE@XZ 0047f2b0 f i shader.obj
 0001:0007e2d4       ??1?$hashtableentry@PBDUShader@@@@QAE@XZ 0047f2d4 f i shader.obj
 0001:0007e2fc       ?insert@?$hashset@U?$hashtableentry@PBDUShader@@@@@@QAEPAUchain@1@I@Z 0047f2fc f i shader.obj
 0001:0007e3c3       ??0chain@?$hashset@U?$hashtableentry@PBDUShader@@@@@@QAE@XZ 0047f3c3 f i shader.obj
 0001:0007e3ea       ??0?$hashtableentry@PBDUShader@@@@QAE@XZ 0047f3ea f i shader.obj
 0001:0007e416       ??$remove@PAD@?$hashset@U?$hashtableentry@PBDUShader@@@@@@QAE_NABQAD@Z 0047f416 f i shader.obj
 0001:0007e4af       ??$?APBD@?$hashset@PBD@@QAEAAPBDABQBD@Z 0047f4af f i shader.obj
 0001:0007e4ff       ?insert@?$hashset@PBD@@QAEPAUchain@1@I@Z 0047f4ff f i shader.obj
 0001:0007e577       ??0Shader@@QAE@XZ          0047f577 f i shader.obj
 0001:0007e656       ??1Shader@@QAE@XZ          0047f656 f i shader.obj
 0001:0007e765       ??0LocalShaderParamState@@QAE@XZ 0047f765 f i shader.obj
 0001:0007e783       ?checkblurtiles@rendertarget@@QAE_NMMMMM@Z 0047f783 f i shadowmap.obj
 0001:0007e8ce       ?var_shadowmapsize@@YAXXZ  0047f8ce f   shadowmap.obj
 0001:0007e8ce       ?var_shadowmapprecision@@YAXXZ 0047f8ce f   shadowmap.obj
 0001:0007e8ce       ?var_fpshadowmap@@YAXXZ    0047f8ce f   shadowmap.obj
 0001:0007e8db       ?var_shadowmapambient@@YAXXZ 0047f8db f   shadowmap.obj
 0001:0007e920       ?var_shadowmapangle@@YAXXZ 0047f920 f   shadowmap.obj
 0001:0007e963       ?guessshadowdir@@YAXXZ     0047f963 f   shadowmap.obj
 0001:0007ea8e       ?attachment@shadowmaptexture@@UBEIXZ 0047fa8e f i shadowmap.obj
 0001:0007eaa0       ?colorformats@shadowmaptexture@@UBEPBIXZ 0047faa0 f i shadowmap.obj
 0001:0007eae4       ?shadowcompare@shadowmaptexture@@UBE_NXZ 0047fae4 f i shadowmap.obj
 0001:0007eaf0       ?filter@shadowmaptexture@@UBE_NXZ 0047faf0 f i shadowmap.obj
 0001:0007eb06       ?swaptexs@shadowmaptexture@@UBE_NXZ 0047fb06 f i shadowmap.obj
 0001:0007eb12       ?scissorblur@shadowmaptexture@@UAE_NAAH000@Z 0047fb12 f i shadowmap.obj
 0001:0007ec1c       ?scissorrender@shadowmaptexture@@UAE_NAAH000@Z 0047fc1c f i shadowmap.obj
 0001:0007ec48       ?doclear@shadowmaptexture@@UAEXXZ 0047fc48 f i shadowmap.obj
 0001:0007ecd9       ?dorender@shadowmaptexture@@UAE_NXZ 0047fcd9 f i shadowmap.obj
 0001:0007f2f6       ?dodebug@shadowmaptexture@@UAEXHH@Z 004802f6 f i shadowmap.obj
 0001:0007f76a       ?calcshadowmapbb@@YAXABUvec@@MMAAM111@Z 0048076a f   shadowmap.obj
 0001:0007f8dd       ?addshadowmapcaster@@YA_NABUvec@@MM@Z 004808dd f   shadowmap.obj
 0001:0007f9a6       ?isshadowmapreceiver@@YA_NPAUvtxarray@@@Z 004809a6 f   shadowmap.obj
 0001:0007fae4       ?isshadowmapcaster@@YA_NABUvec@@M@Z 00480ae4 f   shadowmap.obj
 0001:0007fbba       ?pushshadowmap@@YAXXZ      00480bba f   shadowmap.obj
 0001:0007ff5b       ?popshadowmap@@YAXXZ       00480f5b f   shadowmap.obj
 0001:0007ff98       ?rendershadowmap@@YAXXZ    00480f98 f   shadowmap.obj
 0001:00080008       ??$transform@Uvec@@@glmatrixf@@QBEXABUvec@@AAUvec4@@@Z 00481008 f i shadowmap.obj
 0001:000800a4       ?projective@glmatrixf@@QAEXMM@Z 004810a4 f i shadowmap.obj
 0001:0008169b       ?texreorient@@YAXAAUImageData@@_N11H@Z 0048269b f   texture.obj
 0001:0008172b       ?texrotate@@YAXAAUImageData@@HH@Z 0048272b f   texture.obj
 0001:00081773       ?texoffset@@YAXAAUImageData@@HH@Z 00482773 f   texture.obj
 0001:00081856       ?texmad@@YAXAAUImageData@@ABUvec@@1@Z 00482856 f   texture.obj
 0001:00081933       ?texcolorify@@YAXAAUImageData@@ABUvec@@U2@@Z 00482933 f   texture.obj
 0001:00081a34       ?texffmask@@YAXAAUImageData@@MM@Z 00482a34 f   texture.obj
 0001:00081b62       ?texdup@@YAXAAUImageData@@HH@Z 00482b62 f   texture.obj
 0001:00081bb8       ?texdecal@@YAXAAUImageData@@@Z 00482bb8 f   texture.obj
 0001:00081c69       ?texmix@@YAXAAUImageData@@HHHH@Z 00482c69 f   texture.obj
 0001:00081d73       ?texgrey@@YAXAAUImageData@@@Z 00482d73 f   texture.obj
 0001:00081e66       ?var_maxtexsize@@YAXXZ     00482e66 f   texture.obj
 0001:00081e66       ?var_texcompress@@YAXXZ    00482e66 f   texture.obj
 0001:00081e66       ?var_texreduce@@YAXXZ      00482e66 f   texture.obj
 0001:00081e66       ?var_usenp2@@YAXXZ         00482e66 f   texture.obj
 0001:00081e66       ?var_reducefilter@@YAXXZ   00482e66 f   texture.obj
 0001:00081e7d       ?var_texcompressquality@@YAXXZ 00482e7d f   texture.obj
 0001:00081e82       ?var_hwmipmap@@YAXXZ       00482e82 f   texture.obj
 0001:00081e82       ?var_bilinear@@YAXXZ       00482e82 f   texture.obj
 0001:00081e82       ?var_trilinear@@YAXXZ      00482e82 f   texture.obj
 0001:00081e82       ?var_aniso@@YAXXZ          00482e82 f   texture.obj
 0001:00081e99       ?setuptexcompress@@YAXXZ   00482e99 f   texture.obj
 0001:00081ecb       ?compressedformat@@YAIIHHH@Z 00482ecb f   texture.obj
 0001:00081f1d       ?formatsize@@YAHI@Z        00482f1d f   texture.obj
 0001:00081f40       ?resizetexture@@YAXHH_N0IHAAH1@Z 00482f40 f   texture.obj
 0001:0008206d       ?uploadtexture@@YAXIIHHIIPAXHHH_N@Z 0048306d f   texture.obj
 0001:00082361       ?uploadcompressedtexture@@YAXIIHHPAEHHH_N@Z 00483361 f   texture.obj
 0001:00082453       ?uncompressedformat@@YAII@Z 00483453 f   texture.obj
 0001:00082485       ?setuptexparameters@@YAXHPAXHHII@Z 00483485 f   texture.obj
 0001:000825da       ?createtexture@@YAXHHHPAXHHIIHHH_N@Z 004835da f   texture.obj
 0001:0008278b       ?createcompressedtexture@@YAXHHHPAEHHHHHII@Z 0048378b f   texture.obj
 0001:00082818       ?texalign@@YAHPAXHH@Z      00483818 f   texture.obj
 0001:00082a74       ?wrapsurface@@YAPAUSDL_Surface@@PAXHHH@Z 00483a74 f   texture.obj
 0001:00082ac8       ?creatergbsurface@@YAPAUSDL_Surface@@PAU1@@Z 00483ac8 f   texture.obj
 0001:00082b0b       ?creatergbasurface@@YAPAUSDL_Surface@@PAU1@@Z 00483b0b f   texture.obj
 0001:00082b5a       ?checkgrayscale@@YA_NPAUSDL_Surface@@@Z 00483b5a f   texture.obj
 0001:00082ba1       ?fixsurfaceformat@@YAPAUSDL_Surface@@PAU1@@Z 00483ba1 f   texture.obj
 0001:00082c50       ?texflip@@YAXAAUImageData@@@Z 00483c50 f   texture.obj
 0001:00082cd6       ?texnormal@@YAXAAUImageData@@H@Z 00483cd6 f   texture.obj
 0001:00082e3e       ?scaleimage@@YAXAAUImageData@@HH@Z 00483e3e f   texture.obj
 0001:00082eaa       ?forcergbimage@@YAXAAUImageData@@@Z 00483eaa f   texture.obj
 0001:00082f67       ?loadsurface@@YAPAUSDL_Surface@@PBD@Z 00483f67 f   texture.obj
 0001:00083822       ?loadalphamask@@YAXPAUTexture@@@Z 00484822 f   texture.obj
 0001:0008391f       ?textureload@@YAPAUTexture@@PBDH_N1@Z 0048491f f   texture.obj
 0001:00083a01       ?settexture@@YA_NPBDH@Z    00484a01 f   texture.obj
 0001:00083a31       ??1MSlot@@QAE@XZ           00484a31 f i texture.obj
 0001:00083a66       ?texturereset@@YAXPAH@Z    00484a66 f   texture.obj
 0001:00083ae9       ?materialreset@@YAXXZ      00484ae9 f   texture.obj
 0001:00083b1e       ?clearslots@@YAXXZ         00484b1e f   texture.obj
 0001:00083c0d       ?compactvslots@@YAXPAUcube@@H@Z 00484c0d f   texture.obj
 0001:00083ce4       ?compactvslots@@YAHXZ      00484ce4 f   texture.obj
 0001:00083f47       ?run@?$_icmd_compactvslots@$0EIN@@@SAXXZ 00484f47 f   texture.obj
 0001:00084471       ?editvslot@@YAPAUVSlot@@ABU1@0@Z 00485471 f   texture.obj
 0001:000845cf       ?run@?$_icmd_fixinsidefaces@$0FGB@@@SAXPAH@Z 004855cf f   texture.obj
 0001:00084641       ?texture@@YAXPAD0PAH11PAM@Z 00485641 f   texture.obj
 0001:000848d6       ?autograss@@YAXPAD@Z       004858d6 f   texture.obj
 0001:00084930       ?texscroll@@YAXPAM0@Z      00485930 f   texture.obj
 0001:00084973       ?texoffset_@@YAXPAH0@Z     00485973 f   texture.obj
 0001:000849b8       ?texrotate_@@YAXPAH@Z      004859b8 f   texture.obj
 0001:000849f3       ?texscale@@YAXPAM@Z        004859f3 f   texture.obj
 0001:00084a2f       ?texlayer@@YAXPAHPAD0PAM@Z 00485a2f f   texture.obj
 0001:00084ac6       ?texalpha@@YAXPAM0@Z       00485ac6 f   texture.obj
 0001:00084b3b       ?texcolor@@YAXPAM00@Z      00485b3b f   texture.obj
 0001:00084be8       ?texffenv@@YAXPAH@Z        00485be8 f   texture.obj
 0001:000864ed       ?lookupmaterialslot@@YAAAUMSlot@@H_N@Z 004874ed f   texture.obj
 0001:00086525       ?lookupvslot@@YAAAUVSlot@@H_N@Z 00487525 f   texture.obj
 0001:00086589       ?linkslotshaders@@YAXXZ    00487589 f   texture.obj
 0001:00086613       ?loadthumbnail@@YAPAUTexture@@AAUSlot@@@Z 00487613 f   texture.obj
 0001:00086b0e       ?loadlayermasks@@YAXXZ     00487b0e f   texture.obj
 0001:00086bb3       ?forcecubemapload@@YAXI@Z  00487bb3 f   texture.obj
 0001:00086cd6       ?var_envmapsize@@YAXXZ     00487cd6 f   texture.obj
 0001:00086cdd       ?cubemaploadwildcard@@YAPAUTexture@@PAU1@PBD_N22@Z 00487cdd f   texture.obj
 0001:00087203       ?cubemapload@@YAPAUTexture@@PBD_N11@Z 00488203 f   texture.obj
 0001:00087316       ?clearenvmaps@@YAXXZ       00488316 f   texture.obj
 0001:0008736f       ?genenvmap@@YAIABUvec@@H@Z 0048836f f   texture.obj
 0001:0008755f       ?initenvmaps@@YAXXZ        0048855f f   texture.obj
 0001:0008766c       ?genenvmaps@@YAXXZ         0048866c f   texture.obj
 0001:00087737       ?closestenvmap@@YAGABUvec@@@Z 00488737 f   texture.obj
 0001:000877ae       ?closestenvmap@@YAGHHHHH@Z 004887ae f   texture.obj
 0001:0008781b       ?lookupenvmap@@YAIAAUSlot@@@Z 0048881b f   texture.obj
 0001:0008785a       ?lookupenvmap@@YAIG@Z      0048885a f   texture.obj
 0001:0008789e       ?cleanuptexture@@YAXPAUTexture@@@Z 0048889e f   texture.obj
 0001:000878d9       ?cleanuptextures@@YAXXZ    004888d9 f   texture.obj
 0001:0008796f       ?reloadtexture@@YA_NPBD@Z  0048896f f   texture.obj
 0001:0008799a       ?reloadtexture@@YA_NAAUTexture@@@Z 0048899a f   texture.obj
 0001:00087a7d       ?reloadtex@@YAXPAD@Z       00488a7d f   texture.obj
 0001:00087b23       ?reloadtextures@@YAXXZ     00488b23 f   texture.obj
 0001:00087b77       ?loaddds@@YA_NPBDAAUImageData@@@Z 00488b77 f   texture.obj
 0001:00087cdc       ?gendds@@YAXPAD0@Z         00488cdc f   texture.obj
 0001:00088055       ?writepngchunk@@YAXPAUstream@@PBDPAEI@Z 00489055 f   texture.obj
 0001:000880b3       ?savepng@@YAXPBDAAUImageData@@_N@Z 004890b3 f   texture.obj
 0001:0008839f       ?savetga@@YAXPBDAAUImageData@@_N@Z 0048939f f   texture.obj
 0001:00088603       ?guessimageformat@@YAHPBDH@Z 00489603 f   texture.obj
 0001:0008864f       ?saveimage@@YAXPBDHAAUImageData@@_N@Z 0048964f f   texture.obj
 0001:0008872f       ?loadimage@@YA_NPBDAAUImageData@@@Z 0048972f f   texture.obj
 0001:00088758       ?screenshot@@YAXPAD@Z      00489758 f   texture.obj
 0001:00088919       ?flipnormalmapy@@YAXPAD0@Z 00489919 f   texture.obj
 0001:00088a28       ?mergenormalmaps@@YAXPAD0@Z 00489a28 f   texture.obj
 0001:00088c6b       ?add@?$vector@PAUSlot@@@@QAEAAPAUSlot@@ABQAU2@@Z 00489c6b f i texture.obj
 0001:00088cb1       ??0?$hashtable@PADUTexture@@@@QAE@H@Z 00489cb1 f i texture.obj
 0001:00088d20       ?access@?$hashtable@PADUTexture@@@@QAEPAUTexture@@ABQAD@Z 00489d20 f i texture.obj
 0001:00088d6b       ??A?$hashtable@PADUTexture@@@@QAEAAUTexture@@ABQAD@Z 00489d6b f i texture.obj
 0001:00088dc3       ??1?$hashset@U?$hashtableentry@PADUTexture@@@@@@QAE@XZ 00489dc3 f i texture.obj
 0001:00088dfe       ?growbuf@?$vector@PAUSlot@@@@QAEXH@Z 00489dfe f i texture.obj
 0001:00088e62       ?growbuf@?$vector@Uenvmap@@@@QAEXH@Z 00489e62 f i texture.obj
 0001:00088ec4       ?insert@?$hashset@U?$hashtableentry@PADUTexture@@@@@@QAEPAUchain@1@I@Z 00489ec4 f i texture.obj
 0001:00088f73       ??$remove@PAD@?$hashset@U?$hashtableentry@PADUTexture@@@@@@QAE_NABQAD@Z 00489f73 f i texture.obj
 0001:00088ffb       ??$putbig@I@stream@@QAE_NI@Z 00489ffb f i texture.obj
 0001:0008901e       ??$endianswap@I@@YAII@Z    0048a01e f i texture.obj
 0001:00089042       ?cleanup@Slot@@QAEXXZ      0048a042 f i texture.obj
 0001:00089076       ?reset@Slot@@QAEXXZ        0048a076 f i texture.obj
 0001:000890e3       ??0Slot@@QAE@H@Z           0048a0e3 f i texture.obj
 0001:00089137       ??1Slot@@QAE@XZ            0048a137 f i texture.obj
 0001:0008917d       ??0MSlot@@QAE@XZ           0048a17d f i texture.obj
 0001:000891b8       ?wrap@ImageData@@QAEXPAUSDL_Surface@@@Z 0048a1b8 f i texture.obj
 0001:000891e9       ?calclevelsize@ImageData@@QBEHH@Z 0048a1e9 f i texture.obj
 0001:0008923d       ?replace@ImageData@@QAEXAAU1@@Z 0048a23d f i texture.obj
 0001:0008926d       ?var_waterfallrefract@@YAXXZ 0048a26d f   water.obj
 0001:0008926d       ?var_waterfade@@YAXXZ      0048a26d f   water.obj
 0001:0008926d       ?var_waterreflect@@YAXXZ   0048a26d f   water.obj
 0001:0008926d       ?var_waterenvmap@@YAXXZ    0048a26d f   water.obj
 0001:0008926d       ?var_waterrefract@@YAXXZ   0048a26d f   water.obj
 0001:00089bc9       ?rendervertwater@@YAXIHHHIE@Z 0048abc9 f   water.obj
 0001:0008a6c9       ?calcwatersubdiv@@YAIHHHI@Z 0048b6c9 f   water.obj
 0001:0008a7dc       ?renderwaterlod@@YAIHHHIE@Z 0048b7dc f   water.obj
 0001:0008a970       ?renderflatwater@@YAXHHHIIE@Z 0048b970 f   water.obj
 0001:0008b0fa       ?var_optmats@@YAXXZ        0048c0fa f   material.obj
 0001:0008b0fa       ?var_vertwater@@YAXXZ      0048c0fa f   water.obj
 0001:0008b0fa       ?var_filltjoints@@YAXXZ    0048c0fa f   octarender.obj
 0001:0008b0fa       ?var_vacubesize@@YAXXZ     0048c0fa f   octarender.obj
 0001:0008b0fa       ?var_vacubemin@@YAXXZ      0048c0fa f   octarender.obj
 0001:0008b0fa       ?var_vacubemax@@YAXXZ      0048c0fa f   octarender.obj
 0001:0008b0fa       ?var_vbosize@@YAXXZ        0048c0fa f   octarender.obj
 0001:0008b103       ?renderlava@@YAXABUmaterialsurface@@PAUTexture@@M@Z 0048c103 f   water.obj
 0001:0008b19f       ??0Reflection@@QAE@XZ      0048c19f f i water.obj
 0001:0008b1df       ?var_watercolour@@YAXXZ    0048c1df f   water.obj
 0001:0008b21a       ?var_waterfallcolour@@YAXXZ 0048c21a f   water.obj
 0001:0008b247       ?var_lavacolour@@YAXXZ     0048c247 f   water.obj
 0001:0008b282       ?setprojtexmatrix@@YAXAAUReflection@@_N@Z 0048c282 f   water.obj
 0001:0008b2c3       ?setuprefractTMUs@@YAXXZ   0048c2c3 f   water.obj
 0001:0008b354       ?setupreflectTMUs@@YAXXZ   0048c354 f   water.obj
 0001:0008b3c3       ?cleanupwaterTMUs@@YAX_N@Z 0048c3c3 f   water.obj
 0001:0008b43d       ??1Reflection@@QAE@XZ      0048c43d f i water.obj
 0001:0008b463       ?renderwaterff@@YAXXZ      0048c463 f   water.obj
 0001:0008ba17       ?preloadwatershaders@@YAX_N@Z 0048ca17 f   water.obj
 0001:0008bb39       ?renderwater@@YAXXZ        0048cb39 f   water.obj
 0001:0008c544       ?setupwaterfallrefract@@YAXII@Z 0048d544 f   water.obj
 0001:0008c598       ?cleanreflection@@YAXAAUReflection@@@Z 0048d598 f   water.obj
 0001:0008c5d2       ?cleanreflections@@YAXXZ   0048d5d2 f   water.obj
 0001:0008c62e       ?var_reflectsize@@YAXXZ    0048d62e f   water.obj
 0001:0008c633       ?genwatertex@@YAXAAI00_N@Z 0048d633 f   water.obj
 0001:0008c955       ?addwaterfallrefraction@@YAXAAUmaterialsurface@@@Z 0048d955 f   water.obj
 0001:0008c9a8       ?addreflection@@YAXAAUmaterialsurface@@@Z 0048d9a8 f   water.obj
 0001:0008cab0       ?queryreflection@@YAXAAUReflection@@_N@Z 0048dab0 f   water.obj
 0001:0008cc26       ?queryreflections@@YAXXZ   0048dc26 f   water.obj
 0001:0008cf0a       ?maskreflection@@YAXAAUReflection@@M_N1@Z 0048df0a f   water.obj
 0001:0008d773       ?drawreflections@@YAXXZ    0048e773 f   water.obj
 0001:0008dfb6       ?exchangestr@@YAPADPADPBD@Z 0048efb6 f   command.obj
 0001:0008dfd5       ?clear_command@@YAXXZ      0048efd5 f   command.obj
 0001:0008e085       ?clearoverride@@YAXAAUident@@@Z 0048f085 f   command.obj
 0001:0008e0fb       ?pushident@@YAXAAUident@@PAD@Z 0048f0fb f   command.obj
 0001:0008e13c       ?popident@@YAXAAUident@@@Z 0048f13c f   command.obj
 0001:0008e16d       ?newident@@YAPAUident@@PBD@Z 0048f16d f   command.obj
 0001:0008e206       ?push@@YAXPAD0@Z           0048f206 f   command.obj
 0001:0008e230       ?pop@@YAXPAD@Z             0048f230 f   command.obj
 0001:0008e249       ?resetvar@@YAXPAD@Z        0048f249 f   command.obj
 0001:0008e27b       ?aliasa@@YAXPBDPAD@Z       0048f27b f   command.obj
 0001:0008e382       ?alias@@YAXPBD0@Z          0048f382 f   command.obj
 0001:0008e3a2       ?variable@@YAHPBDHHHPAHP6AXXZH@Z 0048f3a2 f   command.obj
 0001:0008e44c       ?fvariable@@YAMPBDMMMPAMP6AXXZH@Z 0048f44c f   command.obj
 0001:0008e501       ?svariable@@YAPADPBD0PAPADP6AXXZH@Z 0048f501 f   command.obj
 0001:0008e5ac       ?setvar@@YAXPBDH_N1@Z      0048f5ac f   command.obj
 0001:0008e643       ?setfvar@@YAXPBDM_N1@Z     0048f643 f   command.obj
 0001:0008e6d6       ?setsvar@@YAXPBD0_N@Z      0048f6d6 f   command.obj
 0001:0008e771       ?identexists@@YA_NPBD@Z    0048f771 f   command.obj
 0001:0008e783       ?getalias@@YAPBDPBD@Z      0048f783 f   command.obj
 0001:0008e7a2       ?setvarchecked@@YAXPAUident@@H@Z 0048f7a2 f   command.obj
 0001:0008e890       ?setfvarchecked@@YAXPAUident@@M@Z 0048f890 f   command.obj
 0001:0008e99c       ?setsvarchecked@@YAXPAUident@@PBD@Z 0048f99c f   command.obj
 0001:0008ea5f       ?addcommand@@YA_NPBDP6AXXZ0@Z 0048fa5f f   command.obj
 0001:0008eaf6       ?addident@@YAXPBDPAUident@@@Z 0048faf6 f   command.obj
 0001:0008eb48       ?parsemacro@@YAXAAPBDHAAU?$vector@D@@@Z 0048fb48 f   command.obj
 0001:0008ec70       ?parsestring@@YAPBDPBD@Z   0048fc70 f   command.obj
 0001:0008ec94       ?escapestring@@YAHPADPBD1@Z 0048fc94 f   command.obj
 0001:0008ecd7       ?parseexp@@YAPADAAPBDH@Z   0048fcd7 f   command.obj
 0001:0008ef01       ?lookup@@YAPADPAD@Z        0048ff01 f   command.obj
 0001:0008ef79       ?parseword@@YAPADAAPBDHAAH@Z 0048ff79 f   command.obj
 0001:0008f080       ?conc@@YAPADPAPADH_N@Z     00490080 f   command.obj
 0001:0008f132       ?executeret@@YAPADPBD@Z    00490132 f   command.obj
 0001:0008f7fa       ?execute@@YAHPBD@Z         004907fa f   command.obj
 0001:0008f82e       ?execfile@@YA_NPBD_N@Z     0049082e f   command.obj
 0001:0008f8b5       ?writeescapedstring@@YAXPAUstream@@PBD@Z 004908b5 f   command.obj
 0001:0008f91e       ?writecfg@@YAXPBD@Z        0049091e f   command.obj
 0001:0008fb77       ?intstr@@YAPBDH@Z          00490b77 f   command.obj
 0001:0008fbc0       ?intret@@YAXH@Z            00490bc0 f   command.obj
 0001:0008fbe2       ?floatstr@@YAPBDM@Z        00490be2 f   command.obj
 0001:0008fc53       ?floatret@@YAXM@Z          00490c53 f   command.obj
 0001:0008fc79       ?run@?$_stdcmd@$0DDH@@@SAXPAD00@Z 00490c79 f   command.obj
 0001:0008fcb5       ?run@?$_stdcmd@$0DDI@@@SAXPAD00@Z 00490cb5 f   command.obj
 0001:0008fcec       ?run@?$_stdcmd@$0DEF@@@SAXPADPAH0@Z 00490cec f   command.obj
 0001:0008fd53       ?run@?$_stdcmd@$0DFD@@@SAXPADPAH00@Z 00490d53 f   command.obj
 0001:0008fdc8       ?run@?$_stdcmd@$0DFE@@@SAXPAD0@Z 00490dc8 f   command.obj
 0001:0008fdec       ?concat@@YAXPBD@Z          00490dec f   command.obj
 0001:0008fdec       ?result@@YAXPBD@Z          00490dec f   command.obj
 0001:0008fe06       ?concatword@@YAXPAPADPAH@Z 00490e06 f   command.obj
 0001:0008fe21       ?format@@YAXPAPADPAH@Z     00490e21 f   command.obj
 0001:0008fed0       ?explodelist@@YAXPBDAAU?$vector@PAD@@@Z 00490ed0 f   command.obj
 0001:0008ff62       ?indexlist@@YAPADPBDH@Z    00490f62 f   command.obj
 0001:0009000e       ?listlen@@YAHPBD@Z         0049100e f   command.obj
 0001:00090068       ?at@@YAXPADPAH@Z           00491068 f   command.obj
 0001:0009007e       ?substr@@YAXPADPAH0@Z      0049107e f   command.obj
 0001:000900e1       ?getalias_@@YAXPAD@Z       004910e1 f   command.obj
 0001:000900f3       ?run@?$_stdcmd@$0DLA@@@SAXPAD@Z 004910f3 f   command.obj
 0001:00090101       ?run@?$_stdcmd@$0DLH@@@SAXPAD@Z 00491101 f   command.obj
 0001:00090112       ?looplist@@YAXPBD00_N@Z    00491112 f   command.obj
 0001:00090216       ?prettylist@@YAXPBD0@Z     00491216 f   command.obj
 0001:0009037f       ?listincludes@@YAHPBD0H@Z  0049137f f   command.obj
 0001:00090418       ?listdel@@YAPADPBD0@Z      00491418 f   command.obj
 0001:0009052e       ?run@?$_stdcmd@$0EBI@@@SAXPAD0@Z 0049152e f   command.obj
 0001:00090542       ?run@?$_stdcmd@$0EBJ@@@SAXPAD0@Z 00491542 f   command.obj
 0001:00090563       ?run@?$_stdcmd@$0EBK@@@SAXPAD00@Z 00491563 f   command.obj
 0001:0009057a       ?run@?$_stdcmd@$0EBL@@@SAXPAD00@Z 0049157a f   command.obj
 0001:00090591       ?run@?$_stdcmd@$0ECN@@@SAXPAD000@Z 00491591 f   command.obj
 0001:00090665       ?run@?$_stdcmd@$0ECP@@@SAXPAH0@Z 00491665 f   command.obj
 0001:00090679       ?run@?$_stdcmd@$0EDA@@@SAXPAH0@Z 00491679 f   command.obj
 0001:0009068e       ?run@?$_stdcmd@$0EDB@@@SAXPAH0@Z 0049168e f   command.obj
 0001:000906a2       ?run@?$_stdcmd@$0EDC@@@SAXPAM0@Z 004916a2 f   command.obj
 0001:000906b9       ?run@?$_stdcmd@$0EDD@@@SAXPAM0@Z 004916b9 f   command.obj
 0001:000906d0       ?run@?$_stdcmd@$0EDE@@@SAXPAM0@Z 004916d0 f   command.obj
 0001:000906e7       ?run@?$_stdcmd@$0EDF@@@SAXPAH0@Z 004916e7 f   command.obj
 0001:00090700       ?run@?$_stdcmd@$0EDG@@@SAXPAH0@Z 00491700 f   command.obj
 0001:00090719       ?run@?$_stdcmd@$0EDH@@@SAXPAH0@Z 00491719 f   command.obj
 0001:00090732       ?run@?$_stdcmd@$0EDI@@@SAXPAH0@Z 00491732 f   command.obj
 0001:0009074b       ?run@?$_stdcmd@$0EDJ@@@SAXPAH0@Z 0049174b f   command.obj
 0001:00090764       ?run@?$_stdcmd@$0EDK@@@SAXPAH0@Z 00491764 f   command.obj
 0001:0009077d       ?run@?$_stdcmd@$0EDL@@@SAXPAM0@Z 0049177d f   command.obj
 0001:0009079f       ?run@?$_stdcmd@$0EDM@@@SAXPAM0@Z 0049179f f   command.obj
 0001:000907c1       ?run@?$_stdcmd@$0EDN@@@SAXPAM0@Z 004917c1 f   command.obj
 0001:000907e3       ?run@?$_stdcmd@$0EDO@@@SAXPAM0@Z 004917e3 f   command.obj
 0001:00090805       ?run@?$_stdcmd@$0EDP@@@SAXPAM0@Z 00491805 f   command.obj
 0001:00090827       ?run@?$_stdcmd@$0EEA@@@SAXPAM0@Z 00491827 f   command.obj
 0001:00090849       ?run@?$_stdcmd@$0EEB@@@SAXPAH0@Z 00491849 f   command.obj
 0001:0009085d       ?run@?$_stdcmd@$0EEC@@@SAXPAH@Z 0049185d f   command.obj
 0001:00090870       ?run@?$_stdcmd@$0EED@@@SAXPAH0@Z 00491870 f   command.obj
 0001:00090884       ?run@?$_stdcmd@$0EEE@@@SAXPAH0@Z 00491884 f   command.obj
 0001:00090898       ?run@?$_stdcmd@$0EEF@@@SAXPAH@Z 00491898 f   command.obj
 0001:000908a8       ?run@?$_stdcmd@$0EEG@@@SAXPAH0@Z 004918a8 f   command.obj
 0001:000908be       ?run@?$_stdcmd@$0EEH@@@SAXPAH0@Z 004918be f   command.obj
 0001:000908d4       ?run@?$_stdcmd@$0EEI@@@SAXPAH0@Z 004918d4 f   command.obj
 0001:000908ea       ?run@?$_stdcmd@$0EEJ@@@SAXPAH0@Z 004918ea f   command.obj
 0001:00090900       ?run@?$_stdcmd@$0EEK@@@SAXPAH0@Z 00491900 f   command.obj
 0001:00090916       ?run@?$_stdcmd@$0EFA@@@SAXPAPADPAH@Z 00491916 f   command.obj
 0001:00090945       ?run@?$_stdcmd@$0EFG@@@SAXPAPADPAH@Z 00491945 f   command.obj
 0001:00090973       ?run@?$_stdcmd@$0EFI@@@SAXPAH0@Z 00491973 f   command.obj
 0001:00090992       ?run@?$_stdcmd@$0EFJ@@@SAXPAH0@Z 00491992 f   command.obj
 0001:000909b1       ?run@?$_stdcmd@$0EFK@@@SAXPAM0@Z 004919b1 f   command.obj
 0001:000909d7       ?run@?$_stdcmd@$0EFL@@@SAXPAM0@Z 004919d7 f   command.obj
 0001:00090a0d       ?run@?$_stdcmd@$0EFM@@@SAXPAM@Z 00491a0d f   command.obj
 0001:00090a2e       ?run@?$_stdcmd@$0EFN@@@SAXPAM@Z 00491a2e f   command.obj
 0001:00090a4f       ?run@?$_stdcmd@$0EFO@@@SAXPAM@Z 00491a4f f   command.obj
 0001:00090a70       ?run@?$_stdcmd@$0EFP@@@SAXPAM@Z 00491a70 f   command.obj
 0001:00090a93       ?run@?$_stdcmd@$0EGA@@@SAXPAM@Z 00491a93 f   command.obj
 0001:00090ab6       ?run@?$_stdcmd@$0EGB@@@SAXPAM@Z 00491ab6 f   command.obj
 0001:00090ad9       ?run@?$_stdcmd@$0EGC@@@SAXPAM@Z 00491ad9 f   command.obj
 0001:00090af4       ?run@?$_stdcmd@$0EGD@@@SAXPAM0@Z 00491af4 f   command.obj
 0001:00090b19       ?run@?$_stdcmd@$0EGE@@@SAXPAM@Z 00491b19 f   command.obj
 0001:00090b34       ?run@?$_stdcmd@$0EGF@@@SAXPAM@Z 00491b34 f   command.obj
 0001:00090b57       ?run@?$_stdcmd@$0EGG@@@SAXPAM@Z 00491b57 f   command.obj
 0001:00090b72       ?run@?$_stdcmd@$0EGH@@@SAXPAM@Z 00491b72 f   command.obj
 0001:00090b8d       ?run@?$_stdcmd@$0EGN@@@SAXPAPADPAH@Z 00491b8d f   command.obj
 0001:00090bf4       ?run@?$_stdcmd@$0EHD@@@SAXPAPADPAH@Z 00491bf4 f   command.obj
 0001:00090c5b       ?run@?$_stdcmd@$0EHJ@@@SAXPAPADPAH@Z 00491c5b f   command.obj
 0001:00090cbb       ?run@?$_stdcmd@$0EHP@@@SAXPAPADPAH@Z 00491cbb f   command.obj
 0001:00090d1b       ?run@?$_stdcmd@$0EIL@@@SAXPAPADPAH@Z 00491d1b f   command.obj
 0001:00090d5b       ?run@?$_stdcmd@$0EJK@@@SAXPAHPAPAD0@Z 00491d5b f   command.obj
 0001:00090db5       ?run@?$_stdcmd@$0EJL@@@SAXPAMPAPADPAH@Z 00491db5 f   command.obj
 0001:00090e11       ?run@?$_stdcmd@$0EJM@@@SAXPADPAPADPAH@Z 00491e11 f   command.obj
 0001:00090e63       ?run@?$_stdcmd@$0EJO@@@SAXPAH0@Z 00491e63 f   command.obj
 0001:00090e96       ?run@?$_stdcmd@$0EJP@@@SAXPAD0@Z 00491e96 f   command.obj
 0001:00090e96       ?run@?$_stdcmd@$0EKA@@@SAXPAD0@Z 00491e96 f   command.obj
 0001:00090eb2       ?run@?$_stdcmd@$0EKB@@@SAXPAD0@Z 00491eb2 f   command.obj
 0001:00090ecf       ?run@?$_stdcmd@$0EKC@@@SAXPAD0@Z 00491ecf f   command.obj
 0001:00090eed       ?run@?$_stdcmd@$0EKD@@@SAXPAD0@Z 00491eed f   command.obj
 0001:00090f0b       ?run@?$_stdcmd@$0EKE@@@SAXPAD0@Z 00491f0b f   command.obj
 0001:00090f29       ?run@?$_stdcmd@$0EKF@@@SAXPAD0@Z 00491f29 f   command.obj
 0001:00090f47       ?run@?$_stdcmd@$0EKG@@@SAXPAD@Z 00491f47 f   command.obj
 0001:00090f58       ?run@?$_stdcmd@$0EKH@@@SAXPAD@Z 00491f58 f   command.obj
 0001:00090f66       ?run@?$_stdcmd@$0EKI@@@SAXPAD0@Z 00491f66 f   command.obj
 0001:00090f8a       ?run@?$_stdcmd@$0EKJ@@@SAXPAD@Z 00491f8a f   command.obj
 0001:00090f9c       ?strreplace@@YAPADPBD00@Z  00491f9c f   command.obj
 0001:00091062       ?run@?$_stdcmd@$0EMD@@@SAXPAD00@Z 00492062 f   command.obj
 0001:0009107b       ?run@?$_stdcmd@$0EMG@@@SAXPAH@Z 0049207b f   command.obj
 0001:00091096       ?addsleep@@YAXPAHPAD@Z     00492096 f   command.obj
 0001:00091103       ?checksleep@@YAXH@Z        00492103 f   command.obj
 0001:000911d0       ?clearsleep@@YAX_N@Z       004921d0 f   command.obj
 0001:00091244       ?clearsleep_@@YAXPAH@Z     00492244 f   command.obj
 0001:00091261       ??0?$hashtable@PBDUident@@@@QAE@H@Z 00492261 f i command.obj
 0001:000912c2       ?access@?$hashtable@PBDUident@@@@QAEPAUident@@ABQBD@Z 004922c2 f i command.obj
 0001:0009130c       ?access@?$hashtable@PBDUident@@@@QAEAAUident@@ABQBDABU2@@Z 0049230c f i command.obj
 0001:00091386       ?add@?$vector@PAU?$vector@D@@@@QAEAAPAU?$vector@D@@ABQAU2@@Z 00492386 f i command.obj
 0001:000913cc       ?remove@?$vector@Usleepcmd@@@@QAE?AUsleepcmd@@H@Z 004923cc f i command.obj
 0001:0009141c       ??1?$hashset@U?$hashtableentry@PBDUident@@@@@@QAE@XZ 0049241c f i command.obj
 0001:00091438       ?deletechunks@?$hashset@U?$hashtableentry@PBDUident@@@@@@QAEXXZ 00492438 f i command.obj
 0001:0009148c       ?growbuf@?$vector@PAU?$vector@D@@@@QAEXH@Z 0049248c f i command.obj
 0001:000914f0       ?growbuf@?$vector@Usleepcmd@@@@QAEXH@Z 004924f0 f i command.obj
 0001:00091552       ??1chain@?$hashset@U?$hashtableentry@PBDUident@@@@@@QAE@XZ 00492552 f i command.obj
 0001:00091577       ??1?$hashtableentry@PBDUident@@@@QAE@XZ 00492577 f i command.obj
 0001:0009159d       ?insert@?$hashset@U?$hashtableentry@PBDUident@@@@@@QAEPAUchain@1@I@Z 0049259d f i command.obj
 0001:00091642       ??0chain@?$hashset@U?$hashtableentry@PBDUident@@@@@@QAE@XZ 00492642 f i command.obj
 0001:00091669       ??1ident@@UAE@XZ           00492669 f i command.obj
 0001:00091670       ??_Eident@@UAEPAXI@Z       00492670 f i  CIL library: CIL module
 0001:00091670       ??_Gident@@UAEPAXI@Z       00492670 f i command.obj
 0001:0009168d       ?changed@ident@@UAEXXZ     0049268d f i command.obj
 0001:00091697       ?var_maxcon@@YAXXZ         00492697 f   console.obj
 0001:000916bf       ?conline@@YAXHPBD@Z        004926bf f   console.obj
 0001:00091731       ?conoutfv@@YAXHPBDPAD@Z    00492731 f   console.obj
 0001:00091775       ?conoutf@@YAXPBDZZ         00492775 f   console.obj
 0001:00091789       ?conoutf@@YAXHPBDZZ        00492789 f   console.obj
 0001:0009179f       ?run@?$_icmd_toggleconsole@$0DF@@@SAXXZ 0049279f f   console.obj
 0001:000917a7       ?rendercommand@@YAHHHH@Z   004927a7 f   console.obj
 0001:00091867       ?setconskip@@YAXAAHHH@Z    00492867 f   console.obj
 0001:000918db       ?run@?$_icmd_conskip@$0FP@@@SAXPAH@Z 004928db f   console.obj
 0001:00091904       ?run@?$_icmd_miniconskip@$0GA@@@SAXPAH@Z 00492904 f   console.obj
 0001:0009191f       ?run@?$_icmd_clearconsole@$0GC@@@SAXXZ 0049291f f   console.obj
 0001:00091948       ?drawconlines@@YAHHHHHHHHH@Z 00492948 f   console.obj
 0001:00091ac3       ?renderconsole@@YAHHHH@Z   00492ac3 f   console.obj
 0001:00091c52       ??1keym@@QAE@XZ            00492c52 f i console.obj
 0001:00091c87       ?keymap@@YAXPAHPAD@Z       00492c87 f   console.obj
 0001:00091d0c       ?searchbinds@@YAXPADH@Z    00492d0c f   console.obj
 0001:00091dfe       ?findbind@@YAPAUkeym@@PAD@Z 00492dfe f   console.obj
 0001:00091e44       ?getbind@@YAXPADH@Z        00492e44 f   console.obj
 0001:00091e69       ?bindkey@@YAXPAD0HPBD@Z    00492e69 f   console.obj
 0001:00091ef3       ?run@?$_icmd_bind@$0PE@@@SAXPAD0@Z 00492ef3 f   console.obj
 0001:00091f27       ?run@?$_icmd_specbind@$0PF@@@SAXPAD0@Z 00492f27 f   console.obj
 0001:00091f5b       ?run@?$_icmd_editbind@$0PG@@@SAXPAD0@Z 00492f5b f   console.obj
 0001:00091f8f       ?run@?$_icmd_getbind@$0PH@@@SAXPAD@Z 00492f8f f   console.obj
 0001:00091f9d       ?run@?$_icmd_getspecbind@$0PI@@@SAXPAD@Z 00492f9d f   console.obj
 0001:00091fab       ?run@?$_icmd_geteditbind@$0PJ@@@SAXPAD@Z 00492fab f   console.obj
 0001:00091fb9       ?run@?$_icmd_searchbinds@$0PK@@@SAXPAD@Z 00492fb9 f   console.obj
 0001:00091fc7       ?run@?$_icmd_searchspecbinds@$0PL@@@SAXPAD@Z 00492fc7 f   console.obj
 0001:00091fd5       ?run@?$_icmd_searcheditbinds@$0PM@@@SAXPAD@Z 00492fd5 f   console.obj
 0001:00091fe3       ?inputcommand@@YAXPAD00@Z  00492fe3 f   console.obj
 0001:000920bb       ?run@?$_icmd_saycommand@$0BAL@@@SAXPAD@Z 004930bb f   console.obj
 0001:000920cc       ?pasteconsole@@YAXXZ       004930cc f   console.obj
 0001:00092111       ?restore@hline@@QAEXXZ     00493111 f i console.obj
 0001:000921ab       ?shouldsave@hline@@QAE_NXZ 004931ab f i console.obj
 0001:00092216       ?save@hline@@QAEXXZ        00493216 f i console.obj
 0001:00092266       ?run@hline@@QAEXXZ         00493266 f i console.obj
 0001:0009229f       ?history_@@YAXPAH@Z        0049329f f   console.obj
 0001:000922dd       ?addreleaseaction@@YAPBDPBD@Z 004932dd f   console.obj
 0001:0009233b       ?onrelease@@YAXPAD@Z       0049333b f   console.obj
 0001:00092340       ?execbind@@YAXAAUkeym@@_N@Z 00493340 f   console.obj
 0001:00092412       ?consolekey@@YAXH_NH@Z     00493412 f   console.obj
 0001:00092852       ?keypress@@YAXH_NH@Z       00493852 f   console.obj
 0001:000928c6       ?writebinds@@YAXPAUstream@@@Z 004938c6 f   console.obj
 0001:00092a3a       ??0filesval@@QAE@HPBD0@Z   00493a3a f i console.obj
 0001:00092aa8       ?update@filesval@@QAEXXZ   00493aa8 f i console.obj
 0001:00092b59       ?addcomplete@@YAXPADH00@Z  00493b59 f   console.obj
 0001:00092ca1       ?addfilecomplete@@YAXPAD00@Z 00493ca1 f   console.obj
 0001:00092cb8       ?addlistcomplete@@YAXPAD0@Z 00493cb8 f   console.obj
 0001:00092ccd       ?complete@@YAXPAD@Z        00493ccd f   console.obj
 0001:00092f75       ?comparefiles@filesval@@SAHPAPAD0@Z 00493f75 f   console.obj
 0001:00092f89       ?writecompletions@@YAXPAUstream@@@Z 00493f89 f   console.obj
 0001:00093071       ?insert@?$vector@Ucline@@@@QAEAAUcline@@HABU2@@Z 00494071 f i console.obj
 0001:000930f3       ??0?$hashtable@HUkeym@@@@QAE@H@Z 004940f3 f i console.obj
 0001:00093162       ?access@?$hashtable@HUkeym@@@@QAEPAUkeym@@ABH@Z 00494162 f i console.obj
 0001:00093187       ??1?$hashset@U?$hashtableentry@HUkeym@@@@@@QAE@XZ 00494187 f i console.obj
 0001:000931a3       ?add@?$vector@PAUhline@@@@QAEAAPAUhline@@ABQAU2@@Z 004941a3 f i console.obj
 0001:000931e9       ??0?$hashtable@Ufileskey@@PAUfilesval@@@@QAE@H@Z 004941e9 f i console.obj
 0001:00093258       ?access@?$hashtable@Ufileskey@@PAUfilesval@@@@QAEPAPAUfilesval@@ABUfileskey@@@Z 00494258 f i console.obj
 0001:000932a0       ??A?$hashtable@Ufileskey@@PAUfilesval@@@@QAEAAPAUfilesval@@ABUfileskey@@@Z 004942a0 f i console.obj
 0001:000932fa       ??1?$hashset@U?$hashtableentry@Ufileskey@@PAUfilesval@@@@@@QAE@XZ 004942fa f i console.obj
 0001:00093335       ??0?$hashtable@PADPAUfilesval@@@@QAE@H@Z 00494335 f i console.obj
 0001:000933a4       ?access@?$hashtable@PADPAUfilesval@@@@QAEPAPAUfilesval@@ABQAD@Z 004943a4 f i console.obj
 0001:000933ef       ??A?$hashtable@PADPAUfilesval@@@@QAEAAPAUfilesval@@ABQAD@Z 004943ef f i console.obj
 0001:0009344f       ??1?$hashset@U?$hashtableentry@PADPAUfilesval@@@@@@QAE@XZ 0049444f f i console.obj
 0001:0009348a       ?deletechunks@?$hashset@U?$hashtableentry@HUkeym@@@@@@QAEXXZ 0049448a f i console.obj
 0001:000934dc       ?growbuf@?$vector@PAUhline@@@@QAEXH@Z 004944dc f i console.obj
 0001:00093540       ?growbuf@?$vector@Ureleaseaction@@@@QAEXH@Z 00494540 f i console.obj
 0001:000935a4       ??1chain@?$hashset@U?$hashtableentry@HUkeym@@@@@@QAE@XZ 004945a4 f i console.obj
 0001:000935c8       ??1?$hashtableentry@HUkeym@@@@QAE@XZ 004945c8 f i console.obj
 0001:000935ef       ?growbuf@?$vector@Ucline@@@@QAEXH@Z 004945ef f i console.obj
 0001:00093651       ?insert@?$hashset@U?$hashtableentry@HUkeym@@@@@@QAEPAUchain@1@I@Z 00494651 f i console.obj
 0001:0009370d       ?insert@?$hashset@U?$hashtableentry@Ufileskey@@PAUfilesval@@@@@@QAEPAUchain@1@I@Z 0049470d f i console.obj
 0001:000937a5       ?insert@?$hashset@U?$hashtableentry@PADPAUfilesval@@@@@@QAEPAUchain@1@I@Z 004947a5 f i console.obj
 0001:00093826       ??0chain@?$hashset@U?$hashtableentry@HUkeym@@@@@@QAE@XZ 00494826 f i console.obj
 0001:000938c6       ?cleanup@@YAXXZ            004948c6 f   main.obj
 0001:000939aa       ?quit@@YAXXZ               004949aa f   main.obj
 0001:000939e0       ?fatal@@YAXPBDZZ           004949e0 f   main.obj
 0001:00093a85       ?var_scr_w@@YAXXZ          00494a85 f   main.obj
 0001:00093a85       ?var_scr_h@@YAXXZ          00494a85 f   main.obj
 0001:00093a9c       ?var_colorbits@@YAXXZ      00494a9c f   main.obj
 0001:00093ab3       ?var_depthbits@@YAXXZ      00494ab3 f   main.obj
 0001:00093aca       ?var_stencilbits@@YAXXZ    00494aca f   main.obj
 0001:00093ae1       ?var_fsaa@@YAXXZ           00494ae1 f   main.obj
 0001:00093af8       ?var_vsync@@YAXXZ          00494af8 f   main.obj
 0001:00093b0f       ?writeinitcfg@@YAXXZ       00494b0f f   main.obj
 0001:00093cc4       ?restorebackground@@YAXXZ  00494cc4 f   main.obj
 0001:00093d08       ?renderbackground@@YAXPBDPAUTexture@@00_N2@Z 00494d08 f   main.obj
 0001:0009495a       ?renderprogress@@YAXMPBDI_N@Z 0049595a f   main.obj
 0001:00094c86       ?keyrepeat@@YAX_N@Z        00495c86 f   main.obj
 0001:00094c9d       ?inputgrab@@YAX_N@Z        00495c9d f   main.obj
 0001:00094cbe       ?var_fullscreen@@YAXXZ     00495cbe f   main.obj
 0001:00094cec       ?screenres@@YAXPAH0@Z      00495cec f   main.obj
 0001:00094d4b       ?var_gamma@@YAXXZ          00495d4b f   main.obj
 0001:00094d94       ?resetgamma@@YAXXZ         00495d94 f   main.obj
 0001:00094de2       ?setupscreen@@YAXAAH00@Z   00495de2 f   main.obj
 0001:000953b6       ?resetgl@@YAXXZ            004963b6 f   main.obj
 0001:000955ec       ?interceptkey@@YA_NH@Z     004965ec f   main.obj
 0001:00095726       ?checkinput@@YAXXZ         00496726 f   main.obj
 0001:0009588d       ?swapbuffers@@YAXXZ        0049688d f   main.obj
 0001:000958a3       ?var_gamespeed@@YAXXZ      004968a3 f   main.obj
 0001:000958ba       ?var_paused@@YAXXZ         004968ba f   main.obj
 0001:000958ce       ?limitfps@@YAXAAHH@Z       004968ce f   main.obj
 0001:00095940       ?stackdumper@@YAXIPAU_EXCEPTION_POINTERS@@@Z 00496940 f   main.obj
 0001:00095b34       ?getfps@@YAXAAH00@Z        00496b34 f   main.obj
 0001:00095b97       ?getfps_@@YAXPAH@Z         00496b97 f   main.obj
 0001:00095c19       ?var_clockfix@@YAXXZ       00496c19 f   main.obj
 0001:00095c19       ?var_clockerror@@YAXXZ     00496c19 f   main.obj
 0001:00095c2e       _SDL_main                  00496c2e f   main.obj
 0001:000964c6       ?add@?$vector@TSDL_Event@@@@QAEAATSDL_Event@@ABT2@@Z 004974c6 f i main.obj
 0001:00096510       ?remove@?$vector@TSDL_Event@@@@QAE?ATSDL_Event@@H@Z 00497510 f i main.obj
 0001:00096560       ?growbuf@?$vector@TSDL_Event@@@@QAEXH@Z 00497560 f i main.obj
 0001:000965c2       ??0menu@@QAE@XZ            004975c2 f i menus.obj
 0001:000965fe       ?gui@menu@@UAEXAAUg3d_gui@@_N@Z 004975fe f i menus.obj
 0001:00096661       ?clear@menu@@UAEXXZ        00497661 f i menus.obj
 0001:00096678       ??_Gmenu@@UAEPAXI@Z        00497678 f i menus.obj
 0001:00096678       ??_Emenu@@UAEPAXI@Z        00497678 f i  CIL library: CIL module
 0001:00096695       ??1menu@@UAE@XZ            00497695 f i menus.obj
 0001:000966ba       ?schedule@delayedupdate@@QAEXPBD@Z 004976ba f i menus.obj
 0001:000966da       ?getstring@delayedupdate@@QBEPBDXZ 004976da f i menus.obj
 0001:00096717       ?run@delayedupdate@@QAEXXZ 00497717 f i menus.obj
 0001:000967e3       ?menuinfrontofplayer@@YA?AUvec@@XZ 004977e3 f   menus.obj
 0001:0009684b       ?popgui@@YAXXZ             0049784b f   menus.obj
 0001:00096864       ?pushgui@@YAXPAUmenu@@H@Z  00497864 f   menus.obj
 0001:000968d5       ?restoregui@@YAXH@Z        004978d5 f   menus.obj
 0001:00096904       ?showgui@@YAXPBD@Z         00497904 f   menus.obj
 0001:0009694c       ?cleargui@@YAHH@Z          0049794c f   menus.obj
 0001:000969c4       ?guionclear@@YAXPAD@Z      004979c4 f   menus.obj
 0001:00096a08       ?guistayopen@@YAXPAD@Z     00497a08 f   menus.obj
 0001:00096a28       ?guinoautotab@@YAXPAD@Z    00497a28 f   menus.obj
 0001:00096a51       ?guibutton@@YAXPAD00@Z     00497a51 f   menus.obj
 0001:00096b06       ?guiimage@@YAXPAD0PAMPAH0@Z 00497b06 f   menus.obj
 0001:00096bc0       ?guicolor@@YAXPAH@Z        00497bc0 f   menus.obj
 0001:00096c09       ?guitextbox@@YAXPADPAH11@Z 00497c09 f   menus.obj
 0001:00096c5b       ?guitext@@YAXPAD0@Z        00497c5b f   menus.obj
 0001:00096cb3       ?guititle@@YAXPAD@Z        00497cb3 f   menus.obj
 0001:00096cce       ?guitab@@YAXPAD@Z          00497cce f   menus.obj
 0001:00096ce7       ?guibar@@YAXXZ             00497ce7 f   menus.obj
 0001:00096cf7       ?guistrut@@YAXPAMPAH@Z     00497cf7 f   menus.obj
 0001:00096e34       ?guislider@@YAXPADPAH10@Z  00497e34 f   menus.obj
 0001:00096ee0       ?guilistslider@@YAXPAD00@Z 00497ee0 f   menus.obj
 0001:00096ffd       ?guinameslider@@YAXPAD000@Z 00497ffd f   menus.obj
 0001:00097110       ?guicheckbox@@YAXPAD0PAM10@Z 00498110 f   menus.obj
 0001:00097199       ?guiradio@@YAXPAD0PAM0@Z   00498199 f   menus.obj
 0001:000971ff       ?guibitfield@@YAXPAD0PAH0@Z 004981ff f   menus.obj
 0001:00097262       ?guifield@@YAXPADPAH0@Z    00498262 f   menus.obj
 0001:000972b7       ?guieditor@@YAXPADPAH11@Z  004982b7 f   menus.obj
 0001:000972fa       ?guikeyfield@@YAXPADPAH0@Z 004982fa f   menus.obj
 0001:0009734f       ?guilist@@YAXPAD@Z         0049834f f   menus.obj
 0001:00097376       ?guialign@@YAXPAHPAD@Z     00498376 f   menus.obj
 0001:000973b2       ?newgui@@YAXPAD00@Z        004983b2 f   menus.obj
 0001:00097448       ?guiservers@@YAXXZ         00498448 f   menus.obj
 0001:0009747a       ?run@?$_icmd_cleargui@$0BPH@@@SAXPAH@Z 0049847a f   menus.obj
 0001:0009748d       ?gui@applymenu@@UAEXAAUg3d_gui@@_N@Z 0049848d f i menus.obj
 0001:000975a3       ?clear@applymenu@@UAEXXZ   004985a3 f i menus.obj
 0001:000975b9       ??1applymenu@@UAE@XZ       004985b9 f i menus.obj
 0001:000975dd       ??_Eapplymenu@@UAEPAXI@Z   004985dd f i  CIL library: CIL module
 0001:000975dd       ??_Gapplymenu@@UAEPAXI@Z   004985dd f i menus.obj
 0001:000975fa       ?addchange@@YAXPBDH@Z      004985fa f   menus.obj
 0001:0009770e       ?clearchanges@@YAXH@Z      0049870e f   menus.obj
 0001:000977bd       ?menuprocess@@YAXXZ        004987bd f   menus.obj
 0001:00097889       ?clearmainmenu@@YAXXZ      00498889 f   menus.obj
 0001:000978be       ?g3d_mainmenu@@YAXXZ       004988be f   menus.obj
 0001:0009792b       ??0?$hashtable@PBDUmenu@@@@QAE@H@Z 0049892b f i menus.obj
 0001:0009799a       ?access@?$hashtable@PBDUmenu@@@@QAEPAUmenu@@ABQBD@Z 0049899a f i menus.obj
 0001:000979e4       ??A?$hashtable@PBDUmenu@@@@QAEAAUmenu@@ABQBD@Z 004989e4 f i menus.obj
 0001:00097a3b       ??1?$hashset@U?$hashtableentry@PBDUmenu@@@@@@QAE@XZ 00498a3b f i menus.obj
 0001:00097aa4       ?add@?$vector@PAUmenu@@@@QAEAAPAUmenu@@ABQAU2@@Z 00498aa4 f i menus.obj
 0001:00097aea       ?insert@?$vector@PAUmenu@@@@QAEAAPAUmenu@@HABQAU2@@Z 00498aea f i menus.obj
 0001:00097b34       ?add@?$vector@Udelayedupdate@@@@QAEAAUdelayedupdate@@XZ 00498b34 f i menus.obj
 0001:00097b99       ?shrink@?$vector@Udelayedupdate@@@@QAEXH@Z 00498b99 f i menus.obj
 0001:00097bd6       ?growbuf@?$vector@PAUmenu@@@@QAEXH@Z 00498bd6 f i menus.obj
 0001:00097c3a       ?growbuf@?$vector@Udelayedupdate@@@@QAEXH@Z 00498c3a f i menus.obj
 0001:00097c9c       ??1chain@?$hashset@U?$hashtableentry@PBDUmenu@@@@@@QAE@XZ 00498c9c f i menus.obj
 0001:00097cc0       ??1?$hashtableentry@PBDUmenu@@@@QAE@XZ 00498cc0 f i menus.obj
 0001:00097ce8       ?insert@?$hashset@U?$hashtableentry@PBDUmenu@@@@@@QAEPAUchain@1@I@Z 00498ce8 f i menus.obj
 0001:00097da4       ??0chain@?$hashset@U?$hashtableentry@PBDUmenu@@@@@@QAE@XZ 00498da4 f i menus.obj
 0001:00097ecc       ?startchunk@aviwriter@@QAEXPBD@Z 00498ecc f i movie.obj
 0001:00097f0a       ?endchunk@aviwriter@@QAEXXZ 00498f0a f i movie.obj
 0001:00097f5c       ?writechunk@aviwriter@@QAEXPBDPBXI@Z 00498f5c f i movie.obj
 0001:00097f95       ?close@aviwriter@@QAEXXZ   00498f95 f i movie.obj
 0001:000980e5       ??0aviwriter@@QAE@PBDIII_N@Z 004990e5 f i movie.obj
 0001:00098243       ?open@aviwriter@@QAE_NXZ   00499243 f i movie.obj
 0001:0009876f       ?boxsample@aviwriter@@SAXPBEIIIIIIIIAAI11@Z 0049976f f i movie.obj
 0001:00098944       ?scaleyuv@aviwriter@@QAEXPBEII@Z 00499944 f i movie.obj
 0001:00098d6b       ?encodeyuv@aviwriter@@QAEXPBE@Z 00499d6b f i movie.obj
 0001:00098fbf       ?compressyuv@aviwriter@@QAEXPBE@Z 00499fbf f i movie.obj
 0001:00099102       ?writesound@aviwriter@@QAEXPAEI@Z 0049a102 f i movie.obj
 0001:000991e4       ?writevideoframe@aviwriter@@QAE_NPBEIIHI@Z 0049a1e4 f i movie.obj
 0001:000993c0       ??0soundbuffer@recorder@@QAE@XZ 0049a3c0 f i movie.obj
 0001:000993ca       ??1soundbuffer@recorder@@QAE@XZ 0049a3ca f i movie.obj
 0001:000993e3       ??1tag@vertmodel@@QAE@XZ   0049a3e3 f i rendermodel.obj
 0001:000993e3       ??1boneinfo@skelmodel@@QAE@XZ 0049a3e3 f i rendermodel.obj
 0001:000993e3       ??1videobuffer@recorder@@QAE@XZ 0049a3e3 f i movie.obj
 0001:000993f8       ?init@videobuffer@recorder@@QAEXHHH@Z 0049a3f8 f i movie.obj
 0001:0009942d       ?videoencoder@recorder@@YAHPAX@Z 0049a42d f   movie.obj
 0001:0009960e       ?soundencoder@recorder@@YAXPAXPAEH@Z 0049a60e f   movie.obj
 0001:000996d4       ?start@recorder@@YAXPBDHHH_N@Z 0049a6d4 f   movie.obj
 0001:000998fd       ??_Gaviwriter@@QAEPAXI@Z   0049a8fd f i movie.obj
 0001:0009995e       ?cleanup@recorder@@YAXXZ   0049a95e f   movie.obj
 0001:000999ec       ?stop@recorder@@YAXXZ      0049a9ec f   movie.obj
 0001:00099b1f       ?readbuffer@recorder@@YAXAAUvideobuffer@1@I@Z 0049ab1f f   movie.obj
 0001:0009a2ca       ?readbuffer@recorder@@YA_NXZ 0049b2ca f   movie.obj
 0001:0009a3c2       ?drawhud@recorder@@YAXXZ   0049b3c2 f   movie.obj
 0001:0009a5ce       ?movie@@YAXPAD@Z           0049b5ce f   movie.obj
 0001:0009a622       ?reset@soundchannel@@QAEXXZ 0049b622 f i sound.obj
 0001:0009a65f       ?newchannel@@YAAAUsoundchannel@@HPAUsoundslot@@PBUvec@@PAUextentity@@H@Z 0049b65f f   sound.obj
 0001:0009a773       ?freechannel@@YAXH@Z       0049b773 f   sound.obj
 0001:0009a7a3       ?syncchannel@@YAXAAUsoundchannel@@@Z 0049b7a3 f   sound.obj
 0001:0009a7de       ?var_soundvol@@YAXXZ       0049b7de f   sound.obj
 0001:0009a7f4       ?var_musicvol@@YAXXZ       0049b7f4 f   sound.obj
 0001:0009a808       ?setmusicvol@@YAXH@Z       0049b808 f   sound.obj
 0001:0009a82d       ?stopmusic@@YAXXZ          0049b82d f   sound.obj
 0001:0009a8b1       ?var_soundfreq@@YAXXZ      0049b8b1 f   sound.obj
 0001:0009a8b1       ?var_soundchans@@YAXXZ     0049b8b1 f   sound.obj
 0001:0009a8b1       ?var_soundbufferlen@@YAXXZ 0049b8b1 f   sound.obj
 0001:0009a8c8       ?initsound@@YAXXZ          0049b8c8 f   sound.obj
 0001:0009a92e       ?musicdone@@YAXXZ          0049b92e f   sound.obj
 0001:0009a9b5       ?loadmusic@@YAPAU_Mix_Music@@PBD@Z 0049b9b5 f   sound.obj
 0001:0009aa70       ?startmusic@@YAXPAD0@Z     0049ba70 f   sound.obj
 0001:0009aba6       ?addsound@@YAHPBDHHAAU?$vector@Usoundslot@@@@@Z 0049bba6 f   sound.obj
 0001:0009acd4       ?registersound@@YAXPADPAH@Z 0049bcd4 f   sound.obj
 0001:0009acf4       ?mapsound@@YAXPADPAH1@Z    0049bcf4 f   sound.obj
 0001:0009ad29       ?resetchannels@@YAXXZ      0049bd29 f   sound.obj
 0001:0009ad65       ?stopmapsound@@YAXPAUextentity@@@Z 0049bd65 f   sound.obj
 0001:0009ada6       ?checkmapsounds@@YAXXZ     0049bda6 f   sound.obj
 0001:0009ae23       ?updatechannel@@YA_NAAUsoundchannel@@@Z 0049be23 f   sound.obj
 0001:0009af99       ?updatesounds@@YAXXZ       0049bf99 f   sound.obj
 0001:0009b0ce       ?playsound@@YAHHPBUvec@@PAUextentity@@HHHHH@Z 0049c0ce f   sound.obj
 0001:0009b450       ?stopchannels@@YAXXZ       0049c450 f   sound.obj
 0001:0009b450       ?stopsounds@@YAXXZ         0049c450 f   sound.obj
 0001:0009b487       ?stopsound@@YA_NHHH@Z      0049c487 f   sound.obj
 0001:0009b506       ?sound@@YAXPAH@Z           0049c506 f   sound.obj
 0001:0009b520       ?resetsound@@YAXXZ         0049c520 f   sound.obj
 0001:0009b6a0       ?var_mumble@@YAXXZ         0049c6a0 f   sound.obj
 0001:0009b6b3       ?initmumble@@YAXXZ         0049c6b3 f   sound.obj
 0001:0009b733       ?closemumble@@YAXXZ        0049c733 f   sound.obj
 0001:0009b79b       ?updatemumble@@YAXXZ       0049c79b f   sound.obj
 0001:0009b87c       ??0?$hashtable@PBDUsoundsample@@@@QAE@H@Z 0049c87c f i sound.obj
 0001:0009b8eb       ??A?$hashtable@PBDUsoundsample@@@@QAEAAUsoundsample@@ABQBD@Z 0049c8eb f i sound.obj
 0001:0009b942       ??1?$hashset@U?$hashtableentry@PBDUsoundsample@@@@@@QAE@XZ 0049c942 f i sound.obj
 0001:0009b966       ?clear@?$hashset@U?$hashtableentry@PBDUsoundsample@@@@@@QAEXXZ 0049c966 f i sound.obj
 0001:0009b98e       ?deletechunks@?$hashset@U?$hashtableentry@PBDUsoundsample@@@@@@QAEXXZ 0049c98e f i sound.obj
 0001:0009b9e2       ??1chain@?$hashset@U?$hashtableentry@PBDUzipfile@@@@@@QAE@XZ 0049c9e2 f i zip.obj
 0001:0009b9e2       ??1chain@?$hashset@U?$hashtableentry@PBDUsoundsample@@@@@@QAE@XZ 0049c9e2 f i sound.obj
 0001:0009ba06       ??1?$hashtableentry@PBDUzipfile@@@@QAE@XZ 0049ca06 f i zip.obj
 0001:0009ba06       ??1?$hashtableentry@PBDUsoundsample@@@@QAE@XZ 0049ca06 f i sound.obj
 0001:0009ba39       ?insert@?$hashset@U?$hashtableentry@PBDUsoundsample@@@@@@QAEPAUchain@1@I@Z 0049ca39 f i sound.obj
 0001:0009baf5       ??0chain@?$hashset@U?$hashtableentry@PBDUsoundsample@@@@@@QAE@XZ 0049caf5 f i sound.obj
 0001:0009bb19       ?compress@tiger@@YAXPB_KQA_K@Z 0049cb19 f   crypto.obj
 0001:0009c5f4       ?gensboxes@tiger@@YAXXZ    0049d5f4 f   crypto.obj
 0001:0009c6ee       ?hash@tiger@@YAXPBEHAAThashval@1@@Z 0049d6ee f   crypto.obj
 0001:0009c7e6       ?invert@gfield@@QAE_NABU1@@Z 0049d7e6 f i crypto.obj
 0001:0009c9ef       ?sqrt@gfield@@QAE_NABU1@@Z 0049d9ef f i crypto.obj
 0001:0009caa0       ?mul2@ecjacobian@@QAEXXZ   0049daa0 f i crypto.obj
 0001:0009cbb8       ?add@ecjacobian@@QAEXABU1@@Z 0049dbb8 f i crypto.obj
 0001:0009cdc7       ?normalize@ecjacobian@@QAEXXZ 0049ddc7 f i crypto.obj
 0001:0009ce44       ?calcy@ecjacobian@@QAE_N_N@Z 0049de44 f i crypto.obj
 0001:0009cebf       ?print@ecjacobian@@QAEXAAU?$vector@D@@@Z 0049debf f i crypto.obj
 0001:0009cefb       ?parse@ecjacobian@@QAEXPBD@Z 0049defb f i crypto.obj
 0001:0009cf55       ?genprivkey@@YAXPBDAAU?$vector@D@@1@Z 0049df55 f   crypto.obj
 0001:0009d06c       ?answerchallenge@@YAXPBD0AAU?$vector@D@@@Z 0049e06c f   crypto.obj
 0001:0009d0dd       ?printdigits@?$bigint@$0N@@@QBEXAAU?$vector@D@@@Z 0049e0dd f i crypto.obj
 0001:0009d13a       ?hasbit@?$bigint@$0N@@@QBE_NH@Z 0049e13a f i crypto.obj
 0001:0009d168       ?shrink@?$bigint@$0N@@@QAEXXZ 0049e168 f i crypto.obj
 0001:0009d17f       ?parsedigits@?$bigint@$0N@@@SAHPAGHPBD@Z 0049e17f f i crypto.obj
 0001:0009d227       ??$?M$0N@@?$bigint@$0N@@@QBE_NABU0@@Z 0049e227 f i crypto.obj
 0001:0009d268       ??$sub@$0N@$0N@@?$bigint@$0N@@@QAEAAU0@ABU0@0@Z 0049e268 f i crypto.obj
 0001:0009d302       ??$legendre@$0N@@gfield@@SAHABU?$bigint@$0N@@@@Z 0049e302 f i crypto.obj
 0001:0009d397       ??$pow@$0N@$0N@@gfield@@QAEAAU0@ABU?$bigint@$0N@@@0@Z 0049e397 f i crypto.obj
 0001:0009d41d       ??$sub@$0N@$0N@@gfield@@QAEAAU0@ABU?$bigint@$0N@@@0@Z 0049e41d f i crypto.obj
 0001:0009d45a       ??$mul@$0N@$0N@@gfield@@QAEAAU0@ABU?$bigint@$0N@@@0@Z 0049e45a f i crypto.obj
 0001:0009d47e       ??$add@$0N@$0N@@gfield@@QAEAAU0@ABU?$bigint@$0N@@@0@Z 0049e47e f i crypto.obj
 0001:0009d4a6       ??$mul@$0N@@ecjacobian@@QAEXU?$bigint@$0N@@@@Z 0049e4a6 f i crypto.obj
 0001:0009d507       ??$rshift@$0N@@?$bigint@$0N@@@QAEAAU0@ABU0@H@Z 0049e507 f i crypto.obj
 0001:0009d5ce       ?numbits@?$bigint@$0N@@@QBEHXZ 0049e5ce f i crypto.obj
 0001:0009d601       ??$add@$0N@$0N@@?$bigint@$0N@@@QAEAAU0@ABU0@0@Z 0049e601 f i crypto.obj
 0001:0009d601       ??$add@$0N@$00@?$bigint@$0N@@@QAEAAU0@ABU0@ABU?$bigint@$00@@@Z 0049e601 f i crypto.obj
 0001:0009d6a6       ??$mul@$0N@$0N@@?$bigint@$0BK@@@QAEAAU0@ABU?$bigint@$0N@@@0@Z 0049e6a6 f i crypto.obj
 0001:0009d76f       ??$reduce@$0BK@@gfield@@QAEXABU?$bigint@$0BK@@@@Z 0049e76f f i crypto.obj
 0001:0009d937       ??$mul@$0M@@ecjacobian@@QAEXABU0@U?$bigint@$0M@@@@Z 0049e937 f i crypto.obj
 0001:0009d9c6       ??$sub@$0N@$00@?$bigint@$0N@@@QAEAAU0@ABU0@ABU?$bigint@$00@@@Z 0049e9c6 f i crypto.obj
 0001:0009dacf       ?adjoint@glmatrixf@@QAEXABU1@@Z 0049eacf f   geom.obj
 0001:0009dfab       ?invert@glmatrixf@@QAE_NABU1@M@Z 0049efab f   geom.obj
 0001:0009e02a       ?rayrectintersect@@YA_NABUvec@@000AAMAAH@Z 0049f02a f   geom.obj
 0001:0009e15f       ?linecylinderintersect@@YA_NABUvec@@000MAAM@Z 0049f15f f   geom.obj
 0001:0009e421       ?makerelpath@@YAPADPBD000@Z 0049f421 f   stream.obj
 0001:0009e501       ?path@@YAPADPAD@Z          0049f501 f   stream.obj
 0001:0009e5d3       ?path@@YAPADPBD_N@Z        0049f5d3 f   stream.obj
 0001:0009e5fc       ?parentdir@@YAPBDPBD@Z     0049f5fc f   stream.obj
 0001:0009e63d       ?fileexists@@YA_NPBD0@Z    0049f63d f   stream.obj
 0001:0009e66c       ?createdir@@YA_NPBD@Z      0049f66c f   stream.obj
 0001:0009e6a9       ?fixpackagedir@@YAIPAD@Z   0049f6a9 f   stream.obj
 0001:0009e6cc       ?sethomedir@@YAXPBD@Z      0049f6cc f   stream.obj
 0001:0009e71e       ?addpackagedir@@YAXPBD@Z   0049f71e f   stream.obj
 0001:0009e780       ?findfile@@YAPBDPBD0@Z     0049f780 f   stream.obj
 0001:0009e8a3       ?listdir@@YA_NPBD0AAU?$vector@PAD@@@Z 0049f8a3 f   stream.obj
 0001:0009e951       ?listfiles@@YAHPBD0AAU?$vector@PAD@@@Z 0049f951 f   stream.obj
 0001:0009ea98       ?rwops@stream@@QAEPAUSDL_RWops@@XZ 0049fa98 f   stream.obj
 0001:0009eac6       ?size@stream@@UAEJXZ       0049fac6 f   stream.obj
 0001:0009eb10       ?getline@stream@@UAE_NPADH@Z 0049fb10 f   stream.obj
 0001:0009eb71       ??0filestream@@QAE@XZ      0049fb71 f i stream.obj
 0001:0009eba4       ?close@filestream@@UAEXXZ  0049fba4 f i stream.obj
 0001:0009ebbb       ?end@filestream@@UAE_NXZ   0049fbbb f i stream.obj
 0001:0009ebcb       ?tell@filestream@@UAEJXZ   0049fbcb f i stream.obj
 0001:0009ebd5       ?seek@filestream@@UAE_NJH@Z 0049fbd5 f i stream.obj
 0001:0009ebf4       ?read@filestream@@UAEHPAXH@Z 0049fbf4 f i stream.obj
 0001:0009ec0c       ?write@filestream@@UAEHPBXH@Z 0049fc0c f i stream.obj
 0001:0009ec24       ?getchar@filestream@@UAEHXZ 0049fc24 f i stream.obj
 0001:0009ec2e       ?putchar@filestream@@UAE_NH@Z 0049fc2e f i stream.obj
 0001:0009ec49       ?getline@filestream@@UAE_NPADH@Z 0049fc49 f i stream.obj
 0001:0009ec65       ?putstring@filestream@@UAE_NPBD@Z 0049fc65 f i stream.obj
 0001:0009ec80       ?printf@filestream@@UAAHPBDZZ 0049fc80 f i stream.obj
 0001:0009ec99       ??_Gfilestream@@UAEPAXI@Z  0049fc99 f i stream.obj
 0001:0009ec99       ??_Efilestream@@UAEPAXI@Z  0049fc99 f i  CIL library: CIL module
 0001:0009ece1       ??0gzstream@@QAE@XZ        0049fce1 f i stream.obj
 0001:0009ed3b       ?readbuf@gzstream@@QAEXH@Z 0049fd3b f i stream.obj
 0001:0009ed7c       ?readbyte@gzstream@@QAEHH@Z 0049fd7c f i stream.obj
 0001:0009eda7       ?skipbytes@gzstream@@QAEXH@Z 0049fda7 f i stream.obj
 0001:0009eddc       ?checkheader@gzstream@@QAE_NXZ 0049fddc f i stream.obj
 0001:0009eeca       ?open@gzstream@@QAE_NPAUstream@@PBD_NH@Z 0049feca f i stream.obj
 0001:0009efd3       ?getcrc@gzstream@@UAEIXZ   0049ffd3 f i stream.obj
 0001:0009efd7       ?finishreading@gzstream@@QAEXXZ 0049ffd7 f i stream.obj
 0001:0009f067       ?stopreading@gzstream@@QAEXXZ 004a0067 f i stream.obj
 0001:0009f07d       ?finishwriting@gzstream@@QAEXXZ 004a007d f i stream.obj
 0001:0009f0fb       ?close@gzstream@@UAEXXZ    004a00fb f i stream.obj
 0001:0009f15a       ?end@gzstream@@UAE_NXZ     004a015a f i stream.obj
 0001:0009f168       ?tell@gzstream@@UAEJXZ     004a0168 f i stream.obj
 0001:0009f180       ?seek@gzstream@@UAE_NJH@Z  004a0180 f i stream.obj
 0001:0009f25c       ?read@gzstream@@UAEHPAXH@Z 004a025c f i stream.obj
 0001:0009f309       ?flush@gzstream@@QAE_NXZ   004a0309 f i stream.obj
 0001:0009f348       ?write@gzstream@@UAEHPBXH@Z 004a0348 f i stream.obj
 0001:0009f3cb       ??_Ggzstream@@UAEPAXI@Z    004a03cb f i stream.obj
 0001:0009f3cb       ??_Egzstream@@UAEPAXI@Z    004a03cb f i  CIL library: CIL module
 0001:0009f413       ?openrawfile@@YAPAUstream@@PBD0@Z 004a0413 f   stream.obj
 0001:0009f48f       ?openfile@@YAPAUstream@@PBD0@Z 004a048f f   stream.obj
 0001:0009f4b3       ?opentempfile@@YAPAUstream@@PBD0@Z 004a04b3 f   stream.obj
 0001:0009f534       ?opengzfile@@YAPAUstream@@PBD0PAU1@H@Z 004a0534 f   stream.obj
 0001:0009f5b6       ?loadfile@@YAPADPBDPAH@Z   004a05b6 f   stream.obj
 0001:0009f626       ??_Gstream@@UAEPAXI@Z      004a0626 f i stream.obj
 0001:0009f626       ??_Estream@@UAEPAXI@Z      004a0626 f i  CIL library: CIL module
 0001:0009f643       ?getchar@stream@@UAEHXZ    004a0643 f i stream.obj
 0001:0009f662       ?putstring@stream@@UAE_NPBD@Z 004a0662 f i stream.obj
 0001:0009f68a       ?putchar@stream@@UAE_NH@Z  004a068a f i stream.obj
 0001:0009f6a8       ?putline@stream@@UAE_NPBD@Z 004a06a8 f i stream.obj
 0001:0009f6d0       ?setBIH@model@@UAEPAUBIH@@XZ 004a06d0 f i rendermodel.obj
 0001:0009f6d0       ?getcrc@stream@@UAEIXZ     004a06d0 f i stream.obj
 0001:0009f6d0       ?type@md2@@UBEHXZ          004a06d0 f i rendermodel.obj
 0001:0009f6d3       ??1stream@@UAE@XZ          004a06d3 f i stream.obj
 0001:0009f6da       ?tell@stream@@UAEJXZ       004a06da f i stream.obj
 0001:0009f6da       ?printf@stream@@UAAHPBDZZ  004a06da f i stream.obj
 0001:0009f6de       ?reloadMT@@YAIXZ           004a06de f   tools.obj
 0001:0009f81a       ?randomMT@@YAIXZ           004a081a f   tools.obj
 0001:0009f85c       ??1zipfile@@QAE@XZ         004a085c f i zip.obj
 0001:0009f85c       ??1soundsample@@QAE@XZ     004a085c f i sound.obj
 0001:0009f86d       ??0ziparchive@@QAE@XZ      004a086d f i zip.obj
 0001:0009f8e9       ??1?$hashtable@PBDUzipfile@@@@QAE@XZ 004a08e9 f i zip.obj
 0001:0009fd10       ?findzip@@YAPAUziparchive@@PBD@Z 004a0d10 f   zip.obj
 0001:0009fffc       ?addzip@@YA_NPBD00@Z       004a0ffc f   zip.obj
 0001:000a022f       ?removezip@@YA_NPBD@Z      004a122f f   zip.obj
 0001:000a02fc       ??_Gziparchive@@QAEPAXI@Z  004a12fc f i zip.obj
 0001:000a0355       ?readbuf@zipstream@@QAEXI@Z 004a1355 f i zip.obj
 0001:000a03de       ?open@zipstream@@QAE_NPAUziparchive@@PAUzipfile@@@Z 004a13de f i zip.obj
 0001:000a046c       ?stopreading@zipstream@@QAEXXZ 004a146c f i zip.obj
 0001:000a04c6       ?close@zipstream@@UAEXXZ   004a14c6 f i zip.obj
 0001:000a04f7       ?size@zipstream@@UAEJXZ    004a14f7 f i zip.obj
 0001:000a04fe       ?end@zipstream@@UAE_NXZ    004a14fe f i zip.obj
 0001:000a050e       ?tell@zipstream@@UAEJXZ    004a150e f i zip.obj
 0001:000a052a       ?seek@zipstream@@UAE_NJH@Z 004a152a f i zip.obj
 0001:000a0685       ?read@zipstream@@UAEHPAXH@Z 004a1685 f i zip.obj
 0001:000a076d       ??_Gzipstream@@UAEPAXI@Z   004a176d f i zip.obj
 0001:000a076d       ??_Ezipstream@@UAEPAXI@Z   004a176d f i  CIL library: CIL module
 0001:000a07b5       ?openzipfile@@YAPAUstream@@PBD0@Z 004a17b5 f   zip.obj
 0001:000a089d       ?listzipfiles@@YAHPBD0AAU?$vector@PAD@@@Z 004a189d f   zip.obj
 0001:000a09eb       ?run@?$_icmd_addzip@$0CDG@@@SAXPBD00@Z 004a19eb f   zip.obj
 0001:000a0a14       ?run@?$_icmd_removezip@$0CDH@@@SAXPBD@Z 004a1a14 f   zip.obj
 0001:000a0a19       ?access@?$hashtable@PBDUzipfile@@@@QAEPAUzipfile@@ABQBD@Z 004a1a19 f i zip.obj
 0001:000a0a5d       ??1?$hashset@U?$hashtableentry@PBDUzipfile@@@@@@QAE@XZ 004a1a5d f i zip.obj
 0001:000a0ac3       ??1?$vector@Uzipfile@@@@QAE@XZ 004a1ac3 f i zip.obj
 0001:000a0b00       ?add@?$vector@Uzipfile@@@@QAEAAUzipfile@@XZ 004a1b00 f i zip.obj
 0001:000a0b5b       ?add@?$vector@PAUziparchive@@@@QAEAAPAUziparchive@@ABQAU2@@Z 004a1b5b f i zip.obj
 0001:000a0ba1       ?removeobj@?$vector@PAUziparchive@@@@QAEXABQAUziparchive@@@Z 004a1ba1 f i zip.obj
 0001:000a0be6       ?growbuf@?$vector@PAUziparchive@@@@QAEXH@Z 004a1be6 f i zip.obj
 0001:000a0c4a       ?insert@?$hashset@U?$hashtableentry@PBDUzipfile@@@@@@QAEPAUchain@1@I@Z 004a1c4a f i zip.obj
 0001:000a0cef       ??0chain@?$hashset@U?$hashtableentry@PBDUzipfile@@@@@@QAE@XZ 004a1cef f i zip.obj
 0001:000a0d21       ??1avoidset@ai@@QAE@XZ     004a1d21 f i ai.obj
 0001:000a0d66       ?run@?$_icmd_addbot@$0BA@@ai@@SAXPAD@Z 004a1d66 f   ai.obj
 0001:000a0da1       ?run@?$_icmd_delbot@$0BB@@ai@@SAXXZ 004a1da1 f   ai.obj
 0001:000a0db0       ?run@?$_icmd_botlimit@$0BC@@ai@@SAXPAH@Z 004a1db0 f   ai.obj
 0001:000a0dc6       ?run@?$_icmd_botbalance@$0BD@@ai@@SAXPAH@Z 004a1dc6 f   ai.obj
 0001:000a0ddc       ?viewdist@ai@@YAMH@Z       004a1ddc f   ai.obj
 0001:000a0e19       ?viewfieldx@ai@@YAMH@Z     004a1e19 f   ai.obj
 0001:000a0e5b       ?weaprange@ai@@YA_NPAUfpsent@@HM@Z 004a1e5b f   ai.obj
 0001:000a0eb3       ?targetable@ai@@YA_NPAUfpsent@@0@Z 004a1eb3 f   ai.obj
 0001:000a0f0a       ?getsight@ai@@YA_NAAUvec@@MM00MMM@Z 004a1f0a f   ai.obj
 0001:000a1003       ?cansee@ai@@YA_NPAUfpsent@@AAUvec@@11@Z 004a2003 f   ai.obj
 0001:000a106c       ?canshoot@ai@@YA_NPAUfpsent@@0@Z 004a206c f   ai.obj
 0001:000a10c4       ?hastarget@ai@@YA_NPAUfpsent@@AAUaistate@1@0MMM@Z 004a20c4 f   ai.obj
 0001:000a1216       ?getaimpos@ai@@YA?AUvec@@PAUfpsent@@0@Z 004a2216 f   ai.obj
 0001:000a1397       ?create@ai@@YAXPAUfpsent@@@Z 004a2397 f   ai.obj
 0001:000a13e1       ?init@ai@@YAXPAUfpsent@@HHHHHPBD1@Z 004a23e1 f   ai.obj
 0001:000a1601       ?update@ai@@YAXXZ          004a2601 f   ai.obj
 0001:000a16e3       ?checkothers@ai@@YA_NAAU?$vector@H@@PAUfpsent@@HHH_N@Z 004a26e3 f   ai.obj
 0001:000a17ce       ?makeroute@ai@@YA_NPAUfpsent@@AAUaistate@1@H_N2@Z 004a27ce f   ai.obj
 0001:000a1854       ?makeroute@ai@@YA_NPAUfpsent@@AAUaistate@1@ABUvec@@_N3@Z 004a2854 f   ai.obj
 0001:000a1880       ?randomnode@ai@@YA_NPAUfpsent@@AAUaistate@1@ABUvec@@MM@Z 004a2880 f   ai.obj
 0001:000a1971       ?randomnode@ai@@YA_NPAUfpsent@@AAUaistate@1@MM@Z 004a2971 f   ai.obj
 0001:000a19a9       ?badhealth@ai@@YA_NPAUfpsent@@@Z 004a29a9 f   ai.obj
 0001:000a19d3       ?enemy@ai@@YA_NPAUfpsent@@AAUaistate@1@ABUvec@@M_N@Z 004a29d3 f   ai.obj
 0001:000a1aaf       ?patrol@ai@@YA_NPAUfpsent@@AAUaistate@1@ABUvec@@MMH_N@Z 004a2aaf f   ai.obj
 0001:000a1b5d       ?defend@ai@@YA_NPAUfpsent@@AAUaistate@1@ABUvec@@MMH@Z 004a2b5d f   ai.obj
 0001:000a1bee       ?violence@ai@@YA_NPAUfpsent@@AAUaistate@1@0_N@Z 004a2bee f   ai.obj
 0001:000a1c66       ?target@ai@@YA_NPAUfpsent@@AAUaistate@1@_N2M@Z 004a2c66 f   ai.obj
 0001:000a1d60       ?hasgoodammo@ai@@YA_NPAUfpsent@@@Z 004a2d60 f   ai.obj
 0001:000a1d80       ?assist@ai@@YAXPAUfpsent@@AAUaistate@1@AAU?$vector@Uinterest@ai@@@@_N3@Z 004a2d80 f   ai.obj
 0001:000a1f80       ?items@ai@@YAXPAUfpsent@@AAUaistate@1@AAU?$vector@Uinterest@ai@@@@_N@Z 004a2f80 f   ai.obj
 0001:000a1fc6       ?parseinterests@ai@@YA_NPAUfpsent@@AAUaistate@1@AAU?$vector@Uinterest@ai@@@@_N3@Z 004a2fc6 f   ai.obj
 0001:000a209f       ?find@ai@@YA_NPAUfpsent@@AAUaistate@1@_N@Z 004a309f f   ai.obj
 0001:000a225b       ?damaged@ai@@YAXPAUfpsent@@0@Z 004a325b f   ai.obj
 0001:000a235f       ?findorientation@ai@@YAXAAUvec@@MM0@Z 004a335f f   ai.obj
 0001:000a23e8       ?setup@ai@@YAXPAUfpsent@@_N@Z 004a33e8 f   ai.obj
 0001:000a24c1       ?itemspawned@ai@@YAXH@Z    004a34c1 f   ai.obj
 0001:000a2650       ?check@ai@@YA_NPAUfpsent@@AAUaistate@1@@Z 004a3650 f   ai.obj
 0001:000a2671       ?dowait@ai@@YAHPAUfpsent@@AAUaistate@1@@Z 004a3671 f   ai.obj
 0001:000a26d5       ?dodefend@ai@@YAHPAUfpsent@@AAUaistate@1@@Z 004a36d5 f   ai.obj
 0001:000a280f       ?dointerest@ai@@YAHPAUfpsent@@AAUaistate@1@@Z 004a380f f   ai.obj
 0001:000a2906       ?dopursue@ai@@YAHPAUfpsent@@AAUaistate@1@@Z 004a3906 f   ai.obj
 0001:000a29a1       ?closenode@ai@@YAHPAUfpsent@@_N@Z 004a39a1 f   ai.obj
 0001:000a2a7f       ?wpspot@ai@@YA_NPAUfpsent@@H_N@Z 004a3a7f f   ai.obj
 0001:000a2af9       ?anynode@ai@@YA_NPAUfpsent@@AAUaistate@1@_N@Z 004a3af9 f   ai.obj
 0001:000a2c5b       ?hunt@ai@@YA_NPAUfpsent@@AAUaistate@1@H@Z 004a3c5b f   ai.obj
 0001:000a2d7f       ?jumpto@ai@@YAXPAUfpsent@@AAUaistate@1@ABUvec@@@Z 004a3d7f f   ai.obj
 0001:000a2f13       ?fixfullrange@ai@@YAXAAM00_N@Z 004a3f13 f   ai.obj
 0001:000a2f93       ?fixrange@ai@@YAXAAM0@Z    004a3f93 f   ai.obj
 0001:000a2fa8       ?getyawpitch@ai@@YAXABUvec@@0AAM1@Z 004a3fa8 f   ai.obj
 0001:000a3000       ?scaleyawpitch@ai@@YAXAAM0MMMM@Z 004a4000 f   ai.obj
 0001:000a30f7       ?lockon@ai@@YA_NPAUfpsent@@0M@Z 004a40f7 f   ai.obj
 0001:000a318a       ?process@ai@@YAHPAUfpsent@@AAUaistate@1@@Z 004a418a f   ai.obj
 0001:000a3846       ?hasrange@ai@@YA_NPAUfpsent@@0H@Z 004a4846 f   ai.obj
 0001:000a389d       ?request@ai@@YA_NPAUfpsent@@AAUaistate@1@@Z 004a489d f   ai.obj
 0001:000a39cb       ?timeouts@ai@@YAXPAUfpsent@@AAUaistate@1@@Z 004a49cb f   ai.obj
 0001:000a3ba7       ?logic@ai@@YAXPAUfpsent@@AAUaistate@1@_N@Z 004a4ba7 f   ai.obj
 0001:000a3cce       ?avoid@ai@@YAXXZ           004a4cce f   ai.obj
 0001:000a3d57       ?think@ai@@YAXPAUfpsent@@_N@Z 004a4d57 f   ai.obj
 0001:000a3f4a       ?drawstate@ai@@YAXPAUfpsent@@AAUaistate@1@_NH@Z 004a4f4a f   ai.obj
 0001:000a40e2       ?drawroute@ai@@YAXPAUfpsent@@AAUaistate@1@M@Z 004a50e2 f   ai.obj
 0001:000a42b0       ?render@ai@@YAXXZ          004a52b0 f   ai.obj
 0001:000a4586       ?inrange@?$vector@Uwaypoint@ai@@@@QBE_NH@Z 004a5586 f i ai.obj
 0001:000a4599       ?add@?$vector@Uinterest@ai@@@@QAEAAUinterest@ai@@XZ 004a5599 f i ai.obj
 0001:000a45f8       ?removeunordered@?$vector@Uinterest@ai@@@@QAE?AUinterest@ai@@H@Z 004a55f8 f i ai.obj
 0001:000a4630       ?growbuf@?$vector@Uzipfile@@@@QAEXH@Z 004a5630 f i zip.obj
 0001:000a4630       ?growbuf@?$vector@Uvert@ragdollskel@@@@QAEXH@Z 004a5630 f i rendermodel.obj
 0001:000a4630       ?growbuf@?$vector@Uinterest@ai@@@@QAEXH@Z 004a5630 f i ai.obj
 0001:000a4686       ?abovehead@dynent@@QAE?AUvec@@XZ 004a5686 f i ai.obj
 0001:000a46c3       ?remove@?$vector@Uaistate@ai@@@@QAE?AUaistate@ai@@H@Z 004a56c3 f i ai.obj
 0001:000a4704       ?add@avoidset@ai@@QAEXPAXM@Z 004a5704 f i ai.obj
 0001:000a4744       ?add@avoidset@ai@@QAEXAAU12@@Z 004a5744 f i ai.obj
 0001:000a47fa       ?addprevnode@aiinfo@ai@@QAEXH@Z 004a57fa f i ai.obj
 0001:000a4815       ?canpickup@fpsstate@@QAE_NH@Z 004a5815 f i ai.obj
 0001:000a4882       ?hasammo@fpsstate@@QAEHHH@Z 004a5882 f i ai.obj
 0001:000a489a       ?switchstate@aiinfo@ai@@QAEAAUaistate@2@AAU32@HHH@Z 004a589a f i ai.obj
 0001:000a48cd       ?headpos@physent@@QBE?AUvec@@M@Z 004a58cd f i ai.obj
 0001:000a48fb       ?find@avoidset@ai@@QBE_NHPAUfpsent@@@Z 004a58fb f i ai.obj
 0001:000a494f       ?hasprevnode@aiinfo@ai@@QBE_NH@Z 004a594f f i ai.obj
 0001:000a496e       ?stopmoving@dynent@@QAEXXZ 004a596e f i ai.obj
 0001:000a4992       ??_Gaiinfo@ai@@QAEPAXI@Z   004a5992 f i ai.obj
 0001:000a49e0       ?clearsetup@aiinfo@ai@@QAEXXZ 004a59e0 f i ai.obj
 0001:000a4a5a       ?growbuf@?$vector@Uaistate@ai@@@@QAEXH@Z 004a5a5a f i ai.obj
 0001:000a4ab0       ?addstate@aiinfo@ai@@QAEAAUaistate@2@HHH@Z 004a5ab0 f i ai.obj
 0001:000a4b0f       ?wipe@aiinfo@ai@@QAEXXZ    004a5b0f f i ai.obj
 0001:000a4b3e       ?reset@aiinfo@ai@@QAEX_N@Z 004a5b3e f i ai.obj
 0001:000a4b87       ??0aiinfo@ai@@QAE@XZ       004a5b87 f i ai.obj
 0001:000a4be1       ?squaredist@vec@@QBEMABU1@@Z 004a5be1 f i ai.obj
 0001:000a4c18       ?getteamscore@captureservmode@server@@UAEHPBD@Z 004a5c18 f i server1.obj
 0001:000a4c18       ?getteamscore@captureclientmode@game@@UAEHPBD@Z 004a5c18 f i client1.obj
 0001:000a4c59       ?findscore@captureclientmode@game@@QAEAAUscore@12@PBD@Z 004a5c59 f i client1.obj
 0001:000a4d48       ?initbase@captureclientmode@game@@QAEXHHPBD0HH@Z 004a5d48 f i client1.obj
 0001:000a4dba       ?disttoenemy@captureclientmode@game@@QAEMAAUbaseinfo@12@@Z 004a5dba f i client1.obj
 0001:000a4e33       ?insidebase@captureclientmode@game@@QAE_NABUbaseinfo@12@ABUvec@@@Z 004a5e33 f i client1.obj
 0001:000a4e33       ?insidebase@captureservmode@server@@QAE_NABUbaseinfo@12@ABUvec@@@Z 004a5e33 f i server1.obj
 0001:000a4e80       ??0captureclientmode@game@@QAE@XZ 004a5e80 f i client1.obj
 0001:000a4f01       ?replenishammo@captureclientmode@game@@QAEXXZ 004a5f01 f i client1.obj
 0001:000a4fbd       ?receiveammo@captureclientmode@game@@QAEXPAUfpsent@@H@Z 004a5fbd f i client1.obj
 0001:000a5051       ?checkitems@captureclientmode@game@@UAEXPAUfpsent@@@Z 004a6051 f i client1.obj
 0001:000a5187       ?rendertether@captureclientmode@game@@QAEXPAUfpsent@@@Z 004a6187 f i client1.obj
 0001:000a542c       ?preload@captureclientmode@game@@UAEXXZ 004a642c f i client1.obj
 0001:000a5447       ?rendergame@captureclientmode@game@@UAEXXZ 004a6447 f i client1.obj
 0001:000a5a3f       ?calcradarscale@ctfclientmode@game@@QAEMXZ 004a6a3f f i client1.obj
 0001:000a5a3f       ?calcradarscale@captureclientmode@game@@QAEMXZ 004a6a3f f i client1.obj
 0001:000a5a8b       ?drawblips@captureclientmode@game@@QAEXPAUfpsent@@MHHH_N@Z 004a6a8b f i client1.obj
 0001:000a5c7e       ?respawnwait@captureclientmode@game@@UAEHPAUfpsent@@@Z 004a6c7e f i client1.obj
 0001:000a5cc9       ?clipconsole@captureclientmode@game@@UAEHHH@Z 004a6cc9 f i client1.obj
 0001:000a5cc9       ?clipconsole@ctfclientmode@game@@UAEHHH@Z 004a6cc9 f i client1.obj
 0001:000a5cd9       ?drawhud@captureclientmode@game@@UAEXPAUfpsent@@HH@Z 004a6cd9 f i client1.obj
 0001:000a603d       ?setup@captureclientmode@game@@UAEXXZ 004a703d f i client1.obj
 0001:000a6237       ?senditems@captureclientmode@game@@UAEXAAUpacketbuf@@@Z 004a7237 f i client1.obj
 0001:000a62c2       ?updatebase@captureclientmode@game@@QAEXHPBD0HH@Z 004a72c2 f i client1.obj
 0001:000a6544       ?setscore@captureclientmode@game@@QAEXHPBDH@Z 004a7544 f i client1.obj
 0001:000a6647       ?closesttoenemy@captureclientmode@game@@QAEHPBD_N1@Z 004a7647 f i client1.obj
 0001:000a670b       ?pickteamspawn@captureclientmode@game@@QAEHPBD@Z 004a770b f i client1.obj
 0001:000a6829       ?pickspawn@captureclientmode@game@@UAEXPAUfpsent@@@Z 004a7829 f i client1.obj
 0001:000a684a       ?prefixnextmap@captureclientmode@game@@UAEPBDXZ 004a784a f i client1.obj
 0001:000a6850       ?aidefend@clientmode@game@@UAE_NPAUfpsent@@AAUaistate@ai@@@Z 004a7850 f i client1.obj
 0001:000a6850       ?aicheck@clientmode@game@@UAE_NPAUfpsent@@AAUaistate@ai@@@Z 004a7850 f i client1.obj
 0001:000a6850       ?aipursue@clientmode@game@@UAE_NPAUfpsent@@AAUaistate@ai@@@Z 004a7850 f i client1.obj
 0001:000a6850       ?extinfoteam@servmode@server@@UAE_NPBDAAU?$databuf@E@@@Z 004a7850 f i server1.obj
 0001:000a6850       ?aicheck@captureclientmode@game@@UAE_NPAUfpsent@@AAUaistate@ai@@@Z 004a7850 f i client1.obj
 0001:000a6850       ?seek@stream@@UAE_NJH@Z    004a7850 f i stream.obj
 0001:000a6855       ?aifind@captureclientmode@game@@UAEXPAUfpsent@@AAUaistate@ai@@AAU?$vector@Uinterest@ai@@@@@Z 004a7855 f i client1.obj
 0001:000a6b37       ?aidefend@captureclientmode@game@@UAE_NPAUfpsent@@AAUaistate@ai@@@Z 004a7b37 f i client1.obj
 0001:000a6dcd       ?aipursue@captureclientmode@game@@UAE_NPAUfpsent@@AAUaistate@ai@@@Z 004a7dcd f i client1.obj
 0001:000a6e5c       ??_Gcaptureclientmode@game@@UAEPAXI@Z 004a7e5c f i client1.obj
 0001:000a6e5c       ??_Ectfclientmode@game@@UAEPAXI@Z 004a7e5c f i  CIL library: CIL module
 0001:000a6e5c       ??_Ecaptureclientmode@game@@UAEPAXI@Z 004a7e5c f i  CIL library: CIL module
 0001:000a6e5c       ??_Gctfclientmode@game@@UAEPAXI@Z 004a7e5c f i client1.obj
 0001:000a6e79       ??1captureclientmode@game@@UAE@XZ 004a7e79 f i client1.obj
 0001:000a6e79       ??1ctfclientmode@game@@UAE@XZ 004a7e79 f i client1.obj
 0001:000a6ede       ?reset@flag@ctfclientmode@game@@QAEXXZ 004a7ede f i client1.obj
 0001:000a6f6e       ?pos@flag@ctfclientmode@game@@QAEABUvec@@XZ 004a7f6e f i client1.obj
 0001:000a6f8e       ?addflag@ctfclientmode@game@@QAE_NHABUvec@@HH@Z 004a7f8e f i client1.obj
 0001:000a7089       ?ownflag@ctfclientmode@game@@QAEXHPAUfpsent@@H@Z 004a8089 f i client1.obj
 0001:000a70d9       ?dropflag@ctfclientmode@game@@QAEXHABUvec@@MH@Z 004a80d9 f i client1.obj
 0001:000a7134       ?returnflag@ctfclientmode@game@@QAEXHH@Z 004a8134 f i client1.obj
 0001:000a717e       ?getteamscores@ctfservmode@server@@UAEXAAU?$vector@Uteamscore@@@@@Z 004a817e f i server1.obj
 0001:000a717e       ?getteamscores@ctfclientmode@game@@UAEXAAU?$vector@Uteamscore@@@@@Z 004a817e f i client1.obj
 0001:000a71cc       ?insidebase@ctfservmode@server@@QAE_NABUflag@12@ABUvec@@@Z 004a81cc f i server1.obj
 0001:000a71cc       ?insidebase@ctfclientmode@game@@QAE_NABUflag@12@ABUvec@@@Z 004a81cc f i client1.obj
 0001:000a721a       ??0ctfclientmode@game@@QAE@XZ 004a821a f i client1.obj
 0001:000a7296       ?preload@ctfclientmode@game@@UAEXXZ 004a8296 f i client1.obj
 0001:000a72d6       ?drawblip@ctfclientmode@game@@QAEXPAUfpsent@@MMMABUvec@@_N@Z 004a82d6 f i client1.obj
 0001:000a736f       ?drawblip@ctfclientmode@game@@QAEXPAUfpsent@@MMMH_N@Z 004a836f f i client1.obj
 0001:000a74b8       ?drawhud@ctfclientmode@game@@UAEXPAUfpsent@@HH@Z 004a84b8 f i client1.obj
 0001:000a7905       ?removeplayer@ctfclientmode@game@@UAEXPAUfpsent@@@Z 004a8905 f i client1.obj
 0001:000a7952       ?interpflagpos@ctfclientmode@game@@QAE?AUvec@@AAUflag@12@AAM@Z 004a8952 f i client1.obj
 0001:000a7a9e       ?rendergame@ctfclientmode@game@@UAEXXZ 004a8a9e f i client1.obj
 0001:000a801f       ?setup@ctfclientmode@game@@UAEXXZ 004a901f f i client1.obj
 0001:000a8201       ?senditems@ctfclientmode@game@@UAEXAAUpacketbuf@@@Z 004a9201 f i client1.obj
 0001:000a82ef       ?parseflags@ctfclientmode@game@@QAEXAAU?$databuf@E@@_N@Z 004a92ef f i client1.obj
 0001:000a849d       ?dropflag@ctfclientmode@game@@QAEXPAUfpsent@@HHABUvec@@@Z 004a949d f i client1.obj
 0001:000a860f       ?flagexplosion@ctfclientmode@game@@QAEXHHABUvec@@@Z 004a960f f i client1.obj
 0001:000a873d       ?flageffect@ctfclientmode@game@@QAEXHHABUvec@@0@Z 004a973d f i client1.obj
 0001:000a8856       ?returnflag@ctfclientmode@game@@QAEXPAUfpsent@@HH@Z 004a9856 f i client1.obj
 0001:000a89ca       ?spawnflag@ctfclientmode@game@@QAEXAAUflag@12@@Z 004a99ca f i client1.obj
 0001:000a89fa       ?resetflag@ctfclientmode@game@@QAEXHHHHH@Z 004a99fa f i client1.obj
 0001:000a8bb6       ?scoreflag@ctfclientmode@game@@QAEXPAUfpsent@@HHHHHHHH@Z 004a9bb6 f i client1.obj
 0001:000a8e39       ?takeflag@ctfclientmode@game@@QAEXPAUfpsent@@HH@Z 004a9e39 f i client1.obj
 0001:000a9019       ?checkitems@ctfclientmode@game@@UAEXPAUfpsent@@@Z 004aa019 f i client1.obj
 0001:000a919a       ?respawned@ctfclientmode@game@@UAEXPAUfpsent@@@Z 004aa19a f i client1.obj
 0001:000a9289       ?respawnwait@ctfclientmode@game@@UAEHPAUfpsent@@@Z 004aa289 f i client1.obj
 0001:000a92d7       ?pickholdspawn@ctfclientmode@game@@QAE_NPAUfpsent@@@Z 004aa2d7 f i client1.obj
 0001:000a952e       ?pickspawn@ctfclientmode@game@@UAEXPAUfpsent@@@Z 004aa52e f i client1.obj
 0001:000a95c2       ?prefixnextmap@ctfclientmode@game@@UAEPBDXZ 004aa5c2 f i client1.obj
 0001:000a95ee       ?aihomerun@ctfclientmode@game@@QAE_NPAUfpsent@@AAUaistate@ai@@@Z 004aa5ee f i client1.obj
 0001:000a9835       ?aicheck@ctfclientmode@game@@UAE_NPAUfpsent@@AAUaistate@ai@@@Z 004aa835 f i client1.obj
 0001:000a99af       ?aifind@ctfclientmode@game@@UAEXPAUfpsent@@AAUaistate@ai@@AAU?$vector@Uinterest@ai@@@@@Z 004aa9af f i client1.obj
 0001:000a9de5       ?aidefend@ctfclientmode@game@@UAE_NPAUfpsent@@AAUaistate@ai@@@Z 004aade5 f i client1.obj
 0001:000aa127       ?aipursue@ctfclientmode@game@@UAE_NPAUfpsent@@AAUaistate@ai@@@Z 004ab127 f i client1.obj
 0001:000aa2ed       ??_G_ccmd_dropflag@?1???0ctfclientmode@game@@QAE@XZ@UAEPAXI@Z 004ab2ed f i client1.obj
 0001:000aa2ed       ??_G_ccmd_repammo@?1???0captureclientmode@game@@QAE@XZ@UAEPAXI@Z 004ab2ed f i client1.obj
 0001:000aa2ed       ??_E_ccmd_dropflag@?1???0ctfclientmode@game@@QAE@XZ@UAEPAXI@Z 004ab2ed f i  CIL library: CIL module
 0001:000aa2ed       ??_E_ccmd_repammo@?1???0captureclientmode@game@@QAE@XZ@UAEPAXI@Z 004ab2ed f i  CIL library: CIL module
 0001:000aa326       ?switchname@game@@YAXPBD@Z 004ab326 f   client1.obj
 0001:000aa39f       ?run@?$_icmd_name@$0CK@@game@@SAXPAD@Z 004ab39f f   client1.obj
 0001:000aa3a8       ?run@?$_icmd_getname@$0CL@@game@@SAXXZ 004ab3a8 f   client1.obj
 0001:000aa3ba       ?run@?$_icmd_team@$0DG@@game@@SAXPAD@Z 004ab3ba f   client1.obj
 0001:000aa40b       ?run@?$_icmd_getteam@$0DH@@game@@SAXXZ 004ab40b f   client1.obj
 0001:000aa41d       ??0authkey@game@@QAE@PBD00@Z 004ab41d f i client1.obj
 0001:000aa465       ?findauthkey@game@@YAPAUauthkey@1@PBD@Z 004ab465 f   client1.obj
 0001:000aa4f6       ?addauthkey@game@@YAXPBD00@Z 004ab4f6 f   client1.obj
 0001:000aa631       ?run@?$_icmd_authkey@$0GB@@game@@SAXPAD00@Z 004ab631 f   client1.obj
 0001:000aa636       ?run@?$_icmd_hasauthkey@$0GK@@game@@SAXPAD0@Z 004ab636 f   client1.obj
 0001:000aa6ab       ?genauthkey@game@@YAXPBD@Z 004ab6ab f   client1.obj
 0001:000aa73a       ?saveauthkeys@game@@YAXXZ  004ab73a f   client1.obj
 0001:000aa7aa       ?allowedittoggle@game@@YA_NXZ 004ab7aa f   client1.obj
 0001:000aa810       ?edittoggled@game@@YAX_N@Z 004ab810 f   client1.obj
 0001:000aa889       ?run@?$_icmd_getclientname@$0KJ@@game@@SAXPAH@Z 004ab889 f   client1.obj
 0001:000aa8ac       ?run@?$_icmd_getclientteam@$0LA@@game@@SAXPAH@Z 004ab8ac f   client1.obj
 0001:000aa8cf       ?run@?$_icmd_getclientmodel@$0LH@@game@@SAXPAH@Z 004ab8cf f   client1.obj
 0001:000aa8f1       ?getclienticon@game@@YAPBDH@Z 004ab8f1 f   client1.obj
 0001:000aa958       ?run@?$_icmd_getclienticon@$0MA@@game@@SAXPAH@Z 004ab958 f   client1.obj
 0001:000aa96b       ?run@?$_icmd_ismaster@$0MH@@game@@SAXPAH@Z 004ab96b f   client1.obj
 0001:000aa999       ?run@?$_icmd_isadmin@$0MO@@game@@SAXPAH@Z 004ab999 f   client1.obj
 0001:000aa9c7       ?run@?$_icmd_getmastermode@$0NA@@game@@SAXXZ 004ab9c7 f   client1.obj
 0001:000aa9d4       ?run@?$_icmd_mastermodename@$0NB@@game@@SAXPAH@Z 004ab9d4 f   client1.obj
 0001:000aa9ed       ?run@?$_icmd_isspectator@$0NI@@game@@SAXPAH@Z 004ab9ed f   client1.obj
 0001:000aaa18       ?run@?$_icmd_isai@$0OA@@game@@SAXPAH0@Z 004aba18 f   client1.obj
 0001:000aaa55       ?parseplayer@game@@YAHPBD@Z 004aba55 f   client1.obj
 0001:000aab01       ?run@?$_icmd_getclientnum@$0PJ@@game@@SAXPAD@Z 004abb01 f   client1.obj
 0001:000aab26       ?listclients@game@@YAX_N@Z 004abb26 f   client1.obj
 0001:000aac64       ?run@?$_icmd_listclients@$0BAP@@game@@SAXPAH@Z 004abc64 f   client1.obj
 0001:000aac79       ?clearbans@game@@YAXXZ     004abc79 f   client1.obj
 0001:000aac88       ?kick@game@@YAXPBD@Z       004abc88 f   client1.obj
 0001:000aacb6       ?setteam@game@@YAXPBD0@Z   004abcb6 f   client1.obj
 0001:000aace8       ?hashpwd@game@@YAXPBD@Z    004abce8 f   client1.obj
 0001:000aad27       ?setmaster@game@@YAXPBD@Z  004abd27 f   client1.obj
 0001:000aadbb       ?run@?$_icmd_mastermode@$0BDI@@game@@SAXPAH@Z 004abdbb f   client1.obj
 0001:000aadd1       ?tryauth@game@@YA_NPBD@Z   004abdd1 f   client1.obj
 0001:000aae02       ?run@?$_icmd_auth@$0BEC@@game@@SAXPAD@Z 004abe02 f   client1.obj
 0001:000aae07       ?run@?$_icmd_spectator@$0BEJ@@game@@SAXPAHPAD@Z 004abe07 f   client1.obj
 0001:000aae42       ?run@?$_icmd_checkmaps@$0BEL@@game@@SAXXZ 004abe42 f   client1.obj
 0001:000aae51       ?changemapserv@game@@YAXPBDH@Z 004abe51 f   client1.obj
 0001:000aaf48       ?run@?$_icmd_mode@$0BHE@@game@@SAXPAH@Z 004abf48 f   client1.obj
 0001:000aafab       ?run@?$_icmd_getmode@$0BHF@@game@@SAXXZ 004abfab f   client1.obj
 0001:000aafb8       ?run@?$_icmd_timeremaining@$0BHP@@game@@SAXPAH@Z 004abfb8 f   client1.obj
 0001:000ab01a       ?run@?$_icmds_@$0BIA@@game@@SAXPAH@Z 004ac01a f   client1.obj
 0001:000ab043       ?run@?$_icmds_@$0BIB@@game@@SAXPAH@Z 004ac043 f   client1.obj
 0001:000ab06c       ?run@?$_icmds_@$0BIC@@game@@SAXPAH@Z 004ac06c f   client1.obj
 0001:000ab095       ?run@?$_icmds_@$0BID@@game@@SAXPAH@Z 004ac095 f   client1.obj
 0001:000ab0be       ?run@?$_icmds_@$0BIE@@game@@SAXPAH@Z 004ac0be f   client1.obj
 0001:000ab0e7       ?run@?$_icmds_@$0BIF@@game@@SAXPAH@Z 004ac0e7 f   client1.obj
 0001:000ab110       ?run@?$_icmds_@$0BIG@@game@@SAXPAH@Z 004ac110 f   client1.obj
 0001:000ab13f       ?run@?$_icmds_@$0BIH@@game@@SAXPAH@Z 004ac13f f   client1.obj
 0001:000ab16b       ?run@?$_icmds_@$0BII@@game@@SAXPAH@Z 004ac16b f   client1.obj
 0001:000ab19c       ?run@?$_icmds_@$0BIJ@@game@@SAXPAH@Z 004ac19c f   client1.obj
 0001:000ab1cd       ?run@?$_icmds_@$0BIK@@game@@SAXPAH@Z 004ac1cd f   client1.obj
 0001:000ab1f6       ?run@?$_icmds_@$0BIL@@game@@SAXPAH@Z 004ac1f6 f   client1.obj
 0001:000ab222       ?run@?$_icmds_@$0BIM@@game@@SAXPAH@Z 004ac222 f   client1.obj
 0001:000ab24e       ?run@?$_icmds_@$0BIN@@game@@SAXPAH@Z 004ac24e f   client1.obj
 0001:000ab27a       ?run@?$_icmds_@$0BIO@@game@@SAXPAH@Z 004ac27a f   client1.obj
 0001:000ab2a6       ?run@?$_icmds_@$0BIP@@game@@SAXPAH@Z 004ac2a6 f   client1.obj
 0001:000ab2d2       ?run@?$_icmds_@$0BJA@@game@@SAXPAH@Z 004ac2d2 f   client1.obj
 0001:000ab2fe       ?changemap@game@@YAXPBDH@Z 004ac2fe f   client1.obj
 0001:000ab385       ?changemap@game@@YAXPBD@Z  004ac385 f   client1.obj
 0001:000ab3b0       ?run@?$_icmd_map@$0BKB@@game@@SAXPAD@Z 004ac3b0 f   client1.obj
 0001:000ab3b5       ?sendclipboard@game@@YAXXZ 004ac3b5 f   client1.obj
 0001:000ab49c       ?edittrigger@game@@YAXABUselinfo@@HHHH@Z 004ac49c f   client1.obj
 0001:000ab630       ?printvar@game@@YAXPAUfpsent@@PAUident@@@Z 004ac630 f   client1.obj
 0001:000ab714       ?vartrigger@game@@YAXPAUident@@@Z 004ac714 f   client1.obj
 0001:000ab7a3       ?pausegame@game@@YAXPAH@Z  004ac7a3 f   client1.obj
 0001:000ab7bf       ?addmsg@game@@YAXHPBDZZ    004ac7bf f   client1.obj
 0001:000aba3e       ?gamedisconnect@game@@YAX_N@Z 004aca3e f   client1.obj
 0001:000abae5       ?toserver@game@@YAXPAD@Z   004acae5 f   client1.obj
 0001:000abb20       ?sayteam@game@@YAXPAD@Z    004acb20 f   client1.obj
 0001:000abf4e       ?sendposition@game@@YAXPAUfpsent@@_N@Z 004acf4e f   client1.obj
 0001:000abfaa       ?sendpositions@game@@YAXXZ 004acfaa f   client1.obj
 0001:000ac068       ?sendmessages@game@@YAXXZ  004ad068 f   client1.obj
 0001:000ac1d5       ?c2sinfo@game@@YAX_N@Z     004ad1d5 f   client1.obj
 0001:000ac20b       ?sendintro@game@@YAXXZ     004ad20b f   client1.obj
 0001:000ac2e5       ?updatepos@game@@YAXPAUfpsent@@@Z 004ad2e5 f   client1.obj
 0001:000ac406       ?parsepositions@game@@YAXAAU?$databuf@E@@@Z 004ad406 f   client1.obj
 0001:000ac91a       ?parsestate@game@@YAXPAUfpsent@@AAU?$databuf@E@@_N@Z 004ad91a f   client1.obj
 0001:000aca30       ?parsemessages@game@@YAXHPAUfpsent@@AAU?$databuf@E@@@Z 004ada30 f   client1.obj
 0001:000ae7d4       ?receivefile@game@@YAXPAEH@Z 004af7d4 f   client1.obj
 0001:000ae971       ?getmap@game@@YAXXZ        004af971 f   client1.obj
 0001:000ae9b6       ?stopdemo@game@@YAXXZ      004af9b6 f   client1.obj
 0001:000ae9e1       ?run@?$_icmd_recorddemo@$0GKI@@game@@SAXPAH@Z 004af9e1 f   client1.obj
 0001:000aea10       ?run@?$_icmd_cleardemos@$0GKP@@game@@SAXPAH@Z 004afa10 f   client1.obj
 0001:000aea3f       ?run@?$_icmd_getdemo@$0GLH@@game@@SAXPAH@Z 004afa3f f   client1.obj
 0001:000aea75       ?listdemos@game@@YAXXZ     004afa75 f   client1.obj
 0001:000aea90       ?sendmap@game@@YAXXZ       004afa90 f   client1.obj
 0001:000aebe0       ?gotoplayer@game@@YAXPBD@Z 004afbe0 f   client1.obj
 0001:000aec93       ?gotosel@game@@YAXXZ       004afc93 f   client1.obj
 0001:000aed1f       ?add@?$vector@Uteamscore@@@@QAEAAUteamscore@@ABU2@@Z 004afd1f f i client1.obj
 0001:000aed56       ?add@?$vector@Uholdspawn@ctfclientmode@game@@@@QAEAAUholdspawn@ctfclientmode@game@@XZ 004afd56 f i client1.obj
 0001:000aedbd       ?growbuf@?$vector@Ulightmaptask@@@@QAEXH@Z 004afdbd f i lightmap.obj
 0001:000aedbd       ?growbuf@?$vector@Uholdspawn@ctfclientmode@game@@@@QAEXH@Z 004afdbd f i client1.obj
 0001:000aee13       ?growbuf@?$vector@PAUauthkey@game@@@@QAEXH@Z 004afe13 f i client1.obj
 0001:000aee77       ?hitpush@fpsent@@QAEXHABUvec@@PAU1@H@Z 004afe77 f i client1.obj
 0001:000aeeee       ??1fpsent@@QAE@XZ          004afeee f i client1.obj
 0001:000aef96       ??0animinterpinfo@@QAE@XZ  004aff96 f i client1.obj
 0001:000aefcb       ??0dynent@@QAE@XZ          004affcb f i client1.obj
 0001:000af048       ??1dynent@@QAE@XZ          004b0048 f i client1.obj
 0001:000af057       ??0fpsent@@QAE@XZ          004b0057 f i client1.obj
 0001:000af159       ?respawn@fpsstate@@QAEXXZ  004b0159 f i client1.obj
 0001:000af188       ?stopattacksound@fpsent@@QAEXXZ 004b0188 f i client1.obj
 0001:000af1b4       ?respawn@fpsent@@QAEXXZ    004b01b4 f i client1.obj
 0001:000af22a       ??_Gclientmode@game@@UAEPAXI@Z 004b022a f i client1.obj
 0001:000af22a       ??_Eclientmode@game@@UAEPAXI@Z 004b022a f i  CIL library: CIL module
 0001:000af247       ?clipconsole@clientmode@game@@UAEHHH@Z 004b0247 f i client1.obj
 0001:000af247       ?loadmeshes@animmodel@@UAEPAUmeshgroup@1@PAD0@Z 004b0247 f i rendermodel.obj
 0001:000af247       ?adddepthfx@partrenderer@@UAEHAAUvec@@0@Z 004b0247 f i renderparticles.obj
 0001:000af247       ?write@stream@@UAEHPBXH@Z  004b0247 f i stream.obj
 0001:000af247       ?read@stream@@UAEHPAXH@Z   004b0247 f i stream.obj
 0001:000af24c       ?endrender@model@@UAEXXZ   004b024c f i rendermodel.obj
 0001:000af24c       ?cleanup@partrenderer@@UAEXXZ 004b024c f i renderparticles.obj
 0001:000af24c       ?cleanup@model@@UAEXXZ     004b024c f i rendermodel.obj
 0001:000af24c       ?preload@clientmode@game@@UAEXXZ 004b024c f i client1.obj
 0001:000af24c       ?endrender@textrenderer@@UAEXXZ 004b024c f i renderparticles.obj
 0001:000af24c       ?setup@clientmode@game@@UAEXXZ 004b024c f i client1.obj
 0001:000af24c       ?intermission@servmode@server@@UAEXXZ 004b024c f i server1.obj
 0001:000af24c       ?gameover@clientmode@game@@UAEXXZ 004b024c f i client1.obj
 0001:000af24c       ?cleanup@meshgroup@animmodel@@UAEXXZ 004b024c f i rendermodel.obj
 0001:000af24c       ?rendertiles@rendertarget@@UAEXXZ 004b024c f i glare.obj
 0001:000af24c       ?startrender@textrenderer@@UAEXXZ 004b024c f i renderparticles.obj
 0001:000af24c       ?rendergame@clientmode@game@@UAEXXZ 004b024c f i client1.obj
 0001:000af24c       ?preloadshaders@model@@UAEXXZ 004b024c f i rendermodel.obj
 0001:000af24c       ?doclear@rendertarget@@UAEXXZ 004b024c f i glare.obj
 0001:000af24c       ?poplist@g3d_gui@@UAEXXZ   004b024c f i 3dgui.obj
 0001:000af24c       ?update@partrenderer@@UAEXXZ 004b024c f i renderparticles.obj
 0001:000af24c       ?startrender@model@@UAEXXZ 004b024c f i rendermodel.obj
 0001:000af24c       ?update@servmode@server@@UAEXXZ 004b024c f i server1.obj
 0001:000af24c       ??3@YAXPAX0@Z              004b024c f i lightmap.obj
 0001:000af24d       ?pickspawn@clientmode@game@@UAEXPAUfpsent@@@Z 004b024d f i client1.obj
 0001:000af25f       ?prefixnextmap@clientmode@game@@UAEPBDXZ 004b025f f i client1.obj
 0001:000af265       ??1clientmode@game@@UAE@XZ 004b0265 f i client1.obj
 0001:000af26c       ?entmodel@entities@@YAPBDABUentity@@@Z 004b026c f   entities.obj
 0001:000af298       ?preloadentities@entities@@YAXXZ 004b0298 f   entities.obj
 0001:000af31f       ?renderentities@entities@@YAXXZ 004b031f f   entities.obj
 0001:000af41f       ?pickupeffects@entities@@YAXHPAUfpsent@@@Z 004b041f f   entities.obj
 0001:000af556       ?teleporteffects@entities@@YAXPAUfpsent@@HH_N@Z 004b0556 f   entities.obj
 0001:000af658       ?jumppadeffects@entities@@YAXPAUfpsent@@H_N@Z 004b0658 f   entities.obj
 0001:000af727       ?teleport@entities@@YAXHPAUfpsent@@@Z 004b0727 f   entities.obj
 0001:000af862       ?trypickup@entities@@YAXHPAUfpsent@@@Z 004b0862 f   entities.obj
 0001:000afa63       ?checkitems@entities@@YAXPAUfpsent@@@Z 004b0a63 f   entities.obj
 0001:000afaeb       ?checkquad@entities@@YAXHPAUfpsent@@@Z 004b0aeb f   entities.obj
 0001:000afb41       ?putitems@entities@@YAXAAUpacketbuf@@@Z 004b0b41 f   entities.obj
 0001:000afbb4       ?resetspawns@entities@@YAXXZ 004b0bb4 f   entities.obj
 0001:000afbd5       ?spawnitems@entities@@YAX_N@Z 004b0bd5 f   entities.obj
 0001:000afc67       ?setspawn@entities@@YAXH_N@Z 004b0c67 f   entities.obj
 0001:000afc81       ?newentity@entities@@YAPAUextentity@@XZ 004b0c81 f   entities.obj
 0001:000afd35       ?resettriggers@entities@@YAXXZ 004b0d35 f   entities.obj
 0001:000afd77       ?unlocktriggers@entities@@YAXHHH@Z 004b0d77 f   entities.obj
 0001:000afe19       ?run@?$_icmd_trigger@$0BLA@@entities@@SAXPAH0@Z 004b0e19 f   entities.obj
 0001:000afe3b       ?doleveltrigger@entities@@YAXHH@Z 004b0e3b f   entities.obj
 0001:000afe87       ?checktriggers@entities@@YAXXZ 004b0e87 f   entities.obj
 0001:000b01b0       ?animatemapmodel@entities@@YAXABUextentity@@AAH1@Z 004b11b0 f   entities.obj
 0001:000b01f4       ?fixentity@entities@@YAXAAUextentity@@@Z 004b11f4 f   entities.obj
 0001:000b023b       ?entradius@entities@@YAXAAUextentity@@_N@Z 004b123b f   entities.obj
 0001:000b035e       ?entname@entities@@YAPBDH@Z 004b135e f   entities.obj
 0001:000b0375       ?editent@entities@@YAXH_N@Z 004b1375 f   entities.obj
 0001:000b0406       ?pickup@fpsstate@@QAEXH@Z  004b1406 f i entities.obj
 0001:000b048a       ?taunt@game@@YAXXZ         004b148a f   fps.obj
 0001:000b04ca       ?run@?$_icmd_getfollow@$0CC@@game@@SAXXZ 004b14ca f   fps.obj
 0001:000b04e6       ?follow@game@@YAXPAD@Z     004b14e6 f   fps.obj
 0001:000b055c       ?nextfollow@game@@YAXH@Z   004b155c f   fps.obj
 0001:000b05eb       ?run@?$_icmd_nextfollow@$0EF@@game@@SAXPAH@Z 004b15eb f   fps.obj
 0001:000b0602       ?resetgamestate@game@@YAXXZ 004b1602 f   fps.obj
 0001:000b0642       ?spawnstate@game@@YAPAUfpsent@@PAU2@@Z 004b1642 f   fps.obj
 0001:000b065e       ?respawnself@game@@YAXXZ   004b165e f   fps.obj
 0001:000b06fe       ?stopfollowing@game@@YAXXZ 004b16fe f   fps.obj
 0001:000b0721       ?followingplayer@game@@YAPAUfpsent@@XZ 004b1721 f   fps.obj
 0001:000b0748       ?hudplayer@game@@YAPAUfpsent@@XZ 004b1748 f   fps.obj
 0001:000b0760       ?predictplayer@game@@YAXPAUfpsent@@_N@Z 004b1760 f   fps.obj
 0001:000b083f       ?otherplayers@game@@YAXH@Z 004b183f f   fps.obj
 0001:000b0947       ?var_slowmosp@game@@YAXXZ  004b1947 f   fps.obj
 0001:000b0983       ?checkslowmo@game@@YAXXZ   004b1983 f   fps.obj
 0001:000b0a11       ?updateworld@game@@YAXXZ   004b1a11 f   fps.obj
 0001:000b0bb7       ?spawnplayer@game@@YAXPAUfpsent@@@Z 004b1bb7 f   fps.obj
 0001:000b0c12       ?respawn@game@@YAXXZ       004b1c12 f   fps.obj
 0001:000b0d1c       ?allowmove@game@@YA_NPAUphysent@@@Z 004b1d1c f   fps.obj
 0001:000b0d46       ?damaged@game@@YAXHPAUfpsent@@0_N@Z 004b1d46 f   fps.obj
 0001:000b0e9d       ?deathstate@game@@YAXPAUfpsent@@_N@Z 004b1e9d f   fps.obj
 0001:000b0f89       ?killed@game@@YAXPAUfpsent@@0@Z 004b1f89 f   fps.obj
 0001:000b1186       ?timeupdate@game@@YAXH@Z   004b2186 f   fps.obj
 0001:000b12c1       ?run@?$_icmd_getfrags@$0BML@@game@@SAXXZ 004b22c1 f   fps.obj
 0001:000b12d3       ?run@?$_icmd_getflags@$0BMM@@game@@SAXXZ 004b22d3 f   fps.obj
 0001:000b12e5       ?run@?$_icmd_getdeaths@$0BMN@@game@@SAXXZ 004b22e5 f   fps.obj
 0001:000b12f7       ?run@?$_icmd_getaccuracy@$0BMO@@game@@SAXXZ 004b22f7 f   fps.obj
 0001:000b131e       ?run@?$_icmd_gettotaldamage@$0BMP@@game@@SAXXZ 004b231e f   fps.obj
 0001:000b1330       ?run@?$_icmd_gettotalshots@$0BNA@@game@@SAXXZ 004b2330 f   fps.obj
 0001:000b1342       ?newclient@game@@YAPAUfpsent@@H@Z 004b2342 f   fps.obj
 0001:000b1417       ?getclient@game@@YAPAUfpsent@@H@Z 004b2417 f   fps.obj
 0001:000b143c       ?clientdisconnected@game@@YAXH_N@Z 004b243c f   fps.obj
 0001:000b1545       ?clearclients@game@@YAX_N@Z 004b2545 f   fps.obj
 0001:000b1574       ?initclient@game@@YAXXZ    004b2574 f   fps.obj
 0001:000b15cc       ?startgame@game@@YAXXZ     004b25cc f   fps.obj
 0001:000b17f2       ?startmap@game@@YAXPBD@Z   004b27f2 f   fps.obj
 0001:000b19c6       ?getmapinfo@game@@YAPBDXZ  004b29c6 f   fps.obj
 0001:000b19e9       ?physicstrigger@game@@YAXPAUphysent@@_NHHH@Z 004b29e9 f   fps.obj
 0001:000b1a89       ?msgsound@game@@YAXHPAUphysent@@@Z 004b2a89 f   fps.obj
 0001:000b1af8       ?iterdynents@game@@YAPAUdynent@@H@Z 004b2af8 f   fps.obj
 0001:000b1b35       ?duplicatename@game@@YA_NPAUfpsent@@PBD@Z 004b2b35 f   fps.obj
 0001:000b1b7f       ?colorname@game@@YAPBDPAUfpsent@@PBD1@Z 004b2b7f f   fps.obj
 0001:000b1c10       ?suicide@game@@YAXPAUphysent@@@Z 004b2c10 f   fps.obj
 0001:000b1cb3       ?run@?$_icmd_kill@$0CKL@@game@@SAXXZ 004b2cb3 f   fps.obj
 0001:000b1cc1       ?drawicon@game@@YAXHMMM@Z  004b2cc1 f   fps.obj
 0001:000b1cd2       ?run@?$_icmd_ammohudup@$0CNF@@game@@SAXPAD00@Z 004b2cd2 f   fps.obj
 0001:000b1d41       ?run@?$_icmd_ammohuddown@$0CNO@@game@@SAXPAD00@Z 004b2d41 f   fps.obj
 0001:000b1db0       ?run@?$_icmd_ammohudcycle@$0COL@@game@@SAXPAD000000@Z 004b2db0 f   fps.obj
 0001:000b1e88       ?drawammohud@game@@YAXPAUfpsent@@@Z 004b2e88 f   fps.obj
 0001:000b1f65       ?drawhudicons@game@@YAXPAUfpsent@@@Z 004b2f65 f   fps.obj
 0001:000b2033       ?gameplayhud@game@@YAXHH@Z 004b3033 f   fps.obj
 0001:000b217a       ?selectcrosshair@game@@YAHAAM00@Z 004b317a f   fps.obj
 0001:000b22d7       ?serverinfostartcolumn@game@@YA_NPAUg3d_gui@@H@Z 004b32d7 f   fps.obj
 0001:000b233f       ?serverinfoentry@game@@YA_NPAUg3d_gui@@HPBDH11HABU?$vector@H@@H@Z 004b333f f   fps.obj
 0001:000b2563       ?buttonf@g3d_gui@@QAAHPBDH0ZZ 004b3563 f i fps.obj
 0001:000b25a1       ?dodamage@fpsstate@@QAEHH@Z 004b35a1 f i fps.obj
 0001:000b25cc       ?spawnstate@fpsstate@@QAEXH@Z 004b35cc f i fps.obj
 0001:000b2742       ??0monster@game@@QAE@HHHHHH@Z 004b3742 f i monster.obj
 0001:000b28da       ?normalize_yaw@monster@game@@QAEXM@Z 004b38da f i monster.obj
 0001:000b2937       ?transition@monster@game@@QAEXHHHH@Z 004b3937 f i monster.obj
 0001:000b2991       ?monsteraction@monster@game@@QAEXH@Z 004b3991 f i monster.obj
 0001:000b2e8c       ?monsterpain@monster@game@@QAEXHPAUfpsent@@@Z 004b3e8c f i monster.obj
 0001:000b2ff8       ?run@?$_icmd_nummonsters@$0BBK@@game@@SAXPAH0@Z 004b3ff8 f   monster.obj
 0001:000b3052       ?spawnmonster@game@@YAXXZ  004b4052 f   monster.obj
 0001:000b30e6       ?clearmonsters@game@@YAXXZ 004b40e6 f   monster.obj
 0001:000b32f8       ?endsp@game@@YAX_N@Z       004b42f8 f   monster.obj
 0001:000b332b       ?run@?$_icmd_endsp@$0BFJ@@game@@SAXXZ 004b432b f   monster.obj
 0001:000b3334       ?monsterkilled@game@@YAXXZ 004b4334 f   monster.obj
 0001:000b3374       ?updatemonsters@game@@YAXH@Z 004b4374 f   monster.obj
 0001:000b34a9       ?rendermonsters@game@@YAXXZ 004b44a9 f   monster.obj
 0001:000b35e8       ?spsummary@game@@YAXH@Z    004b45e8 f   monster.obj
 0001:000b376a       ?add@?$vector@PAUmonster@game@@@@QAEAAPAUmonster@game@@ABQAU23@@Z 004b476a f i monster.obj
 0001:000b37b0       ?growbuf@?$vector@PAUmonster@game@@@@QAEXH@Z 004b47b0 f i monster.obj
 0001:000b3814       ?maymove@physent@@QBE_NXZ  004b4814 f i monster.obj
 0001:000b3875       ??0movable@game@@QAE@ABUentity@@@Z 004b4875 f i movable.obj
 0001:000b3a3d       ?explode@movable@game@@QAEXPAUdynent@@@Z 004b4a3d f i movable.obj
 0001:000b3a5f       ?clearmovables@game@@YAXXZ 004b4a5f f   movable.obj
 0001:000b3b7f       ?triggerplatform@game@@YAXHH@Z 004b4b7f f   movable.obj
 0001:000b3c92       ?run@?$_icmd_platform@$0HK@@game@@SAXPAH0@Z 004b4c92 f   movable.obj
 0001:000b3ca5       ?updatemovables@game@@YAXH@Z 004b4ca5 f   movable.obj
 0001:000b3e97       ?rendermovables@game@@YAXXZ 004b4e97 f   movable.obj
 0001:000b3f0e       ?hitmovable@game@@YAXHPAUmovable@1@PAUfpsent@@ABUvec@@H@Z 004b4f0e f   movable.obj
 0001:000b3fb4       ?deletecontents@?$vector@PAUmovable@game@@@@QAEXXZ 004b4fb4 f i movable.obj
 0001:000b4015       ?growbuf@?$vector@PAUmovable@game@@@@QAEXH@Z 004b5015 f i movable.obj
 0001:000b4079       ?var_playermodel@game@@YAXXZ 004b5079 f   render.obj
 0001:000b407e       ?saveragdoll@game@@YAXPAUfpsent@@@Z 004b507e f   render.obj
 0001:000b4168       ?moveragdolls@game@@YAXXZ  004b5168 f   render.obj
 0001:000b41d8       ?getplayermodelinfo@game@@YAPBUplayermodelinfo@1@H@Z 004b51d8 f   render.obj
 0001:000b41e9       ?getplayermodelinfo@game@@YAABUplayermodelinfo@1@PAUfpsent@@@Z 004b51e9 f   render.obj
 0001:000b4229       ?changedplayermodel@game@@YAXXZ 004b5229 f   render.obj
 0001:000b42ff       ?preloadplayermodel@game@@YAXXZ 004b52ff f   render.obj
 0001:000b43bc       ?renderplayer@game@@YAXPAUfpsent@@ABUplayermodelinfo@1@HM_N@Z 004b53bc f   render.obj
 0001:000b4746       ?rendergame@game@@YAX_N@Z  004b5746 f   render.obj
 0001:000b4ac3       ?swayhudgun@game@@YAXH@Z   004b5ac3 f   render.obj
 0001:000b4cb2       ?drawhudmodel@game@@YAXPAUfpsent@@HMH@Z 004b5cb2 f   render.obj
 0001:000b4f69       ?drawhudgun@game@@YAXXZ    004b5f69 f   render.obj
 0001:000b502e       ?hudgunorigin@game@@YA?AUvec@@HABU2@0PAUfpsent@@@Z 004b602e f   render.obj
 0001:000b521c       ?preloadweapons@game@@YAXXZ 004b621c f   render.obj
 0001:000b52f2       ?preload@game@@YAXXZ       004b62f2 f   render.obj
 0001:000b543e       ?getbestplayers@game@@YAXAAU?$vector@PAUfpsent@@@@@Z 004b643e f   scoreboard.obj
 0001:000b54c2       ?sortteams@game@@YAXAAU?$vector@Uteamscore@@@@@Z 004b64c2 f   scoreboard.obj
 0001:000b55b1       ?getbestteams@game@@YAXAAU?$vector@PBD@@@Z 004b65b1 f   scoreboard.obj
 0001:000b595b       ?renderscoreboard@game@@YAXAAUg3d_gui@@_N@Z 004b695b f   scoreboard.obj
 0001:000b63a8       ?show@scoreboardgui@game@@QAEX_N@Z 004b73a8 f i scoreboard.obj
 0001:000b63e3       ?gui@scoreboardgui@game@@UAEXAAUg3d_gui@@_N@Z 004b73e3 f i scoreboard.obj
 0001:000b6412       ??_Etexturegui@@UAEPAXI@Z  004b7412 f i  CIL library: CIL module
 0001:000b6412       ??_Gscoreboardgui@game@@UAEPAXI@Z 004b7412 f i scoreboard.obj
 0001:000b6412       ??_Escoreboardgui@game@@UAEPAXI@Z 004b7412 f i  CIL library: CIL module
 0001:000b6412       ??_Gtexturegui@@UAEPAXI@Z  004b7412 f i octaedit.obj
 0001:000b644b       ?var_scoreboard@game@@YAXXZ 004b744b f   scoreboard.obj
 0001:000b645d       ?showscores@game@@YAX_N@Z  004b745d f   scoreboard.obj
 0001:000b6473       ?run@?$_icmd_showscores@$0BIH@@game@@SAXPAH@Z 004b7473 f   scoreboard.obj
 0001:000b6482       ?textf@g3d_gui@@QAAHPBDH0ZZ 004b7482 f i scoreboard.obj
 0001:000b64c0       ?titlef@g3d_gui@@QAAHPBDH0ZZ 004b74c0 f i scoreboard.obj
 0001:000b64fe       ?compare@teamscore@@SAHPBU1@0@Z 004b74fe f i scoreboard.obj
 0001:000b652a       ??1gameevent@server@@UAE@XZ 004b752a f i server1.obj
 0001:000b6531       ??_Egameevent@server@@UAEPAXI@Z 004b7531 f i  CIL library: CIL module
 0001:000b6531       ??_Ggameevent@server@@UAEPAXI@Z 004b7531 f i server1.obj
 0001:000b654e       ?isalive@gamestate@server@@QAE_NH@Z 004b754e f i server1.obj
 0001:000b6570       ?respawn@gamestate@server@@QAEXXZ 004b7570 f i server1.obj
 0001:000b65a7       ?save@savedscore@server@@QAEXAAUgamestate@2@@Z 004b75a7 f i server1.obj
 0001:000b6611       ?restore@savedscore@server@@QAEXAAUgamestate@2@@Z 004b7611 f i server1.obj
 0001:000b668a       ??0clientinfo@server@@QAE@XZ 004b768a f i server1.obj
 0001:000b6780       ??1clientinfo@server@@QAE@XZ 004b7780 f i server1.obj
 0001:000b6807       ?addevent@clientinfo@server@@QAEXPAUgameevent@2@@Z 004b7807 f i server1.obj
 0001:000b6850       ?calcpushrange@clientinfo@server@@QAEHXZ 004b7850 f i server1.obj
 0001:000b6892       ?scheduleexceeded@clientinfo@server@@QAEXXZ 004b7892 f i server1.obj
 0001:000b68c6       ?setexceeded@clientinfo@server@@QAEXXZ 004b78c6 f i server1.obj
 0001:000b6908       ?setpushed@clientinfo@server@@QAEXXZ 004b7908 f i server1.obj
 0001:000b6949       ?mapchange@clientinfo@server@@QAEXXZ 004b7949 f i server1.obj
 0001:000b69f5       ?cleanclipboard@clientinfo@server@@QAEX_N@Z 004b79f5 f i server1.obj
 0001:000b6a2b       ?geteventmillis@clientinfo@server@@QAEHHH@Z 004b7a2b f i server1.obj
 0001:000b6a74       ?var_publicserver@server@@YAXXZ 004b7a74 f   server1.obj
 0001:000b6aa0       ?newclientinfo@server@@YAPAXXZ 004b7aa0 f   server1.obj
 0001:000b6adb       ?deleteclientinfo@server@@YAXPAX@Z 004b7adb f   server1.obj
 0001:000b6aed       ?getinfo@server@@YAPAUclientinfo@1@H@Z 004b7aed f   server1.obj
 0001:000b6b14       ?msgsizelookup@server@@YAHH@Z 004b7b14 f   server1.obj
 0001:000b6b5c       ?modename@server@@YAPBDHPBD@Z 004b7b5c f   server1.obj
 0001:000b6b73       ?mastermodename@server@@YAPBDHPBD@Z 004b7b73 f   server1.obj
 0001:000b6b8d       ?privname@server@@YAPBDH@Z 004b7b8d f   server1.obj
 0001:000b6ba5       ?sendservmsg@server@@YAXPBD@Z 004b7ba5 f   server1.obj
 0001:000b6bbd       ?resetitems@server@@YAXXZ  004b7bbd f   server1.obj
 0001:000b6bce       ?serveroption@server@@YA_NPBD@Z 004b7bce f   server1.obj
 0001:000b6c51       ?numclients@server@@YAHH_N00@Z 004b7c51 f   server1.obj
 0001:000b6cb2       ?duplicatename@server@@YA_NPAUclientinfo@1@PAD@Z 004b7cb2 f   server1.obj
 0001:000b6cf7       ?colorname@server@@YAPBDPAUclientinfo@1@PAD@Z 004b7cf7 f   server1.obj
 0001:000b6d76       ??1servmode@server@@UAE@XZ 004b7d76 f i server1.obj
 0001:000b6d7d       ?dodebug@rendertarget@@UAEXHH@Z 004b7d7d f i glare.obj
 0001:000b6d7d       ?died@servmode@server@@UAEXPAUclientinfo@2@0@Z 004b7d7d f i server1.obj
 0001:000b6d7d       ?leavegame@servmode@server@@UAEXPAUclientinfo@2@_N@Z 004b7d7d f i server1.obj
 0001:000b6d7d       ?setglare@model@@UAEXMM@Z  004b7d7d f i rendermodel.obj
 0001:000b6d80       ?canspawn@servmode@server@@UAE_NPAUclientinfo@2@_N@Z 004b7d80 f i server1.obj
 0001:000b6d85       ?fragvalue@servmode@server@@UAEHPAUclientinfo@2@0@Z 004b7d85 f i server1.obj
 0001:000b6dd0       ?canchangeteam@servmode@server@@UAE_NPAUclientinfo@2@PBD1@Z 004b7dd0 f i server1.obj
 0001:000b6dd5       ?aifind@clientmode@game@@UAEXPAUfpsent@@AAUaistate@ai@@AAU?$vector@Uinterest@ai@@@@@Z 004b7dd5 f i client1.obj
 0001:000b6dd5       ?changeteam@servmode@server@@UAEXPAUclientinfo@2@PBD1@Z 004b7dd5 f i server1.obj
 0001:000b6dd5       ?drawhud@clientmode@game@@UAEXPAUfpsent@@HH@Z 004b7dd5 f i client1.obj
 0001:000b6dd5       ?initclient@servmode@server@@UAEXPAUclientinfo@2@AAUpacketbuf@@_N@Z 004b7dd5 f i server1.obj
 0001:000b6dd5       ?setenvmap@model@@UAEXMMPAUTexture@@@Z 004b7dd5 f i rendermodel.obj
 0001:000b6dd8       ?getteamscore@servmode@server@@UAEHPBD@Z 004b7dd8 f i server1.obj
 0001:000b6dd8       ?respawnwait@clientmode@game@@UAEHPAUfpsent@@@Z 004b7dd8 f i client1.obj
 0001:000b6dd8       ?getteamscore@clientmode@game@@UAEHPBD@Z 004b7dd8 f i client1.obj
 0001:000b6dd8       ?linktype@animmodel@@UBEHPAU1@@Z 004b7dd8 f i rendermodel.obj
 0001:000b6ddd       ??_Eservmode@server@@UAEPAXI@Z 004b7ddd f i  CIL library: CIL module
 0001:000b6ddd       ??_Gservmode@server@@UAEPAXI@Z 004b7ddd f i server1.obj
 0001:000b6dfa       ?enter@baseinfo@captureservmode@server@@QAE_NPBD@Z 004b7dfa f i server1.obj
 0001:000b6e6e       ?leave@baseinfo@captureservmode@server@@QAE_NPBD@Z 004b7e6e f i server1.obj
 0001:000b6ec3       ?occupy@baseinfo@captureservmode@server@@QAEHPBDH@Z 004b7ec3 f i server1.obj
 0001:000b6f9d       ?getteamscores@captureservmode@server@@UAEXAAU?$vector@Uteamscore@@@@@Z 004b7f9d f i server1.obj
 0001:000b6f9d       ?getteamscores@captureclientmode@game@@UAEXAAU?$vector@Uteamscore@@@@@Z 004b7f9d f i client1.obj
 0001:000b6fe6       ?findscore@captureservmode@server@@QAEAAUscore@12@PBD@Z 004b7fe6 f i server1.obj
 0001:000b70b7       ?addbase@captureservmode@server@@QAEXHABUvec@@@Z 004b80b7 f i server1.obj
 0001:000b7216       ?reset@captureservmode@server@@UAEX_N@Z 004b8216 f i server1.obj
 0001:000b723c       ?stealbase@captureservmode@server@@QAEXHPBD@Z 004b823c f i server1.obj
 0001:000b72c4       ?replenishammo@captureservmode@server@@QAEXPAUclientinfo@2@@Z 004b82c4 f i server1.obj
 0001:000b73de       ?movebases@captureservmode@server@@QAEXPBDABUvec@@_N12@Z 004b83de f i server1.obj
 0001:000b74cf       ?leavebases@captureservmode@server@@QAEXPBDABUvec@@@Z 004b84cf f i server1.obj
 0001:000b74fb       ?enterbases@captureservmode@server@@QAEXPBDABUvec@@@Z 004b84fb f i server1.obj
 0001:000b7527       ?regenowners@captureservmode@server@@QAEXAAUbaseinfo@12@H@Z 004b8527 f i server1.obj
 0001:000b7675       ?update@captureservmode@server@@UAEXXZ 004b8675 f i server1.obj
 0001:000b782c       ?sendbaseinfo@captureservmode@server@@QAEXH@Z 004b882c f i server1.obj
 0001:000b7880       ?initclient@captureservmode@server@@UAEXPAUclientinfo@2@AAUpacketbuf@@_N@Z 004b8880 f i server1.obj
 0001:000b795e       ?endcheck@captureservmode@server@@QAEXXZ 004b895e f i server1.obj
 0001:000b79db       ?entergame@captureservmode@server@@UAEXPAUclientinfo@2@@Z 004b89db f i server1.obj
 0001:000b7a0f       ?spawned@captureservmode@server@@UAEXPAUclientinfo@2@@Z 004b8a0f f i server1.obj
 0001:000b7a3b       ?leavegame@captureservmode@server@@UAEXPAUclientinfo@2@_N@Z 004b8a3b f i server1.obj
 0001:000b7a6f       ?died@captureservmode@server@@UAEXPAUclientinfo@2@0@Z 004b8a6f f i server1.obj
 0001:000b7a9b       ?moved@captureservmode@server@@UAEXPAUclientinfo@2@ABUvec@@_N12@Z 004b8a9b f i server1.obj
 0001:000b7ac6       ?changeteam@captureservmode@server@@UAEXPAUclientinfo@2@PBD1@Z 004b8ac6 f i server1.obj
 0001:000b7afc       ?parsebases@captureservmode@server@@QAEXAAU?$databuf@E@@_N@Z 004b8afc f i server1.obj
 0001:000b7c2a       ?extinfoteam@captureservmode@server@@UAE_NPBDAAU?$databuf@E@@@Z 004b8c2a f i server1.obj
 0001:000b7caf       ?reset@flag@ctfservmode@server@@QAEXXZ 004b8caf f i server1.obj
 0001:000b7cf5       ?addflag@ctfservmode@server@@QAE_NHABUvec@@HH@Z 004b8cf5 f i server1.obj
 0001:000b7dcf       ?addholdspawn@ctfservmode@server@@QAE_NABUvec@@@Z 004b8dcf f i server1.obj
 0001:000b7e25       ?getteamscore@ctfservmode@server@@UAEHPBD@Z 004b8e25 f i server1.obj
 0001:000b7e25       ?getteamscore@ctfclientmode@game@@UAEHPBD@Z 004b8e25 f i client1.obj
 0001:000b7e6e       ?reset@ctfservmode@server@@UAEX_N@Z 004b8e6e f i server1.obj
 0001:000b7e9a       ?dropflag@ctfservmode@server@@QAEXPAUclientinfo@2@@Z 004b8e9a f i server1.obj
 0001:000b801e       ?leavegame@ctfservmode@server@@UAEXPAUclientinfo@2@_N@Z 004b901e f i server1.obj
 0001:000b801e       ?died@ctfservmode@server@@UAEXPAUclientinfo@2@0@Z 004b901e f i server1.obj
 0001:000b8056       ?canchangeteam@ctfservmode@server@@UAE_NPAUclientinfo@2@PBD1@Z 004b9056 f i server1.obj
 0001:000b808f       ?changeteam@ctfservmode@server@@UAEXPAUclientinfo@2@PBD1@Z 004b908f f i server1.obj
 0001:000b809c       ?spawnflag@ctfservmode@server@@QAEXH@Z 004b909c f i server1.obj
 0001:000b80db       ?scoreflag@ctfservmode@server@@QAEXPAUclientinfo@2@HH@Z 004b90db f i server1.obj
 0001:000b821d       ?takeflag@ctfservmode@server@@QAEXPAUclientinfo@2@HH@Z 004b921d f i server1.obj
 0001:000b846e       ?update@ctfservmode@server@@UAEXXZ 004b946e f i server1.obj
 0001:000b869f       ?initclient@ctfservmode@server@@UAEXPAUclientinfo@2@AAUpacketbuf@@_N@Z 004b969f f i server1.obj
 0001:000b877c       ?parseflags@ctfservmode@server@@QAEXAAU?$databuf@E@@_N@Z 004b977c f i server1.obj
 0001:000b8921       ??_Ectfservmode@server@@UAEPAXI@Z 004b9921 f i  CIL library: CIL module
 0001:000b8921       ??_Gctfservmode@server@@UAEPAXI@Z 004b9921 f i server1.obj
 0001:000b8921       ??_Gcaptureservmode@server@@UAEPAXI@Z 004b9921 f i server1.obj
 0001:000b8921       ??_Ecaptureservmode@server@@UAEPAXI@Z 004b9921 f i  CIL library: CIL module
 0001:000b893e       ??1ctfservmode@server@@UAE@XZ 004b993e f i server1.obj
 0001:000b893e       ??1captureservmode@server@@UAE@XZ 004b993e f i server1.obj
 0001:000b89a3       ?canspawnitem@server@@YA_NH@Z 004b99a3 f   server1.obj
 0001:000b89e6       ?spawntime@server@@YAHH@Z  004b99e6 f   server1.obj
 0001:000b8a7c       ?delayspawn@server@@YA_NH@Z 004b9a7c f   server1.obj
 0001:000b8ab6       ?pickup@server@@YA_NHH@Z   004b9ab6 f   server1.obj
 0001:000b8b8a       ?choosebestclient@server@@YAPAUclientinfo@1@AAM@Z 004b9b8a f   server1.obj
 0001:000b8c01       ?autoteam@server@@YAXXZ    004b9c01 f   server1.obj
 0001:000b8dac       ?chooseworstteam@server@@YAPBDPBDPAUclientinfo@1@@Z 004b9dac f   server1.obj
 0001:000b8ee3       ?writedemo@server@@YAXHPAXH@Z 004b9ee3 f   server1.obj
 0001:000b8f20       ?enddemorecord@server@@YAXXZ 004b9f20 f   server1.obj
 0001:000b90d0       ?setupdemorecord@server@@YAXXZ 004ba0d0 f   server1.obj
 0001:000b9200       ?listdemos@server@@YAXH@Z  004ba200 f   server1.obj
 0001:000b928c       ?cleardemos@server@@YAXH@Z 004ba28c f   server1.obj
 0001:000b9356       ?senddemo@server@@YAXHH@Z  004ba356 f   server1.obj
 0001:000b93a2       ?enddemoplayback@server@@YAXXZ 004ba3a2 f   server1.obj
 0001:000b9431       ?setupdemoplayback@server@@YAXXZ 004ba431 f   server1.obj
 0001:000b95e0       ?readdemo@server@@YAXXZ    004ba5e0 f   server1.obj
 0001:000b96ce       ?stopdemo@server@@YAXXZ    004ba6ce f   server1.obj
 0001:000b96f9       ?pausegame@server@@YAX_N@Z 004ba6f9 f   server1.obj
 0001:000b9722       ?hashpassword@server@@YAXHHPBDPADH@Z 004ba722 f   server1.obj
 0001:000b97be       ?checkpassword@server@@YA_NPAUclientinfo@1@PBD1@Z 004ba7be f   server1.obj
 0001:000b97f4       ?revokemaster@server@@YAXPAUclientinfo@1@@Z 004ba7f4 f   server1.obj
 0001:000b9817       ?setmaster@server@@YAXPAUclientinfo@1@_NPBD2@Z 004ba817 f   server1.obj
 0001:000b9aac       ?findscore@server@@YAAAUsavedscore@1@PAUclientinfo@1@_N@Z 004baaac f   server1.obj
 0001:000b9c49       ?checktype@server@@YAHHPAUclientinfo@1@@Z 004bac49 f   server1.obj
 0001:000b9ccc       ?cleanworldstate@server@@YAXPAU_ENetPacket@@@Z 004baccc f   server1.obj
 0001:000b9d41       ??_Gworldstate@server@@QAEPAXI@Z 004bad41 f i server1.obj
 0001:000b9d7f       ?flushclientposition@server@@YAXAAUclientinfo@1@@Z 004bad7f f   server1.obj
 0001:000b9e07       ?addclientstate@server@@YAXAAUworldstate@1@AAUclientinfo@1@@Z 004bae07 f   server1.obj
 0001:000b9ea9       ?buildworldstate@server@@YA_NXZ 004baea9 f   server1.obj
 0001:000ba23d       ?sendpackets@server@@YA_N_N@Z 004bb23d f   server1.obj
 0001:000ba294       ?spawnstate@server@@YAXPAUclientinfo@1@@Z 004bb294 f   server1.obj
 0001:000ba2b3       ?sendspawn@server@@YAXPAUclientinfo@1@@Z 004bb2b3 f   server1.obj
 0001:000ba309       ?sendwelcome@server@@YAXPAUclientinfo@1@@Z 004bb309 f   server1.obj
 0001:000ba360       ?putinitclient@server@@YAXPAUclientinfo@1@AAUpacketbuf@@@Z 004bb360 f   server1.obj
 0001:000ba3ef       ?welcomepacket@server@@YAHAAUpacketbuf@@PAUclientinfo@1@@Z 004bb3ef f   server1.obj
 0001:000ba7f4       ?sendresume@server@@YAXPAUclientinfo@1@@Z 004bb7f4 f   server1.obj
 0001:000ba851       ?sendinitclient@server@@YAXPAUclientinfo@1@@Z 004bb851 f   server1.obj
 0001:000ba8a7       ?changemap@server@@YAXPBDH@Z 004bb8a7 f   server1.obj
 0001:000bab1d       ?checkvotes@server@@YAX_N@Z 004bbb1d f   server1.obj
 0001:000bad96       ?forcemap@server@@YAXPBDH@Z 004bbd96 f   server1.obj
 0001:000bae24       ?vote@server@@YAXPADHH@Z   004bbe24 f   server1.obj
 0001:000bafe1       ?checkintermission@server@@YAXXZ 004bbfe1 f   server1.obj
 0001:000bb02b       ?startintermission@server@@YAXXZ 004bc02b f   server1.obj
 0001:000bb042       ?dodamage@server@@YAXPAUclientinfo@1@0HHABUvec@@@Z 004bc042 f   server1.obj
 0001:000bb2c5       ?suicide@server@@YAXPAUclientinfo@1@@Z 004bc2c5 f   server1.obj
 0001:000bb338       ?process@suicideevent@server@@UAEXPAUclientinfo@2@@Z 004bc338 f   server1.obj
 0001:000bb346       ?process@explodeevent@server@@UAEXPAUclientinfo@2@@Z 004bc346 f   server1.obj
 0001:000bb4ac       ?process@shotevent@server@@UAEXPAUclientinfo@2@@Z 004bc4ac f   server1.obj
 0001:000bb6f0       ?process@pickupevent@server@@UAEXPAUclientinfo@2@@Z 004bc6f0 f   server1.obj
 0001:000bb734       ?flush@gameevent@server@@UAE_NPAUclientinfo@2@H@Z 004bc734 f   server1.obj
 0001:000bb742       ?flush@timedevent@server@@UAE_NPAUclientinfo@2@H@Z 004bc742 f   server1.obj
 0001:000bb76c       ?flushevents@server@@YAXPAUclientinfo@1@H@Z 004bc76c f   server1.obj
 0001:000bb7cd       ?processevents@server@@YAXXZ 004bc7cd f   server1.obj
 0001:000bb81b       ?cleartimedevents@server@@YAXPAUclientinfo@1@@Z 004bc81b f   server1.obj
 0001:000bb8e8       ?serverupdate@server@@YAXXZ 004bc8e8 f   server1.obj
 0001:000bbbe7       ?compare@crcinfo@server@@SAHPBU12@0@Z 004bcbe7 f i server1.obj
 0001:000bbc07       ?checkmaps@server@@YAXH@Z  004bcc07 f   server1.obj
 0001:000bbf30       ?sendservinfo@server@@YAXPAUclientinfo@1@@Z 004bcf30 f   server1.obj
 0001:000bbf64       ?localconnect@server@@YAXH@Z 004bcf64 f   server1.obj
 0001:000bbfd9       ?clientconnect@server@@YAHHI@Z 004bcfd9 f   server1.obj
 0001:000bc06a       ?clientdisconnect@server@@YAXH@Z 004bd06a f   server1.obj
 0001:000bc146       ?checkgban@server@@YA_NI@Z 004bd146 f   server1.obj
 0001:000bc172       ?addgban@server@@YAXPBD@Z  004bd172 f   server1.obj
 0001:000bc299       ?allowconnect@server@@YAHPAUclientinfo@1@PBD@Z 004bd299 f   server1.obj
 0001:000bc3a2       ?findauth@server@@YAPAUclientinfo@1@I@Z 004bd3a2 f   server1.obj
 0001:000bc3d2       ?tryauth@server@@YAXPAUclientinfo@1@PBD@Z 004bd3d2 f   server1.obj
 0001:000bc439       ?answerchallenge@server@@YAXPAUclientinfo@1@IPAD@Z 004bd439 f   server1.obj
 0001:000bc49f       ?processmasterinput@server@@YAXPBDH0@Z 004bd49f f   server1.obj
 0001:000bc5bb       ?receivefile@server@@YAXHPAEH@Z 004bd5bb f   server1.obj
 0001:000bc6b3       ?sendclipboard@server@@YAXPAUclientinfo@1@@Z 004bd6b3 f   server1.obj
 0001:000bc731       ?parsepacket@server@@YAXHHAAUpacketbuf@@@Z 004bd731 f   server1.obj
 0001:000bebf5       ??_Esuicideevent@server@@UAEPAXI@Z 004bfbf5 f i  CIL library: CIL module
 0001:000bebf5       ??_Gsuicideevent@server@@UAEPAXI@Z 004bfbf5 f i server1.obj
 0001:000bebf5       ??_Epickupevent@server@@UAEPAXI@Z 004bfbf5 f i  CIL library: CIL module
 0001:000bebf5       ??_Gpickupevent@server@@UAEPAXI@Z 004bfbf5 f i server1.obj
 0001:000bec2e       ??_Eshotevent@server@@UAEPAXI@Z 004bfc2e f i  CIL library: CIL module
 0001:000bec2e       ??_Gshotevent@server@@UAEPAXI@Z 004bfc2e f i server1.obj
 0001:000bec73       ??0timedevent@server@@QAE@XZ 004bfc73 f i server1.obj
 0001:000beca2       ??1timedevent@server@@UAE@XZ 004bfca2 f i server1.obj
 0001:000becc7       ??_Eexplodeevent@server@@UAEPAXI@Z 004bfcc7 f i  CIL library: CIL module
 0001:000becc7       ??_Gexplodeevent@server@@UAEPAXI@Z 004bfcc7 f i server1.obj
 0001:000bed0c       ??_Etimedevent@server@@UAEPAXI@Z 004bfd0c f i  CIL library: CIL module
 0001:000bed0c       ??_Gtimedevent@server@@UAEPAXI@Z 004bfd0c f i server1.obj
 0001:000bed29       ?extinfoplayer@server@@YAXAAU?$databuf@E@@PAUclientinfo@1@@Z 004bfd29 f   server1.obj
 0001:000bee18       ?extinfoteams@server@@YAXAAU?$databuf@E@@@Z 004bfe18 f   server1.obj
 0001:000bf050       ?extserverinforeply@server@@YAXAAU?$databuf@E@@0@Z 004c0050 f   server1.obj
 0001:000bf173       ?serverinforeply@server@@YAXAAU?$databuf@E@@0@Z 004c0173 f   server1.obj
 0001:000bf257       ?calcteams@aiman@server@@YAXAAU?$vector@Uteamscore@@@@@Z 004c0257 f   server1.obj
 0001:000bf34e       ?balanceteams@aiman@server@@YAXXZ 004c034e f   server1.obj
 0001:000bf51f       ?chooseteam@aiman@server@@YAPBDXZ 004c051f f   server1.obj
 0001:000bf5b0       ?findaiclient@aiman@server@@YAPAUclientinfo@2@PAU32@@Z 004c05b0 f   server1.obj
 0001:000bf5f9       ?addai@aiman@server@@YA_NHH@Z 004c05f9 f   server1.obj
 0001:000bf804       ?deleteai@aiman@server@@YAXPAUclientinfo@2@@Z 004c0804 f   server1.obj
 0001:000bf8ac       ?reinitai@aiman@server@@YAXPAUclientinfo@2@@Z 004c08ac f   server1.obj
 0001:000bf95e       ?shiftai@aiman@server@@YAXPAUclientinfo@2@0@Z 004c095e f   server1.obj
 0001:000bf9b6       ?removeai@aiman@server@@YAXPAUclientinfo@2@@Z 004c09b6 f   server1.obj
 0001:000bf9df       ?reassignai@aiman@server@@YA_NXZ 004c09df f   server1.obj
 0001:000bfa6b       ?checksetup@aiman@server@@YAXXZ 004c0a6b f   server1.obj
 0001:000bfab8       ?clearai@aiman@server@@YAXXZ 004c0ab8 f   server1.obj
 0001:000bfadb       ?reqadd@aiman@server@@YAXPAUclientinfo@2@H@Z 004c0adb f   server1.obj
 0001:000bfb2d       ?reqdel@aiman@server@@YAXPAUclientinfo@2@@Z 004c0b2d f   server1.obj
 0001:000bfb83       ?setbotlimit@aiman@server@@YAXPAUclientinfo@2@H@Z 004c0b83 f   server1.obj
 0001:000bfbf2       ?setbotbalance@aiman@server@@YAXPAUclientinfo@2@_N@Z 004c0bf2 f   server1.obj
 0001:000bfc5e       ?changemap@aiman@server@@YAXXZ 004c0c5e f   server1.obj
 0001:000bfca5       ?add@?$vector@Uhitinfo@server@@@@QAEAAUhitinfo@server@@XZ 004c0ca5 f i server1.obj
 0001:000bfce3       ?remove@?$projectilestate@$07@server@@QAE_NH@Z 004c0ce3 f i server1.obj
 0001:000bfd0f       ?deletecontents@?$vector@PAUgameevent@server@@@@QAEXXZ 004c0d0f f i server1.obj
 0001:000bfd2f       ?add@?$vector@I@@QAEAAIABI@Z 004c0d2f f i server1.obj
 0001:000bfd75       ?removeobj@?$vector@I@@QAEXABI@Z 004c0d75 f i server1.obj
 0001:000bfdbe       ?remove@?$vector@Udemofile@server@@@@QAE?AUdemofile@server@@H@Z 004c0dbe f i server1.obj
 0001:000bfe1a       ?add@?$vector@Userver_entity@server@@@@QAEAAUserver_entity@server@@ABU23@@Z 004c0e1a f i server1.obj
 0001:000bfe62       ?add@?$vector@Ubaseinfo@captureservmode@server@@@@QAEAAUbaseinfo@captureservmode@server@@XZ 004c0e62 f i server1.obj
 0001:000bfee8       ?growbuf@?$vector@Umd5joint@@@@QAEXH@Z 004c0ee8 f i rendermodel.obj
 0001:000bfee8       ?growbuf@?$vector@Uhitinfo@server@@@@QAEXH@Z 004c0ee8 f i server1.obj
 0001:000bff3e       ?growbuf@?$vector@I@@QAEXH@Z 004c0f3e f i server1.obj
 0001:000bffa2       ?growbuf@?$vector@Uban@server@@@@QAEXH@Z 004c0fa2 f i server1.obj
 0001:000c0006       ?growbuf@?$vector@Udemofile@server@@@@QAEXH@Z 004c1006 f i server1.obj
 0001:000c006e       ?growbuf@?$vector@Userver_entity@server@@@@QAEXH@Z 004c106e f i server1.obj
 0001:000c00d0       ?growbuf@?$vector@Ubaseinfo@captureservmode@server@@@@QAEXH@Z 004c10d0 f i server1.obj
 0001:000c012c       ?growbuf@?$vector@Ucubeface@@@@QAEXH@Z 004c112c f i octa.obj
 0001:000c012c       ?growbuf@?$vector@Ueditline@@@@QAEXH@Z 004c112c f i 3dgui.obj
 0001:000c012c       ?growbuf@?$vector@Utri@ragdollskel@@@@QAEXH@Z 004c112c f i rendermodel.obj
 0001:000c012c       ?growbuf@?$vector@Usoundslot@@@@QAEXH@Z 004c112c f i sound.obj
 0001:000c012c       ?growbuf@?$vector@Uobstacle@avoidset@ai@@@@QAEXH@Z 004c112c f i ai.obj
 0001:000c012c       ?growbuf@?$vector@Uholdspawn@ctfservmode@server@@@@QAEXH@Z 004c112c f i server1.obj
 0001:000c012c       ?growbuf@?$vector@Uskelanimspec@skelmodel@@@@QAEXH@Z 004c112c f i rendermodel.obj
 0001:000c012c       ?growbuf@?$vector@Uaviindexentry@@@@QAEXH@Z 004c112c f i movie.obj
 0001:000c012c       ?growbuf@?$vector@Uvec@@@@QAEXH@Z 004c112c f i worldio.obj
 0001:000c0182       ??$sendstate@Upacketbuf@@@server@@YAXAAUgamestate@0@AAUpacketbuf@@@Z 004c1182 f i server1.obj
 0001:000c01cf       ??$sendstate@U?$vector@E@@@server@@YAXAAUgamestate@0@AAU?$vector@E@@@Z 004c11cf f i server1.obj
 0001:000c021c       ?addammo@fpsstate@@QAEXHHH@Z 004c121c f i server1.obj
 0001:000c0249       ?getweight@ai@@YAHABUvec@@@Z 004c1249 f   waypoint.obj
 0001:000c0757       ?clearwpcache@ai@@YAXXZ    004c1757 f   waypoint.obj
 0001:000c07af       ?buildwpcache@ai@@YAXXZ    004c17af f   waypoint.obj
 0001:000c08a3       ?closestwaypoint@ai@@YAHABUvec@@M_NPAUfpsent@@@Z 004c18a3 f   waypoint.obj
 0001:000c0ba5       ?findwaypointswithin@ai@@YAXABUvec@@MMAAU?$vector@H@@@Z 004c1ba5 f   waypoint.obj
 0001:000c0dc1       ?avoidnear@avoidset@ai@@QAEXPAXMABUvec@@M@Z 004c1dc1 f   waypoint.obj
 0001:000c0f84       ?remap@avoidset@ai@@QAEHPAUfpsent@@HAAUvec@@_N@Z 004c1f84 f   waypoint.obj
 0001:000c1111       ?route@ai@@YA_NPAUfpsent@@HHAAU?$vector@H@@ABUavoidset@1@_N@Z 004c2111 f   waypoint.obj
 0001:000c15f1       ?addwaypoint@ai@@YAHABUvec@@H@Z 004c25f1 f   waypoint.obj
 0001:000c1636       ?linkwaypoint@ai@@YAXAAUwaypoint@1@H@Z 004c2636 f   waypoint.obj
 0001:000c169c       ?inferwaypoints@ai@@YAXPAUfpsent@@ABUvec@@1M@Z 004c269c f   waypoint.obj
 0001:000c17da       ?navigate@ai@@YAXPAUfpsent@@@Z 004c27da f   waypoint.obj
 0001:000c1983       ?run@?$_icmd_clearwaypoints@$0CCJ@@ai@@SAXXZ 004c2983 f   waypoint.obj
 0001:000c198f       ?seedwaypoints@ai@@YAXXZ   004c298f f   waypoint.obj
 0001:000c1a07       ?remapwaypoints@ai@@YAXXZ  004c2a07 f   waypoint.obj
 0001:000c1afe       ?getwaypointfile@ai@@YA_NPBDPAD@Z 004c2afe f   waypoint.obj
 0001:000c1b64       ?loadwaypoints@ai@@YAX_NPBD@Z 004c2b64 f   waypoint.obj
 0001:000c1d0d       ?run@?$_icmd_loadwaypoints@$0CJL@@ai@@SAXPAD@Z 004c2d0d f   waypoint.obj
 0001:000c1d1a       ?savewaypoints@ai@@YAX_NPBD@Z 004c2d1a f   waypoint.obj
 0001:000c1e4b       ?run@?$_icmd_savewaypoints@$0CLI@@ai@@SAXPAD@Z 004c2e4b f   waypoint.obj
 0001:000c1e59       ?delselwaypoints@ai@@YAXXZ 004c2e59 f   waypoint.obj
 0001:000c1f91       ?add@?$vector@Uwaypoint@ai@@@@QAEAAUwaypoint@ai@@ABU23@@Z 004c2f91 f i waypoint.obj
 0001:000c1fdb       ?add@?$vector@PAUwpcachenode@ai@@@@QAEAAPAUwpcachenode@ai@@ABQAU23@@Z 004c2fdb f i waypoint.obj
 0001:000c2021       ?add@?$vector@PAUwaypoint@ai@@@@QAEAAPAUwaypoint@ai@@ABQAU23@@Z 004c3021 f i waypoint.obj
 0001:000c2067       ?upheap@?$vector@PAUwaypoint@ai@@@@QAEHH@Z 004c3067 f i waypoint.obj
 0001:000c20ce       ?growbuf@?$vector@Uwaypoint@ai@@@@QAEXH@Z 004c30ce f i waypoint.obj
 0001:000c2130       ?growbuf@?$vector@PAUwpcachenode@ai@@@@QAEXH@Z 004c3130 f i waypoint.obj
 0001:000c2194       ?growbuf@?$vector@PAUwaypoint@ai@@@@QAEXH@Z 004c3194 f i waypoint.obj
 0001:000c21f8       ?downheap@?$vector@PAUwaypoint@ai@@@@QAEHH@Z 004c31f8 f i waypoint.obj
 0001:000c22ce       ??0waypoint@ai@@QAE@ABUvec@@H@Z 004c32ce f i waypoint.obj
 0001:000c22f4       ?add@avoidset@ai@@QAEXPAXMH@Z 004c32f4 f i waypoint.obj
 0001:000c233a       ?run@?$_icmd_getweapon@$0BE@@game@@SAXXZ 004c333a f   weapon.obj
 0001:000c234c       ?gunselect@game@@YAXHPAUfpsent@@@Z 004c334c f   weapon.obj
 0001:000c2381       ?nextweapon@game@@YAXH_N@Z 004c3381 f   weapon.obj
 0001:000c23f6       ?run@?$_icmd_nextweapon@$0CN@@game@@SAXPAH0@Z 004c33f6 f   weapon.obj
 0001:000c2412       ?getweapon@game@@YAHPBD@Z  004c3412 f   weapon.obj
 0001:000c2489       ?run@?$_icmd_setweapon@$0DO@@game@@SAXPADPAH@Z 004c3489 f   weapon.obj
 0001:000c24e2       ?cycleweapon@game@@YAXHPAH_N@Z 004c34e2 f   weapon.obj
 0001:000c2568       ?run@?$_icmd_cycleweapon@$0FM@@game@@SAXPAD000000@Z 004c3568 f   weapon.obj
 0001:000c25fc       ?weaponswitch@game@@YAXPAUfpsent@@@Z 004c35fc f   weapon.obj
 0001:000c2673       ?run@?$_icmd_weapon@$0IA@@game@@SAXPAD000000@Z 004c3673 f   weapon.obj
 0001:000c27ee       ?offsetray@game@@YAXABUvec@@0HMAAU2@@Z 004c37ee f   weapon.obj
 0001:000c28fa       ?createrays@game@@YAXABUvec@@0@Z 004c38fa f   weapon.obj
 0001:000c2921       ??0bouncer@game@@QAE@XZ    004c3921 f i weapon.obj
 0001:000c2972       ?newbouncer@game@@YAXABUvec@@0_NHPAUfpsent@@HHHPAUentitylight@@@Z 004c3972 f   weapon.obj
 0001:000c2bd9       ?bounced@game@@YAXPAUphysent@@ABUvec@@@Z 004c3bd9 f   weapon.obj
 0001:000c2c97       ?updatebouncers@game@@YAXH@Z 004c3c97 f   weapon.obj
 0001:000c2f4b       ?clearbouncers@game@@YAXXZ 004c3f4b f   weapon.obj
 0001:000c2f71       ?newprojectile@game@@YAXABUvec@@0M_NHPAUfpsent@@H@Z 004c3f71 f   weapon.obj
 0001:000c3053       ?damageeffect@game@@YAXHPAUfpsent@@_N@Z 004c4053 f   weapon.obj
 0001:000c3108       ?spawnbouncer@game@@YAXABUvec@@0PAUfpsent@@HPAUentitylight@@@Z 004c4108 f   weapon.obj
 0001:000c31dd       ?gibeffect@game@@YAXHABUvec@@PAUfpsent@@@Z 004c41dd f   weapon.obj
 0001:000c3234       ?hit@game@@YAXHPAUdynent@@PAUfpsent@@ABUvec@@HMH@Z 004c4234 f   weapon.obj
 0001:000c342e       ?hitpush@game@@YAXHPAUdynent@@PAUfpsent@@AAUvec@@2HH@Z 004c442e f   weapon.obj
 0001:000c348a       ?projdist@game@@YAMPAUdynent@@AAUvec@@ABU3@@Z 004c448a f   weapon.obj
 0001:000c34e3       ?explode@game@@YAX_NPAUfpsent@@ABUvec@@PAUdynent@@HH@Z 004c44e3 f   weapon.obj
 0001:000c3856       ?projsplash@game@@YAXAAUprojectile@1@AAUvec@@PAUdynent@@H@Z 004c4856 f   weapon.obj
 0001:000c3919       ?explodeeffects@game@@YAXHPAUfpsent@@_NH@Z 004c4919 f   weapon.obj
 0001:000c3b2b       ?updateprojectiles@game@@YAXH@Z 004c4b2b f   weapon.obj
 0001:000c3f2e       ?shoteffects@game@@YAXHABUvec@@0PAUfpsent@@_NHH@Z 004c4f2e f   weapon.obj
 0001:000c4716       ?particletrack@game@@YAXPAUphysent@@AAUvec@@1@Z 004c5716 f   weapon.obj
 0001:000c47ec       ?intersect@game@@YA_NPAUdynent@@ABUvec@@1AAM@Z 004c57ec f   weapon.obj
 0001:000c4833       ?intersectclosest@game@@YAPAUdynent@@ABUvec@@0PAUfpsent@@AAM@Z 004c5833 f   weapon.obj
 0001:000c48c0       ?shorten@game@@YAXAAUvec@@0M@Z 004c58c0 f   weapon.obj
 0001:000c4913       ?raydamage@game@@YAXAAUvec@@0PAUfpsent@@@Z 004c5913 f   weapon.obj
 0001:000c4b43       ?shoot@game@@YAXPAUfpsent@@ABUvec@@@Z 004c5b43 f   weapon.obj
 0001:000c4ed5       ?adddynlights@game@@YAXXZ  004c5ed5 f   weapon.obj
 0001:000c508b       ?renderbouncers@game@@YAXXZ 004c608b f   weapon.obj
 0001:000c523c       ?renderprojectiles@game@@YAXXZ 004c623c f   weapon.obj
 0001:000c538f       ?checkattacksound@game@@YAXPAUfpsent@@_N@Z 004c638f f   weapon.obj
 0001:000c540e       ?checkidlesound@game@@YAXPAUfpsent@@_N@Z 004c640e f   weapon.obj
 0001:000c54de       ?removeweapons@game@@YAXPAUfpsent@@@Z 004c64de f   weapon.obj
 0001:000c5555       ?updateweapons@game@@YAXH@Z 004c6555 f   weapon.obj
 0001:000c55d1       ?avoidweapons@game@@YAXAAUavoidset@ai@@M@Z 004c65d1 f   weapon.obj
 0001:000c5676       ?add@?$vector@Uhitmsg@game@@@@QAEAAUhitmsg@game@@XZ 004c6676 f i weapon.obj
 0001:000c56ba       ?remove@?$vector@PAUbouncer@game@@@@QAEPAUbouncer@game@@H@Z 004c66ba f i weapon.obj
 0001:000c56eb       ?add@?$vector@Uprojectile@game@@@@QAEAAUprojectile@game@@XZ 004c66eb f i weapon.obj
 0001:000c575f       ?remove@?$vector@Uprojectile@game@@@@QAE?AUprojectile@game@@H@Z 004c675f f i weapon.obj
 0001:000c57af       ?growbuf@?$vector@Uhitmsg@game@@@@QAEXH@Z 004c67af f i weapon.obj
 0001:000c5811       ?growbuf@?$vector@PAUbouncer@game@@@@QAEXH@Z 004c6811 f i weapon.obj
 0001:000c5875       ?growbuf@?$vector@Uprojectile@game@@@@QAEXH@Z 004c6875 f i weapon.obj
 0001:000c58d7       ?stopidlesound@fpsent@@QAEXXZ 004c68d7 f i weapon.obj
 0001:000c5900       _enet_host_compress        004c6900 f   enet:host.o
 0001:000c5950       _enet_host_channel_limit   004c6950 f   enet:host.o
 0001:000c597c       _enet_host_bandwidth_limit 004c697c f   enet:host.o
 0001:000c5998       _enet_host_bandwidth_throttle 004c6998 f   enet:host.o
 0001:000c5d80       _enet_host_broadcast       004c6d80 f   enet:host.o
 0001:000c5e10       _enet_host_connect         004c6e10 f   enet:host.o
 0001:000c6054       _enet_host_destroy         004c7054 f   enet:host.o
 0001:000c60f8       _enet_host_create          004c70f8 f   enet:host.o
 0001:000c6474       _enet_peer_throttle        004c7474 f   enet:peer.o
 0001:000c64ec       _enet_peer_queue_acknowledgement 004c74ec f   enet:peer.o
 0001:000c65a8       _enet_peer_dispatch_incoming_unreliable_commands 004c75a8 f   enet:peer.o
 0001:000c6628       _enet_peer_setup_outgoing_command 004c7628 f   enet:peer.o
 0001:000c675c       _enet_peer_receive         004c775c f   enet:peer.o
 0001:000c67c4       _enet_peer_dispatch_incoming_reliable_commands 004c77c4 f   enet:peer.o
 0001:000c68f8       _enet_peer_queue_incoming_command 004c78f8 f   enet:peer.o
 0001:000c6c34       _enet_peer_reset_queues    004c7c34 f   enet:peer.o
 0001:000c6f80       _enet_peer_reset           004c7f80 f   enet:peer.o
 0001:000c70dc       _enet_peer_queue_outgoing_command 004c80dc f   enet:peer.o
 0001:000c728c       _enet_peer_ping            004c828c f   enet:peer.o
 0001:000c72c8       _enet_peer_disconnect      004c82c8 f   enet:peer.o
 0001:000c7370       _enet_peer_disconnect_now  004c8370 f   enet:peer.o
 0001:000c7530       _enet_peer_send            004c8530 f   enet:peer.o
 0001:000c7814       _enet_peer_throttle_configure 004c8814 f   enet:peer.o
 0001:000c79f0       _enet_peer_disconnect_later 004c89f0 f   enet:peer.o
 0001:000c7af8       _enet_socketset_select     004c8af8 f   enet:win32.o
 0001:000c7b4c       _enet_socket_wait          004c8b4c f   enet:win32.o
 0001:000c7c60       _enet_socket_receive       004c8c60 f   enet:win32.o
 0001:000c7d14       _enet_socket_send          004c8d14 f   enet:win32.o
 0001:000c7dac       _enet_socket_destroy       004c8dac f   enet:win32.o
 0001:000c7dbc       _enet_socket_accept        004c8dbc f   enet:win32.o
 0001:000c7e1c       _enet_socket_connect       004c8e1c f   enet:win32.o
 0001:000c7e74       _enet_socket_set_option    004c8e74 f   enet:win32.o
 0001:000c7f48       _enet_socket_create        004c8f48 f   enet:win32.o
 0001:000c7f64       _enet_socket_listen        004c8f64 f   enet:win32.o
 0001:000c7f90       _enet_socket_bind          004c8f90 f   enet:win32.o
 0001:000c8000       _enet_address_get_host_ip  004c9000 f   enet:win32.o
 0001:000c803c       _enet_address_set_host     004c903c f   enet:win32.o
 0001:000c8084       _enet_time_set             004c9084 f   enet:win32.o
 0001:000c809c       _enet_time_get             004c909c f   enet:win32.o
 0001:000c80b0       _enet_deinitialize         004c90b0 f   enet:win32.o
 0001:000c80c4       _enet_initialize           004c90c4 f   enet:win32.o
 0001:000c8114       _enet_address_get_host     004c9114 f   enet:win32.o
 0001:000c8180       _enet_protocol_command_size 004c9180 f   enet:protocol.o
 0001:000c85e0       _enet_host_check_events    004c95e0 f   enet:protocol.o
 0001:000c9168       _enet_host_flush           004ca168 f   enet:protocol.o
 0001:000c9188       _enet_host_service         004ca188 f   enet:protocol.o
 0001:000caa3c       _enet_crc32                004cba3c f   enet:packet.o
 0001:000cac10       _enet_packet_resize        004cbc10 f   enet:packet.o
 0001:000cac80       _enet_packet_destroy       004cbc80 f   enet:packet.o
 0001:000cacbc       _enet_packet_create        004cbcbc f   enet:packet.o
 0001:000cad44       _enet_malloc               004cbd44 f   enet:callbacks.o
 0001:000cad6c       _enet_free                 004cbd6c f   enet:callbacks.o
 0001:000cad74       _enet_initialize_with_callbacks 004cbd74 f   enet:callbacks.o
 0001:000cadbc       _enet_list_clear           004cbdbc f   enet:list.o
 0001:000cadc8       _enet_list_insert          004cbdc8 f   enet:list.o
 0001:000cade0       _enet_list_remove          004cbde0 f   enet:list.o
 0001:000cadf4       _enet_list_move            004cbdf4 f   enet:list.o
 0001:000cae20       _enet_list_size            004cbe20 f   enet:list.o
 0001:000cae38       _SDL_Init                  004cbe38 f   SDL:SDL.dll
 0001:000cae3e       _SDL_SetModuleHandle       004cbe3e f   SDL:SDL.dll
 0001:000cae44       _SDL_strlcpy               004cbe44 f   SDL:SDL.dll
 0001:000cae4a       _SDL_GetError              004cbe4a f   SDL:SDL.dll
 0001:000cae50       _SDL_Quit                  004cbe50 f   SDL:SDL.dll
 0001:000cae56       _SDL_GetTicks              004cbe56 f   SDL:SDL.dll
 0001:000cae5c       _SDL_mutexP                004cbe5c f   SDL:SDL.dll
 0001:000cae62       _SDL_mutexV                004cbe62 f   SDL:SDL.dll
 0001:000cae68       _SDL_CondSignal            004cbe68 f   SDL:SDL.dll
 0001:000cae6e       _SDL_CondWait              004cbe6e f   SDL:SDL.dll
 0001:000cae74       _SDL_CondBroadcast         004cbe74 f   SDL:SDL.dll
 0001:000cae7a       _SDL_CondWaitTimeout       004cbe7a f   SDL:SDL.dll
 0001:000cae80       _SDL_DestroyCond           004cbe80 f   SDL:SDL.dll
 0001:000cae86       _SDL_CreateCond            004cbe86 f   SDL:SDL.dll
 0001:000cae8c       _SDL_CreateThread          004cbe8c f   SDL:SDL.dll
 0001:000cae92       _SDL_DestroyMutex          004cbe92 f   SDL:SDL.dll
 0001:000cae98       _SDL_CreateMutex           004cbe98 f   SDL:SDL.dll
 0001:000cae9e       _SDL_WaitThread            004cbe9e f   SDL:SDL.dll
 0001:000caea4       _SDL_AddTimer              004cbea4 f   SDL:SDL.dll
 0001:000caeaa       _SDL_RemoveTimer           004cbeaa f   SDL:SDL.dll
 0001:000caeb0       _SDL_Delay                 004cbeb0 f   SDL:SDL.dll
 0001:000caeb6       _SDL_GetThreadID           004cbeb6 f   SDL:SDL.dll
 0001:000caebc       _SDL_ThreadID              004cbebc f   SDL:SDL.dll
 0001:000caec2       _SDL_KillThread            004cbec2 f   SDL:SDL.dll
 0001:000caec8       _SDL_EnableUNICODE         004cbec8 f   SDL:SDL.dll
 0001:000caece       _SDL_GL_GetProcAddress     004cbece f   SDL:SDL.dll
 0001:000caed4       _SDL_CreateRGBSurfaceFrom  004cbed4 f   SDL:SDL.dll
 0001:000caeda       _SDL_CreateRGBSurface      004cbeda f   SDL:SDL.dll
 0001:000caee0       _SDL_UpperBlit             004cbee0 f   SDL:SDL.dll
 0001:000caee6       _SDL_FreeSurface           004cbee6 f   SDL:SDL.dll
 0001:000caeec       _SDL_SetAlpha              004cbeec f   SDL:SDL.dll
 0001:000caef2       _SDL_FreeRW                004cbef2 f   SDL:SDL.dll
 0001:000caef8       _SDL_SaveBMP_RW            004cbef8 f   SDL:SDL.dll
 0001:000caefe       _SDL_GetModState           004cbefe f   SDL:SDL.dll
 0001:000caf04       _SDL_ShowCursor            004cbf04 f   SDL:SDL.dll
 0001:000caf0a       _SDL_WM_GrabInput          004cbf0a f   SDL:SDL.dll
 0001:000caf10       _SDL_SetGamma              004cbf10 f   SDL:SDL.dll
 0001:000caf16       _SDL_WasInit               004cbf16 f   SDL:SDL.dll
 0001:000caf1c       _SDL_EnableKeyRepeat       004cbf1c f   SDL:SDL.dll
 0001:000caf22       _SDL_ListModes             004cbf22 f   SDL:SDL.dll
 0001:000caf28       _SDL_VideoModeOK           004cbf28 f   SDL:SDL.dll
 0001:000caf2e       _SDL_GL_SetAttribute       004cbf2e f   SDL:SDL.dll
 0001:000caf34       _SDL_SetVideoMode          004cbf34 f   SDL:SDL.dll
 0001:000caf3a       _SDL_PollEvent             004cbf3a f   SDL:SDL.dll
 0001:000caf40       _SDL_GL_SwapBuffers        004cbf40 f   SDL:SDL.dll
 0001:000caf46       _SDL_GetVideoInfo          004cbf46 f   SDL:SDL.dll
 0001:000caf4c       _SDL_WM_SetCaption         004cbf4c f   SDL:SDL.dll
 0001:000caf52       _SDL_LockAudio             004cbf52 f   SDL:SDL.dll
 0001:000caf58       _SDL_UnlockAudio           004cbf58 f   SDL:SDL.dll
 0001:000caf5e       _SDL_RWFromFile            004cbf5e f   SDL:SDL.dll
 0001:000caf64       _SDL_AllocRW               004cbf64 f   SDL:SDL.dll
 0001:000caf6a       _IMG_Load_RW               004cbf6a f   SDL_image:SDL_image.dll
 0001:000caf70       _IMG_Load                  004cbf70 f   SDL_image:SDL_image.dll
 0001:000caf76       ___WSAFDIsSet@8            004cbf76 f   ws2_32:WS2_32.dll
 0001:000caf7c       _htons@4                   004cbf7c f   ws2_32:WS2_32.dll
 0001:000caf82       _htonl@4                   004cbf82 f   ws2_32:WS2_32.dll
 0001:000caf88       _ntohl@4                   004cbf88 f   ws2_32:WS2_32.dll
 0001:000caf8e       _ntohs@4                   004cbf8e f   ws2_32:WS2_32.dll
 0001:000caf94       _WSAStartup@8              004cbf94 f   ws2_32:WS2_32.dll
 0001:000caf9a       _WSACleanup@0              004cbf9a f   ws2_32:WS2_32.dll
 0001:000cafa0       _gethostbyname@4           004cbfa0 f   ws2_32:WS2_32.dll
 0001:000cafa6       _inet_addr@4               004cbfa6 f   ws2_32:WS2_32.dll
 0001:000cafac       _inet_ntoa@4               004cbfac f   ws2_32:WS2_32.dll
 0001:000cafb2       _gethostbyaddr@12          004cbfb2 f   ws2_32:WS2_32.dll
 0001:000cafb8       _bind@12                   004cbfb8 f   ws2_32:WS2_32.dll
 0001:000cafbe       _listen@8                  004cbfbe f   ws2_32:WS2_32.dll
 0001:000cafc4       _socket@12                 004cbfc4 f   ws2_32:WS2_32.dll
 0001:000cafca       _ioctlsocket@12            004cbfca f   ws2_32:WS2_32.dll
 0001:000cafd0       _setsockopt@20             004cbfd0 f   ws2_32:WS2_32.dll
 0001:000cafd6       _connect@12                004cbfd6 f   ws2_32:WS2_32.dll
 0001:000cafdc       _accept@12                 004cbfdc f   ws2_32:WS2_32.dll
 0001:000cafe2       _closesocket@4             004cbfe2 f   ws2_32:WS2_32.dll
 0001:000cafe8       _WSASendTo@36              004cbfe8 f   ws2_32:WS2_32.dll
 0001:000cafee       _WSARecvFrom@36            004cbfee f   ws2_32:WS2_32.dll
 0001:000caff4       _WSAGetLastError@0         004cbff4 f   ws2_32:WS2_32.dll
 0001:000caffa       _select@20                 004cbffa f   ws2_32:WS2_32.dll
 0001:000cb000       _Mix_QuerySpec             004cc000 f   SDL_mixer:SDL_mixer.dll
 0001:000cb006       _Mix_SetPostMix            004cc006 f   SDL_mixer:SDL_mixer.dll
 0001:000cb00c       _Mix_FadingChannel         004cc00c f   SDL_mixer:SDL_mixer.dll
 0001:000cb012       _Mix_Volume                004cc012 f   SDL_mixer:SDL_mixer.dll
 0001:000cb018       _Mix_SetPanning            004cc018 f   SDL_mixer:SDL_mixer.dll
 0001:000cb01e       _Mix_HaltChannel           004cc01e f   SDL_mixer:SDL_mixer.dll
 0001:000cb024       _Mix_VolumeMusic           004cc024 f   SDL_mixer:SDL_mixer.dll
 0001:000cb02a       _Mix_HaltMusic             004cc02a f   SDL_mixer:SDL_mixer.dll
 0001:000cb030       _Mix_FreeMusic             004cc030 f   SDL_mixer:SDL_mixer.dll
 0001:000cb036       _Mix_OpenAudio             004cc036 f   SDL_mixer:SDL_mixer.dll
 0001:000cb03c       _Mix_AllocateChannels      004cc03c f   SDL_mixer:SDL_mixer.dll
 0001:000cb042       _Mix_ChannelFinished       004cc042 f   SDL_mixer:SDL_mixer.dll
 0001:000cb048       _Mix_LoadMUS_RW            004cc048 f   SDL_mixer:SDL_mixer.dll
 0001:000cb04e       _Mix_LoadMUS               004cc04e f   SDL_mixer:SDL_mixer.dll
 0001:000cb054       _Mix_PlayMusic             004cc054 f   SDL_mixer:SDL_mixer.dll
 0001:000cb05a       _Mix_CloseAudio            004cc05a f   SDL_mixer:SDL_mixer.dll
 0001:000cb060       _Mix_PlayingMusic          004cc060 f   SDL_mixer:SDL_mixer.dll
 0001:000cb066       _Mix_PausedMusic           004cc066 f   SDL_mixer:SDL_mixer.dll
 0001:000cb06c       _Mix_ResumeMusic           004cc06c f   SDL_mixer:SDL_mixer.dll
 0001:000cb072       _Mix_LoadWAV_RW            004cc072 f   SDL_mixer:SDL_mixer.dll
 0001:000cb078       _Mix_FadeInChannelTimed    004cc078 f   SDL_mixer:SDL_mixer.dll
 0001:000cb07e       _Mix_PlayChannelTimed      004cc07e f   SDL_mixer:SDL_mixer.dll
 0001:000cb084       _Mix_FadeOutChannel        004cc084 f   SDL_mixer:SDL_mixer.dll
 0001:000cb08a       _Mix_Linked_Version        004cc08a f   SDL_mixer:SDL_mixer.dll
 0001:000cb090       _Mix_FreeChunk             004cc090 f   SDL_mixer:SDL_mixer.dll
 0001:000cb096       _timeBeginPeriod@4         004cc096 f   winmm:WINMM.dll
 0001:000cb09c       _timeEndPeriod@4           004cc09c f   winmm:WINMM.dll
 0001:000cb0a2       _timeGetTime@0             004cc0a2 f   winmm:WINMM.dll
 0001:000cb0a8       ??0_LocaleUpdate@@QAE@PAUlocaleinfo_struct@@@Z 004cc0a8 f i LIBCMT:_ctype.obj
 0001:000cb12f       __isalpha_l                004cc12f f i LIBCMT:_ctype.obj
 0001:000cb185       _isalpha                   004cc185 f i LIBCMT:_ctype.obj
 0001:000cb1b5       __isdigit_l                004cc1b5 f i LIBCMT:_ctype.obj
 0001:000cb206       _isdigit                   004cc206 f i LIBCMT:_ctype.obj
 0001:000cb234       __isxdigit_l               004cc234 f i LIBCMT:_ctype.obj
 0001:000cb28a       _isxdigit                  004cc28a f i LIBCMT:_ctype.obj
 0001:000cb2ba       __isspace_l                004cc2ba f i LIBCMT:_ctype.obj
 0001:000cb30b       _isspace                   004cc30b f i LIBCMT:_ctype.obj
 0001:000cb339       __isalnum_l                004cc339 f i LIBCMT:_ctype.obj
 0001:000cb38f       _isalnum                   004cc38f f i LIBCMT:_ctype.obj
 0001:000cb3bf       __isprint_l                004cc3bf f i LIBCMT:_ctype.obj
 0001:000cb415       _isprint                   004cc415 f i LIBCMT:_ctype.obj
 0001:000cb450       _strlen                    004cc450 f   LIBCMT:strlen.obj
 0001:000cb4db       ___iob_func                004cc4db f   LIBCMT:_file.obj
 0001:000cb4e1       ___initstdio               004cc4e1 f   LIBCMT:_file.obj
 0001:000cb592       ___endstdio                004cc592 f   LIBCMT:_file.obj
 0001:000cb5b2       __lock_file                004cc5b2 f   LIBCMT:_file.obj
 0001:000cb5f3       __lock_file2               004cc5f3 f   LIBCMT:_file.obj
 0001:000cb625       __unlock_file              004cc625 f   LIBCMT:_file.obj
 0001:000cb661       __unlock_file2             004cc661 f   LIBCMT:_file.obj
 0001:000cb690       _atol                      004cc690 f   LIBCMT:atox.obj
 0001:000cb6a6       _atoi                      004cc6a6 f   LIBCMT:atox.obj
 0001:000cb6b1       _fgetc                     004cc6b1 f   LIBCMT:fgetc.obj
 0001:000cb7b5       _remove                    004cc7b5 f   LIBCMT:unlink.obj
 0001:000cb89f       ___onexitinit              004cc89f f   LIBCMT:onexit.obj
 0001:000cb8d0       __onexit                   004cc8d0 f   LIBCMT:onexit.obj
 0001:000cb90c       _atexit                    004cc90c f   LIBCMT:onexit.obj
 0001:000cb923       __fsopen                   004cc923 f   LIBCMT:fopen.obj
 0001:000cb9e7       _fopen                     004cc9e7 f   LIBCMT:fopen.obj
 0001:000cb9fe       _fprintf                   004cc9fe f   LIBCMT:fprintf.obj
 0001:000cbb20       _strrchr                   004ccb20 f   LIBCMT:strrchr.obj
 0001:000cbb4d       __fclose_nolock            004ccb4d f   LIBCMT:fclose.obj
 0001:000cbbc4       _fclose                    004ccbc4 f   LIBCMT:fclose.obj
 0001:000cbc40       __crt_waiting_on_module_handle 004ccc40 f   LIBCMT:crt0dat.obj
 0001:000cbc70       __amsg_exit                004ccc70 f   LIBCMT:crt0dat.obj
 0001:000cbc99       ___crtCorExitProcess       004ccc99 f   LIBCMT:crt0dat.obj
 0001:000cbcc4       ___crtExitProcess          004cccc4 f   LIBCMT:crt0dat.obj
 0001:000cbcdc       __lockexit                 004cccdc f   LIBCMT:crt0dat.obj
 0001:000cbce5       __unlockexit               004ccce5 f   LIBCMT:crt0dat.obj
 0001:000cbd0b       __initterm_e               004ccd0b f   LIBCMT:crt0dat.obj
 0001:000cbd2f       __cinit                    004ccd2f f   LIBCMT:crt0dat.obj
 0001:000cbee0       _exit                      004ccee0 f   LIBCMT:crt0dat.obj
 0001:000cbef6       __exit                     004ccef6 f   LIBCMT:crt0dat.obj
 0001:000cbf0c       __cexit                    004ccf0c f   LIBCMT:crt0dat.obj
 0001:000cbf1b       __c_exit                   004ccf1b f   LIBCMT:crt0dat.obj
 0001:000cbf2a       __init_pointers            004ccf2a f   LIBCMT:crt0dat.obj
 0001:000cbf78       ??3@YAXPAX@Z               004ccf78 f   LIBCMT:delete.obj
 0001:000cbf83       ??0bad_alloc@std@@QAE@XZ   004ccf83 f i LIBCMT:new.obj
 0001:000cbf9e       ??1bad_alloc@std@@UAE@XZ   004ccf9e f i LIBCMT:new.obj
 0001:000cbfa9       ??_Ebad_alloc@std@@UAEPAXI@Z 004ccfa9 f i LIBCMT:new.obj
 0001:000cbfa9       ??_Gbad_alloc@std@@UAEPAXI@Z 004ccfa9 f i LIBCMT:new.obj
 0001:000cbfd0       ??0bad_alloc@std@@QAE@ABV01@@Z 004ccfd0 f i LIBCMT:new.obj
 0001:000cbfed       ??2@YAPAXI@Z               004ccfed f   LIBCMT:new.obj
 0001:000cc060       _floor                     004cd060 f   LIBCMT:_floor_pentium4_.obj
 0001:000cc0a0       __floor_pentium4           004cd0a0 f   LIBCMT:_floor_pentium4_.obj
 0001:000cc190       _memset                    004cd190 f   LIBCMT:memset.obj
 0001:000cc210       _memcpy                    004cd210 f   LIBCMT:memcpy.obj
 0001:000cc580       _strncpy                   004cd580 f   LIBCMT:strncpy.obj
 0001:000cc6b0       _strcmp                    004cd6b0 f   LIBCMT:strcmp.obj
 0001:000cc738       __vsnprintf_l              004cd738 f   LIBCMT:vsnprint.obj
 0001:000cc7eb       __vsnprintf                004cd7eb f   LIBCMT:vsnprint.obj
 0001:000cc808       _strncmp                   004cd808 f   LIBCMT:strncmp.obj
 0001:000cc8c8       ??_L@YGXPAXIHP6EX0@Z1@Z    004cd8c8 f   LIBCMT:ehvecctr.obj
 0001:000cc92d       ?__ArrayUnwind@@YGXPAXIHP6EX0@Z@Z 004cd92d f   LIBCMT:ehvecdtr.obj
 0001:000cc98b       ??_M@YGXPAXIHP6EX0@Z@Z     004cd98b f   LIBCMT:ehvecdtr.obj
 0001:000cc9ee       _memcmp                    004cd9ee f   LIBCMT:memcmp.obj
 0001:000ce070       __CIsqrt                   004cf070 f   LIBCMT:_sqrt_.obj
 0001:000ce084       _sqrt                      004cf084     LIBCMT:_sqrt_.obj
 0001:000ce130       _cos                       004cf130 f   LIBCMT:_cos_.obj
 0001:000ce170       __CIcos                    004cf170 f   LIBCMT:_cos_.obj
 0001:000ce1ab       __CIcos_default            004cf1ab f   LIBCMT:_cos_.obj
 0001:000ce1bf       __cos_default              004cf1bf     LIBCMT:_cos_.obj
 0001:000ce260       _sin                       004cf260 f   LIBCMT:_sin_.obj
 0001:000ce2a0       __CIsin                    004cf2a0 f   LIBCMT:_sin_.obj
 0001:000ce2db       __CIsin_default            004cf2db f   LIBCMT:_sin_.obj
 0001:000ce2ef       __sin_default              004cf2ef     LIBCMT:_sin_.obj
 0001:000ce390       _ceil                      004cf390 f   LIBCMT:_ceil_pentium4_.obj
 0001:000ce3d0       __ceil_pentium4            004cf3d0 f   LIBCMT:_ceil_pentium4_.obj
 0001:000ce4ad       _fabs                      004cf4ad f   LIBCMT:_fabs_.obj
 0001:000ce567       _abs                       004cf567 f   LIBCMT:abs.obj
 0001:000ce580       _memmove                   004cf580 f   LIBCMT:memmove.obj
 0001:000ce9b0       _qsort                     004cf9b0 f   LIBCMT:qsort.obj
 0001:000cebfd       __purecall                 004cfbfd f   LIBCMT:purevirt.obj
 0001:000cec27       ??1type_info@@UAE@XZ       004cfc27 f   LIBCMT:typinfo.obj
 0001:000cec37       ??_Gtype_info@@UAEPAXI@Z   004cfc37 f i LIBCMT:typinfo.obj
 0001:000cec37       ??_Etype_info@@UAEPAXI@Z   004cfc37 f i LIBCMT:typinfo.obj
 0001:000cec58       ??8type_info@@QBE_NABV0@@Z 004cfc58 f   LIBCMT:typinfo.obj
 0001:000cec80       _atan2                     004cfc80 f   LIBCMT:_87ctriga_.obj
 0001:000cec8a       __CIatan2                  004cfc8a f   LIBCMT:_87ctriga_.obj
 0001:000cec94       _printf                    004cfc94 f   LIBCMT:printf.obj
 0001:000ced43       __get_printf_count_output  004cfd43 f   LIBCMT:printf.obj
 0001:000ced60       _asin                      004cfd60 f   LIBCMT:_asin_.obj
 0001:000ceda0       __CIasin                   004cfda0 f   LIBCMT:_asin_.obj
 0001:000ceddb       __CIasin_default           004cfddb f   LIBCMT:_asin_.obj
 0001:000cedef       __asin_default             004cfdef     LIBCMT:_asin_.obj
 0001:000ceeb0       _pow                       004cfeb0 f   LIBCMT:_pow_.obj
 0001:000ceef0       __CIpow                    004cfef0 f   LIBCMT:_pow_.obj
 0001:000cef2b       __CIpow_default            004cff2b f   LIBCMT:_pow_.obj
 0001:000cef44       __pow_default              004cff44     LIBCMT:_pow_.obj
 0001:000cf140       _fmod                      004d0140 f   LIBCMT:_87fmod_.obj
 0001:000cf14a       __CIfmod                   004d014a f   LIBCMT:_87fmod_.obj
 0001:000cf172       _rename                    004d0172 f   LIBCMT:rename.obj
 0001:000cf1b0       _strstr                    004d01b0 f   LIBCMT:strstr.obj
 0001:000cf240       _strpbrk                   004d0240 f   LIBCMT:strpbrk.obj
 0001:000cf280       _puts                      004d0280 f   LIBCMT:puts.obj
 0001:000cf3e0       _memchr                    004d03e0 f   LIBCMT:memchr.obj
 0001:000cf490       _tan                       004d0490 f   LIBCMT:_tan_.obj
 0001:000cf4d0       __CItan                    004d04d0 f   LIBCMT:_tan_.obj
 0001:000cf50b       __CItan_default            004d050b f   LIBCMT:_tan_.obj
 0001:000cf51f       __tan_default              004d051f     LIBCMT:_tan_.obj
 0001:000cf5c0       _log                       004d05c0 f   LIBCMT:_log_.obj
 0001:000cf600       __CIlog                    004d0600 f   LIBCMT:_log_.obj
 0001:000cf63b       __CIlog_default            004d063b f   LIBCMT:_log_.obj
 0001:000cf64f       __log_default              004d064f     LIBCMT:_log_.obj
 0001:000cf710       __time64                   004d0710 f   LIBCMT:time64.obj
 0001:000cf761       __localtime64_s            004d0761 f   LIBCMT:loctim64.obj
 0001:000cfa19       __localtime64              004d0a19 f   LIBCMT:loctim64.obj
 0001:000cfa40       __freea                    004d0a40 f i LIBCMT:strftime.obj
 0001:000d0344       __Strftime_l               004d1344 f   LIBCMT:strftime.obj
 0001:000d04e8       _strftime                  004d14e8 f   LIBCMT:strftime.obj
 0001:000d0507       __tolower_l                004d1507 f   LIBCMT:tolower.obj
 0001:000d061c       _tolower                   004d161c f   LIBCMT:tolower.obj
 0001:000d0650       _acos                      004d1650 f   LIBCMT:_acos_.obj
 0001:000d0690       __CIacos                   004d1690 f   LIBCMT:_acos_.obj
 0001:000d06cb       __CIacos_default           004d16cb f   LIBCMT:_acos_.obj
 0001:000d06df       __acos_default             004d16df     LIBCMT:_acos_.obj
 0001:000d07b0       _strchr                    004d17b0 f   LIBCMT:strchr.obj
 0001:000d07b6       ___from_strstr_to_strchr   004d17b6     LIBCMT:strchr.obj
 0001:000d08d8       _sscanf                    004d18d8 f   LIBCMT:sscanf.obj
 0001:000d08fa       __strtod_l                 004d18fa f   LIBCMT:strtod.obj
 0001:000d0a19       _strtod                    004d1a19 f   LIBCMT:strtod.obj
 0001:000d0a30       ___ascii_stricmp           004d1a30 f   LIBCMT:stricmp.obj
 0001:000d0a69       __stricmp_l                004d1a69 f   LIBCMT:stricmp.obj
 0001:000d0b3e       __stricmp                  004d1b3e f   LIBCMT:stricmp.obj
 0001:000d0dbf       _strtol                    004d1dbf f   LIBCMT:strtol.obj
 0001:000d0df0       _strcpy                    004d1df0 f   LIBCMT:strcat.obj
 0001:000d0e00       _strcat                    004d1e00 f   LIBCMT:strcat.obj
 0001:000d0ef0       _strspn                    004d1ef0 f   LIBCMT:strspn.obj
 0001:000d0f36       __fputchar                 004d1f36 f   LIBCMT:fputchar.obj
 0001:000d0f50       _putchar                   004d1f50 f   LIBCMT:fputchar.obj
 0001:000d0f5b       __fwrite_nolock            004d1f5b f   LIBCMT:fwrite.obj
 0001:000d10bd       _fwrite                    004d20bd f   LIBCMT:fwrite.obj
 0001:000d1140       _strcspn                   004d2140 f   LIBCMT:strcspn.obj
 0001:000d1190       _exp                       004d2190 f   LIBCMT:_87ctran_.obj
 0001:000d11cc       __CIexp                    004d21cc f   LIBCMT:_87ctran_.obj
 0001:000d1207       __exp_default              004d2207 f   LIBCMT:_87ctran_.obj
 0001:000d1211       __CIexp_default            004d2211 f   LIBCMT:_87ctran_.obj
 0001:000d121b       __atof_l                   004d221b f   LIBCMT:atof.obj
 0001:000d12c6       _atof                      004d22c6 f   LIBCMT:atof.obj
 0001:000d12d9       _sprintf                   004d22d9 f   LIBCMT:sprintf.obj
 0001:000d1360       _atan                      004d2360 f   LIBCMT:_atan_.obj
 0001:000d13a0       __CIatan                   004d23a0 f   LIBCMT:_atan_.obj
 0001:000d13db       __CIatan_default           004d23db f   LIBCMT:_atan_.obj
 0001:000d13ef       __atan_default             004d23ef     LIBCMT:_atan_.obj
 0001:000d1480       _log10                     004d2480 f   LIBCMT:_log10_.obj
 0001:000d14c0       __CIlog10                  004d24c0 f   LIBCMT:_log10_.obj
 0001:000d14fb       __CIlog10_default          004d24fb f   LIBCMT:_log10_.obj
 0001:000d150f       __log10_default            004d250f     LIBCMT:_log10_.obj
 0001:000d15d0       _wcsncpy                   004d25d0 f   LIBCMT:wcsncpy.obj
 0001:000d161a       __toupper_l                004d261a f   LIBCMT:toupper.obj
 0001:000d1730       _toupper                   004d2730 f   LIBCMT:toupper.obj
 0001:000d175c       _feof                      004d275c f   LIBCMT:feoferr.obj
 0001:000d1790       __ftell_nolock             004d2790 f   LIBCMT:ftell.obj
 0001:000d192d       _ftell                     004d292d f   LIBCMT:ftell.obj
 0001:000d199b       __fseek_nolock             004d299b f   LIBCMT:fseek.obj
 0001:000d1a25       _fseek                     004d2a25 f   LIBCMT:fseek.obj
 0001:000d1aaa       __fread_nolock_s           004d2aaa f   LIBCMT:fread.obj
 0001:000d1cb4       _fread_s                   004d2cb4 f   LIBCMT:fread.obj
 0001:000d1d4a       _fread                     004d2d4a f   LIBCMT:fread.obj
 0001:000d1d67       _fputc                     004d2d67 f   LIBCMT:fputc.obj
 0001:000d1d67       _putc                      004d2d67 f   LIBCMT:fputc.obj
 0001:000d1e73       _fgets                     004d2e73 f   LIBCMT:fgets.obj
 0001:000d1fbb       _fputs                     004d2fbb f   LIBCMT:fputs.obj
 0001:000d20ca       _vfprintf_helper           004d30ca f   LIBCMT:vfprintf.obj
 0001:000d21e5       _vfprintf                  004d31e5 f   LIBCMT:vfprintf.obj
 0001:000d2204       __ctime64                  004d3204 f   LIBCMT:ctime64.obj
 0001:000d23e2       _mainCRTStartup            004d33e2 f   LIBCMT:crt0.obj
 0001:000d23ec       __get_sys_err_msg          004d33ec f i LIBCMT:perror.obj
 0001:000d2414       _perror                    004d3414 f   LIBCMT:perror.obj
 0001:000d24a2       _V6_HeapAlloc              004d34a2 f   LIBCMT:malloc.obj
 0001:000d24f1       _malloc                    004d34f1 f   LIBCMT:malloc.obj
 0001:000d25bb       _free                      004d35bb f   LIBCMT:free.obj
 0001:000d2649       _abort                     004d3649 f   LIBCMT:abort.obj
 0001:000d2760       __set_abort_behavior       004d3760 f   LIBCMT:abort.obj
 0001:000d29a7       ___updatetmbcinfo          004d39a7 f   LIBCMT:mbctype.obj
 0001:000d2ac7       __setmbcp_nolock           004d3ac7 f   LIBCMT:mbctype.obj
 0001:000d2cac       __setmbcp                  004d3cac f   LIBCMT:mbctype.obj
 0001:000d2e46       ___initmbctable            004d3e46 f   LIBCMT:mbctype.obj
 0001:000d2e64       ___freetlocinfo            004d3e64 f   LIBCMT:setlocal.obj
 0001:000d2fad       ___addlocaleref            004d3fad f   LIBCMT:setlocal.obj
 0001:000d303c       ___removelocaleref         004d403c f   LIBCMT:setlocal.obj
 0001:000d3113       ___updatetlocinfo          004d4113 f   LIBCMT:setlocal.obj
 0001:000d3189       __encode_pointer           004d4189 f   LIBCMT:tidtable.obj
 0001:000d31fb       __encoded_null             004d41fb f   LIBCMT:tidtable.obj
 0001:000d3204       __decode_pointer           004d4204 f   LIBCMT:tidtable.obj
 0001:000d3276       ___crtTlsAlloc@4           004d4276 f   LIBCMT:tidtable.obj
 0001:000d327f       ___set_flsgetvalue         004d427f f   LIBCMT:tidtable.obj
 0001:000d32b3       __mtterm                   004d42b3 f   LIBCMT:tidtable.obj
 0001:000d32f0       __initptd                  004d42f0 f   LIBCMT:tidtable.obj
 0001:000d33d7       __getptd_noexit            004d43d7 f   LIBCMT:tidtable.obj
 0001:000d3450       __getptd                   004d4450 f   LIBCMT:tidtable.obj
 0001:000d346a       __freefls@4                004d446a f   LIBCMT:tidtable.obj
 0001:000d3599       __mtinit                   004d4599 f   LIBCMT:tidtable.obj
 0001:000d3726       __isctype_l                004d4726 f   LIBCMT:isctype.obj
 0001:000d37de       __ioinit                   004d47de f   LIBCMT:ioinit.obj
 0001:000d3a32       __malloc_crt               004d4a32 f   LIBCMT:crtheap.obj
 0001:000d3a77       __calloc_crt               004d4a77 f   LIBCMT:crtheap.obj
 0001:000d3ac3       __realloc_crt              004d4ac3 f   LIBCMT:crtheap.obj
 0001:000d3b11       __recalloc_crt             004d4b11 f   LIBCMT:crtheap.obj
 0001:000d3b63       __fcloseall                004d4b63 f   LIBCMT:closeall.obj
 0001:000d3c02       __flush                    004d4c02 f   LIBCMT:fflush.obj
 0001:000d3c6a       __fflush_nolock            004d4c6a f   LIBCMT:fflush.obj
 0001:000d3d8c       __flushall                 004d4d8c f   LIBCMT:fflush.obj
 0001:000d3d95       __mtinitlocks              004d4d95 f   LIBCMT:mlock.obj
 0001:000d3de0       __mtdeletelocks            004d4de0 f   LIBCMT:mlock.obj
 0001:000d3e37       __unlock                   004d4e37 f   LIBCMT:mlock.obj
 0001:000d3e4e       __mtinitlocknum            004d4e4e f   LIBCMT:mlock.obj
 0001:000d3f11       __lock                     004d4f11 f   LIBCMT:mlock.obj
 0001:000d3f44       __filbuf                   004d4f44 f   LIBCMT:_filbuf.obj
 0001:000d406f       __fileno                   004d506f f   LIBCMT:fileno.obj
 0001:000d40a1       __initp_misc_invarg        004d50a1 f   LIBCMT:invarg.obj
 0001:000d40b0       __invoke_watson            004d50b0 f   LIBCMT:invarg.obj
 0001:000d41d8       __invalid_parameter        004d51d8 f   LIBCMT:invarg.obj
 0001:000d41fe       __get_errno_from_oserr     004d51fe f   LIBCMT:dosmap.obj
 0001:000d4240       __errno                    004d5240 f   LIBCMT:dosmap.obj
 0001:000d4253       ___doserrno                004d5253 f   LIBCMT:dosmap.obj
 0001:000d4266       __dosmaperr                004d5266 f   LIBCMT:dosmap.obj
 0001:000d428c       __SEH_prolog4              004d528c f   LIBCMT:sehprolg4.obj
 0001:000d42d1       __SEH_epilog4              004d52d1 f   LIBCMT:sehprolg4.obj
 0001:000d42f0       __except_handler4          004d52f0 f   LIBCMT:chandler4.obj
 0001:000d447c       __msize                    004d547c f   LIBCMT:msize.obj
 0001:000d451f       __openfile                 004d551f f   LIBCMT:_open.obj
 0001:000d47e8       __getstream                004d57e8 f   LIBCMT:stream.obj
 0001:000d4920       __local_unwind4            004d5920 f   LIBCMT:exsup4.obj
 0001:000d49f6       __seh_longjmp_unwind4@4    004d59f6 f   LIBCMT:exsup4.obj
 0001:000d4a12       @_EH4_CallFilterFunc@8     004d5a12 f   LIBCMT:exsup4.obj
 0001:000d4a29       @_EH4_TransferToHandler@8  004d5a29 f   LIBCMT:exsup4.obj
 0001:000d4a42       @_EH4_GlobalUnwind@4       004d5a42 f   LIBCMT:exsup4.obj
 0001:000d4a5c       @_EH4_LocalUnwind@16       004d5a5c f   LIBCMT:exsup4.obj
 0001:000d4a73       __freebuf                  004d5a73 f   LIBCMT:_freebuf.obj
 0001:000d4aa4       __stbuf                    004d5aa4 f   LIBCMT:_sftbuf.obj
 0001:000d4b40       __ftbuf                    004d5b40 f   LIBCMT:_sftbuf.obj
 0001:000d4c1a       __output_l                 004d5c1a f   LIBCMT:output.obj
 0001:000d57b2       __close_nolock             004d67b2 f   LIBCMT:close.obj
 0001:000d584e       __close                    004d684e f   LIBCMT:close.obj
 0001:000d591b       __NMSG_WRITE               004d691b f   LIBCMT:crt0msg.obj
 0001:000d5ac6       __FF_MSGBANNER             004d6ac6 f   LIBCMT:crt0msg.obj
 0001:000d5aff       __RTC_Initialize           004d6aff f   LIBCMT:_initsect_.obj
 0001:000d5b25       __RTC_Terminate            004d6b25 f   LIBCMT:_initsect_.obj
 0001:000d5b4b       __initp_misc_cfltcvt_tab   004d6b4b f   LIBCMT:cmiscdat.obj
 0001:000d5b70       __ValidateImageBase        004d6b70 f   LIBCMT:pesect.obj
 0001:000d5bb0       __FindPESection            004d6bb0 f   LIBCMT:pesect.obj
 0001:000d5c00       __IsNonwritableInCurrentImage 004d6c00 f   LIBCMT:pesect.obj
 0001:000d5cbd       ?terminate@@YAXXZ          004d6cbd f   LIBCMT:hooks.obj
 0001:000d5cf6       ?unexpected@@YAXXZ         004d6cf6 f   LIBCMT:hooks.obj
 0001:000d5d09       ?_inconsistency@@YAXXZ     004d6d09 f   LIBCMT:hooks.obj
 0001:000d5d41       __initp_eh_hooks           004d6d41 f   LIBCMT:hooks.obj
 0001:000d5d52       __XcptFilter               004d6d52 f   LIBCMT:winxfltr.obj
 0001:000d5eb2       __initp_misc_winsig        004d6eb2 f   LIBCMT:winsig.obj
 0001:000d5f07       ___get_sigabrt             004d6f07 f   LIBCMT:winsig.obj
 0001:000d5f14       _raise                     004d6f14 f   LIBCMT:winsig.obj
 0001:000d60c4       __initp_misc_rand_s        004d70c4 f   LIBCMT:rand_s.obj
 0001:000d60d3       __initp_misc_purevirt      004d70d3 f   LIBCMT:inithelp.obj
 0001:000d60e2       __initp_misc_initcrit      004d70e2 f   LIBCMT:initcrit.obj
 0001:000d60f1       ___crtInitCritSecAndSpinCount 004d70f1 f   LIBCMT:initcrit.obj
 0001:000d6151       __initp_heap_handler       004d7151 f   LIBCMT:handler.obj
 0001:000d6160       __callnewh                 004d7160 f   LIBCMT:handler.obj
 0001:000d6188       ??0exception@std@@QAE@ABQBD@Z 004d7188 f   LIBCMT:stdexcpt.obj
 0001:000d61db       ??0exception@std@@QAE@ABQBDH@Z 004d71db f   LIBCMT:stdexcpt.obj
 0001:000d61f8       ??0exception@std@@QAE@ABV01@@Z 004d71f8 f   LIBCMT:stdexcpt.obj
 0001:000d6255       ??1exception@std@@UAE@XZ   004d7255 f   LIBCMT:stdexcpt.obj
 0001:000d626b       ?what@exception@std@@UBEPBDXZ 004d726b f   LIBCMT:stdexcpt.obj
 0001:000d6278       ??0bad_cast@std@@QAE@PBD@Z 004d7278 f   LIBCMT:stdexcpt.obj
 0001:000d6296       ??0bad_cast@std@@QAE@ABV01@@Z 004d7296 f   LIBCMT:stdexcpt.obj
 0001:000d62b3       ??1bad_cast@std@@UAE@XZ    004d72b3 f   LIBCMT:stdexcpt.obj
 0001:000d62be       ??0bad_typeid@std@@QAE@PBD@Z 004d72be f   LIBCMT:stdexcpt.obj
 0001:000d62dc       ??0bad_typeid@std@@QAE@ABV01@@Z 004d72dc f   LIBCMT:stdexcpt.obj
 0001:000d62f9       ??0__non_rtti_object@std@@QAE@PBD@Z 004d72f9 f   LIBCMT:stdexcpt.obj
 0001:000d6316       ??0__non_rtti_object@std@@QAE@ABV01@@Z 004d7316 f   LIBCMT:stdexcpt.obj
 0001:000d6333       ??1__non_rtti_object@std@@UAE@XZ 004d7333 f   LIBCMT:stdexcpt.obj
 0001:000d633e       ??_Gexception@std@@UAEPAXI@Z 004d733e f i LIBCMT:stdexcpt.obj
 0001:000d633e       ??_Eexception@std@@UAEPAXI@Z 004d733e f i LIBCMT:stdexcpt.obj
 0001:000d635f       ??_Gbad_cast@std@@UAEPAXI@Z 004d735f f i LIBCMT:stdexcpt.obj
 0001:000d635f       ??_Ebad_cast@std@@UAEPAXI@Z 004d735f f i LIBCMT:stdexcpt.obj
 0001:000d6386       ??_Gbad_typeid@std@@UAEPAXI@Z 004d7386 f i LIBCMT:stdexcpt.obj
 0001:000d6386       ??_E__non_rtti_object@std@@UAEPAXI@Z 004d7386 f i LIBCMT:stdexcpt.obj
 0001:000d6386       ??_G__non_rtti_object@std@@UAEPAXI@Z 004d7386 f i LIBCMT:stdexcpt.obj
 0001:000d6386       ??_Ebad_typeid@std@@UAEPAXI@Z 004d7386 f i LIBCMT:stdexcpt.obj
 0001:000d63ad       __CxxThrowException@8      004d73ad f   LIBCMT:throw.obj
 0001:000d63f9       ___libm_error_support      004d73f9 f   LIBCMT:_libm_error_.obj
 0001:000d66a9       __sse2_mathfcns_init       004d76a9 f   LIBCMT:_mathfcns_.obj
 0001:000d66bd       __floor_default            004d76bd f   LIBCMT:_floor_.obj
 0001:000d67e9       __VEC_memzero              004d77e9 f   LIBCMT:p4_memset.obj
 0001:000d68ff       __VEC_memcpy               004d78ff f   LIBCMT:p4_memcpy.obj
 0001:000d69e2       __flsbuf                   004d79e2 f   LIBCMT:_flsbuf.obj
 0001:000d6b50       __trandisp1                004d7b50 f   LIBCMT:_87disp_.obj
 0001:000d6bb7       __trandisp2                004d7bb7 f   LIBCMT:_87disp_.obj
 0001:000d6c43       __rttospopde               004d7c43     LIBCMT:_87disp_.obj
 0001:000d6c48       __rttospop                 004d7c48     LIBCMT:_87disp_.obj
 0001:000d6c4a       __rtnospop                 004d7c4a     LIBCMT:_87disp_.obj
 0001:000d6c4c       __rttosnpop                004d7c4c     LIBCMT:_87disp_.obj
 0001:000d6c4d       __rtnospopde               004d7c4d     LIBCMT:_87disp_.obj
 0001:000d6c54       __rtzeropop                004d7c54     LIBCMT:_87disp_.obj
 0001:000d6c56       __rtzeronpop               004d7c56     LIBCMT:_87disp_.obj
 0001:000d6c5b       __rtonepop                 004d7c5b     LIBCMT:_87disp_.obj
 0001:000d6c5d       __rtonenpop                004d7c5d     LIBCMT:_87disp_.obj
 0001:000d6c62       __tosnan1                  004d7c62     LIBCMT:_87disp_.obj
 0001:000d6c8d       __nosnan2                  004d7c8d     LIBCMT:_87disp_.obj
 0001:000d6c8f       __tosnan2                  004d7c8f     LIBCMT:_87disp_.obj
 0001:000d6cb7       __nan2                     004d7cb7     LIBCMT:_87disp_.obj
 0001:000d6cf6       __rtindfpop                004d7cf6     LIBCMT:_87disp_.obj
 0001:000d6cf8       __rtindfnpop               004d7cf8     LIBCMT:_87disp_.obj
 0001:000d6d09       __rttosnpopde              004d7d09     LIBCMT:_87disp_.obj
 0001:000d6d13       __rtchsifneg               004d7d13     LIBCMT:_87disp_.obj
 0001:000d6d1a       __fpclear                  004d7d1a f   LIBCMT:_fpinit_.obj
 0001:000d6d1a       __initp_misc_winxfltr      004d7d1a f   LIBCMT:winxfltr.obj
 0001:000d6d1b       __cfltcvt_init             004d7d1b f   LIBCMT:_fpinit_.obj
 0001:000d6d7b       __fpmath                   004d7d7b f   LIBCMT:_fpinit_.obj
 0001:000d6da0       __startTwoArgErrorHandling 004d7da0 f   LIBCMT:_genexcep_.obj
 0001:000d6db7       __startOneArgErrorHandling 004d7db7 f   LIBCMT:_genexcep_.obj
 0001:000d6e00       __twoToTOS                 004d7e00 f   LIBCMT:_common_.obj
 0001:000d6e15       __load_CW                  004d7e15 f   LIBCMT:_common_.obj
 0001:000d6e2c       __convertTOStoQNaN         004d7e2c f   LIBCMT:_common_.obj
 0001:000d6e45       __fload_withFB             004d7e45 f   LIBCMT:_common_.obj
 0001:000d6e88       __checkTOS_withFB          004d7e88 f   LIBCMT:_common_.obj
 0001:000d6e9e       __fast_exit                004d7e9e f   LIBCMT:_common_.obj
 0001:000d6eab       __math_exit                004d7eab f   LIBCMT:_common_.obj
 0001:000d6ed5       __check_overflow_exit      004d7ed5 f   LIBCMT:_common_.obj
 0001:000d6ee9       __check_range_exit         004d7ee9 f   LIBCMT:_common_.obj
 0001:000d6f90       __CIcos_pentium4           004d7f90 f   LIBCMT:_cos_pentium4_.obj
 0001:000d6fa8       __cos_pentium4             004d7fa8     LIBCMT:_cos_pentium4_.obj
 0001:000d7140       __CIsin_pentium4           004d8140 f   LIBCMT:_sin_pentium4_.obj
 0001:000d7158       __sin_pentium4             004d8158     LIBCMT:_sin_pentium4_.obj
 0001:000d7308       __ceil_default             004d8308 f   LIBCMT:_ceil_.obj
 0001:000d73dd       __raise_exc_ex             004d83dd f   LIBCMT:_fpexcept_.obj
 0001:000d76b9       __raise_exc                004d86b9 f   LIBCMT:_fpexcept_.obj
 0001:000d76dc       __handle_exc               004d86dc f   LIBCMT:_fpexcept_.obj
 0001:000d78be       __set_errno_from_matherr   004d88be f   LIBCMT:_fpexcept_.obj
 0001:000d78eb       __errcode                  004d88eb f   LIBCMT:_fpexcept_.obj
 0001:000d791f       __umatherr                 004d891f f   LIBCMT:_fpexcept_.obj
 0001:000d79bf       __handle_qnan1             004d89bf f   LIBCMT:_fpexcept_.obj
 0001:000d7a14       __except1                  004d8a14 f   LIBCMT:_fpexcept_.obj
 0001:000d7add       __set_exp                  004d8add f   LIBCMT:_util_.obj
 0001:000d7b09       __sptype                   004d8b09 f   LIBCMT:_util_.obj
 0001:000d7b69       __decomp                   004d8b69 f   LIBCMT:_util_.obj
 0001:000d7c22       __statfp                   004d8c22 f   LIBCMT:_fpctrl_.obj
 0001:000d7c32       __clrfp                    004d8c32 f   LIBCMT:_fpctrl_.obj
 0001:000d7c43       __ctrlfp                   004d8c43 f   LIBCMT:_fpctrl_.obj
 0001:000d7c6c       __set_statfp               004d8c6c f   LIBCMT:_fpctrl_.obj
 0001:000d7cc4       ___set_fpsr_sse2           004d8cc4 f   LIBCMT:_fpctrl_.obj
 0001:000d7d36       ?_Type_info_dtor@type_info@@CAXPAV1@@Z 004d8d36 f   LIBCMT:typname.obj
 0001:000d7dcc       __fFATN2                   004d8dcc     LIBCMT:_87triga_.obj
 0001:000d7e1c       __rtpiby2                  004d8e1c     LIBCMT:_87triga_.obj
 0001:000d7e60       __cintrindisp2             004d8e60 f   LIBCMT:_87cdisp_.obj
 0001:000d7e9e       __cintrindisp1             004d8e9e f   LIBCMT:_87cdisp_.obj
 0001:000d7edb       __ctrandisp2               004d8edb f   LIBCMT:_87cdisp_.obj
 0001:000d8071       __ctrandisp1               004d9071 f   LIBCMT:_87cdisp_.obj
 0001:000d80a4       __fload                    004d90a4 f   LIBCMT:_87cdisp_.obj
 0001:000d80e0       __CIasin_pentium4          004d90e0 f   LIBCMT:_asin_pentium4_.obj
 0001:000d80f8       __asin_pentium4            004d90f8     LIBCMT:_asin_pentium4_.obj
 0001:000d8660       __CIpow_pentium4           004d9660 f   LIBCMT:_pow_pentium4_.obj
 0001:000d8679       __pow_pentium4             004d9679     LIBCMT:_pow_pentium4_.obj
 0001:000d91d1       __fFEXP                    004da1d1     LIBCMT:_87tran_.obj
 0001:000d9238       __rtinfpopse               004da238     LIBCMT:_87tran_.obj
 0001:000d923a       __rtinfnpopse              004da23a     LIBCMT:_87tran_.obj
 0001:000d924a       __fFLN                     004da24a     LIBCMT:_87tran_.obj
 0001:000d92ff       __rtinfpop                 004da2ff     LIBCMT:_87tran_.obj
 0001:000d9301       __rtinfnpop                004da301     LIBCMT:_87tran_.obj
 0001:000d931e       __ffexpm1                  004da31e     LIBCMT:_87tran_.obj
 0001:000d93c7       __d_inttype                004da3c7 f   LIBCMT:_powhlp_.obj
 0001:000d942d       __powhlp                   004da42d f   LIBCMT:_powhlp_.obj
 0001:000d9570       _fdiv_main_routine         004da570 f   LIBCMT:_adj_fdiv_.obj
 0001:000d9687       __adj_fdiv_r               004da687 f   LIBCMT:_adj_fdiv_.obj
 0001:000d9b26       __fdivp_sti_st             004dab26 f   LIBCMT:_adj_fdiv_.obj
 0001:000d9b39       __fdivrp_sti_st            004dab39 f   LIBCMT:_adj_fdiv_.obj
 0001:000d9b4c       __adj_fdiv_m32             004dab4c f   LIBCMT:_adj_fdiv_.obj
 0001:000d9b98       __adj_fdiv_m64             004dab98 f   LIBCMT:_adj_fdiv_.obj
 0001:000d9be4       __adj_fdiv_m16i            004dabe4 f   LIBCMT:_adj_fdiv_.obj
 0001:000d9c18       __adj_fdiv_m32i            004dac18 f   LIBCMT:_adj_fdiv_.obj
 0001:000d9c4c       __adj_fdivr_m32            004dac4c f   LIBCMT:_adj_fdiv_.obj
 0001:000d9c98       __adj_fdivr_m64            004dac98 f   LIBCMT:_adj_fdiv_.obj
 0001:000d9ce4       __adj_fdivr_m16i           004dace4 f   LIBCMT:_adj_fdiv_.obj
 0001:000d9d18       __adj_fdivr_m32i           004dad18 f   LIBCMT:_adj_fdiv_.obj
 0001:000d9d4c       __safe_fdiv                004dad4c f   LIBCMT:_adj_fdiv_.obj
 0001:000d9d61       __safe_fdivr               004dad61 f   LIBCMT:_adj_fdiv_.obj
 0001:000d9d76       __fprem_common             004dad76 f   LIBCMT:_adj_fdiv_.obj
 0001:000d9f7c       __adj_fprem                004daf7c f   LIBCMT:_adj_fdiv_.obj
 0001:000da02e       __fprem1_common            004db02e f   LIBCMT:_adj_fdiv_.obj
 0001:000da234       __adj_fprem1               004db234 f   LIBCMT:_adj_fdiv_.obj
 0001:000da2e9       __safe_fprem               004db2e9 f   LIBCMT:_adj_fdiv_.obj
 0001:000da2ef       __safe_fprem1              004db2ef f   LIBCMT:_adj_fdiv_.obj
 0001:000da2f5       __adj_fpatan               004db2f5 f   LIBCMT:_adj_fdiv_.obj
 0001:000da2f8       __adj_fptan                004db2f8 f   LIBCMT:_adj_fdiv_.obj
 0001:000da300       __CItan_pentium4           004db300 f   LIBCMT:_tan_pentium4_.obj
 0001:000da318       __tan_pentium4             004db318     LIBCMT:_tan_pentium4_.obj
 0001:000da560       __CIlog_pentium4           004db560 f   LIBCMT:_log_pentium4_.obj
 0001:000da578       __log_pentium4             004db578     LIBCMT:_log_pentium4_.obj
 0001:000da7d0       __aulldiv                  004db7d0 f   LIBCMT:ulldiv.obj
 0001:000da838       __set_daylight             004db838 f i LIBCMT:tzset.obj
 0001:000da849       __set_dstbias              004db849 f i LIBCMT:tzset.obj
 0001:000da85a       __set_timezone             004db85a f i LIBCMT:tzset.obj
 0001:000daf80       ___tzset                   004dbf80 f   LIBCMT:tzset.obj
 0001:000dafcf       __isindst                  004dbfcf f   LIBCMT:tzset.obj
 0001:000db010       __gmtime64_s               004dc010 f   LIBCMT:gmtime64.obj
 0001:000db253       __get_daylight             004dc253 f   LIBCMT:timeset.obj
 0001:000db28c       __get_dstbias              004dc28c f   LIBCMT:timeset.obj
 0001:000db2c5       __get_timezone             004dc2c5 f   LIBCMT:timeset.obj
 0001:000db2fe       ___daylight                004dc2fe f   LIBCMT:timeset.obj
 0001:000db304       ___dstbias                 004dc304 f   LIBCMT:timeset.obj
 0001:000db30a       ___timezone                004dc30a f   LIBCMT:timeset.obj
 0001:000db310       ___tzname                  004dc310 f   LIBCMT:timeset.obj
 0001:000db320       __alldiv                   004dc320 f   LIBCMT:lldiv.obj
 0001:000db3d0       __allrem                   004dc3d0 f   LIBCMT:llrem.obj
 0001:000db482       ___getgmtimebuf            004dc482 f   LIBCMT:gmtime.obj
 0001:000db4b9       _strcpy_s                  004dc4b9 f   LIBCMT:strcpy_s.obj
 0001:000db521       __isleadbyte_l             004dc521 f i LIBCMT:_wctype.obj
 0001:000db559       _isleadbyte                004dc559 f i LIBCMT:_wctype.obj
 0001:000db56c       @__security_check_cookie@4 004dc56c f   LIBCMT:secchk.obj
 0001:000db580       __alloca_probe_16          004dc580 f   LIBCMT:alloca16.obj
 0001:000db596       __alloca_probe_8           004dc596     LIBCMT:alloca16.obj
 0001:000db951       ___crtLCMapStringA         004dc951 f   LIBCMT:a_map.obj
 0001:000db9a0       __CIacos_pentium4          004dc9a0 f   LIBCMT:_acos_pentium4_.obj
 0001:000db9b8       __acos_pentium4            004dc9b8     LIBCMT:_acos_pentium4_.obj
 0001:000dbfbe       __input_l                  004dcfbe f   LIBCMT:input.obj
 0001:000dcf80       __fltin2                   004ddf80 f   LIBCMT:_cfin_.obj
 0001:000dd027       __write_nolock             004de027 f   LIBCMT:write.obj
 0001:000dd75a       __write                    004de75a f   LIBCMT:write.obj
 0001:000dd840       __CIexp_pentium4           004de840 f   LIBCMT:_exp_pentium4_.obj
 0001:000dd858       __exp_pentium4             004de858     LIBCMT:_exp_pentium4_.obj
 0001:000ddb00       ___strgtold12_l            004deb00 f   LIBCMT:_strgtold_.obj
 0001:000de200       __CIatan_pentium4          004df200 f   LIBCMT:_atan_pentium4_.obj
 0001:000de218       __atan_pentium4            004df218     LIBCMT:_atan_pentium4_.obj
 0001:000de4f0       __CIlog10_pentium4         004df4f0 f   LIBCMT:_log10_pentium4_.obj
 0001:000de508       __log10_pentium4           004df508     LIBCMT:_log10_pentium4_.obj
 0001:000de780       __lseek_nolock             004df780 f   LIBCMT:lseek.obj
 0001:000de7f5       __lseek                    004df7f5 f   LIBCMT:lseek.obj
 0001:000de8d1       __read_nolock              004df8d1 f   LIBCMT:read.obj
 0001:000dee93       __read                     004dfe93 f   LIBCMT:read.obj
 0001:000def90       _memcpy_s                  004dff90 f   LIBCMT:memcpy_s.obj
 0001:000df00d       _asctime_s                 004e000d f   LIBCMT:asctime.obj
 0001:000df1db       _asctime                   004e01db f   LIBCMT:asctime.obj
 0001:000df227       ?__CxxUnhandledExceptionFilter@@YGJPAU_EXCEPTION_POINTERS@@@Z 004e0227 f   LIBCMT:unhandld.obj
 0001:000df269       ___CxxSetUnhandledExceptionFilter 004e0269 f   LIBCMT:unhandld.obj
 0001:000df277       __setenvp                  004e0277 f   LIBCMT:stdenvp.obj
 0001:000df4ef       __setargv                  004e04ef f   LIBCMT:stdargv.obj
 0001:000df5aa       ___crtGetEnvironmentStringsA 004e05aa f   LIBCMT:a_env.obj
 0001:000df6e1       __heap_init                004e06e1 f   LIBCMT:heapinit.obj
 0001:000df711       ___security_init_cookie    004e0711 f   LIBCMT:gs_support.obj
 0001:000df7a7       __time32                   004e07a7 f   LIBCMT:time.obj
 0001:000df7a7       _time                      004e07a7 f   LIBCMT:time.obj
 0001:000df7f5       ___sys_nerr                004e07f5 f   LIBCMT:syserr.obj
 0001:000df7fb       ___sys_errlist             004e07fb f   LIBCMT:syserr.obj
 0001:000df801       __set_osfhnd               004e0801 f   LIBCMT:osfinfo.obj
 0001:000df882       __free_osfhnd              004e0882 f   LIBCMT:osfinfo.obj
 0001:000df908       __get_osfhandle            004e0908 f   LIBCMT:osfinfo.obj
 0001:000df97f       ___lock_fhandle            004e097f f   LIBCMT:osfinfo.obj
 0001:000dfa1f       __unlock_fhandle           004e0a1f f   LIBCMT:osfinfo.obj
 0001:000dfa46       __alloc_osfhnd             004e0a46 f   LIBCMT:osfinfo.obj
 0001:000dfbe0       ___sbh_find_block          004e0be0 f   LIBCMT:sbheap.obj
 0001:000dfc10       ___sbh_free_block          004e0c10 f   LIBCMT:sbheap.obj
 0001:000dff26       ___sbh_alloc_new_region    004e0f26 f   LIBCMT:sbheap.obj
 0001:000dffd6       ___sbh_alloc_new_group     004e0fd6 f   LIBCMT:sbheap.obj
 0001:000e00de       ___sbh_resize_block        004e10de f   LIBCMT:sbheap.obj
 0001:000e03bf       ___sbh_alloc_block         004e13bf f   LIBCMT:sbheap.obj
 0001:000e085e       ___crtGetStringTypeA       004e185e f   LIBCMT:a_str.obj
 0001:000e08a0       ___free_lc_time            004e18a0 f   LIBCMT:inittime.obj
 0001:000e0a35       ___free_lconv_num          004e1a35 f   LIBCMT:initnum.obj
 0001:000e0a7a       ___free_lconv_mon          004e1a7a f   LIBCMT:initmon.obj
 0001:000e0b08       ____lc_codepage_func       004e1b08 f   LIBCMT:initctyp.obj
 0001:000e0b2e       _strcat_s                  004e1b2e f   LIBCMT:strcat_s.obj
 0001:000e0ba2       _strncpy_s                 004e1ba2 f   LIBCMT:strncpy_s.obj
 0001:000e0c57       __calloc_impl              004e1c57 f   LIBCMT:calloc_impl.obj
 0001:000e0d75       _realloc                   004e1d75 f   LIBCMT:realloc.obj
 0001:000e0f90       __recalloc                 004e1f90 f   LIBCMT:recalloc.obj
 0001:000e100b       __commit                   004e200b f   LIBCMT:commit.obj
 0001:000e10f0       __allmul                   004e20f0 f   LIBCMT:llmul.obj
 0001:000e1130       __aulldvrm                 004e2130 f   LIBCMT:ulldvrm.obj
 0001:000e11c5       __getbuf                   004e21c5 f   LIBCMT:_getbuf.obj
 0001:000e120e       __crt_debugger_hook        004e220e f   LIBCMT:dbghook.obj
 0001:000e1935       __sopen_helper             004e2935 f   LIBCMT:open.obj
 0001:000e1a01       __sopen_s                  004e2a01 f   LIBCMT:open.obj
 0001:000e1a21       __mbsnbicmp_l              004e2a21 f   LIBCMT:mbsnbicm.obj
 0001:000e1c4c       __mbsnbicmp                004e2c4c f   LIBCMT:mbsnbicm.obj
 0001:000e1c66       __mbsnbcmp_l               004e2c66 f   LIBCMT:mbsnbcmp.obj
 0001:000e1dd0       __mbsnbcmp                 004e2dd0 f   LIBCMT:mbsnbcmp.obj
 0001:000e1dec       __global_unwind2           004e2dec f   LIBCMT:exsup.obj
 0001:000e1e51       __local_unwind2            004e2e51 f   LIBCMT:exsup.obj
 0001:000e1ed5       __abnormal_termination     004e2ed5 f   LIBCMT:exsup.obj
 0001:000e1ef8       __NLG_Notify1              004e2ef8 f   LIBCMT:exsup.obj
 0001:000e1f01       __NLG_Notify               004e2f01 f   LIBCMT:exsup.obj
 0001:000e1f18       __NLG_Dispatch             004e2f18     LIBCMT:exsup.obj
 0001:000e1f18       __NLG_Dispatch2            004e2f18     LIBCMT:exsup.obj
 0001:000e1f20       __NLG_Call                 004e2f20 f   LIBCMT:exsup.obj
 0001:000e1f22       __NLG_Return2              004e2f22     LIBCMT:exsup.obj
 0001:000e1f23       __isatty                   004e2f23 f   LIBCMT:isatty.obj
 0001:000e1f87       __wctomb_s_l               004e2f87 f   LIBCMT:wctomb.obj
 0001:000e20f3       _wctomb_s                  004e30f3 f   LIBCMT:wctomb.obj
 0001:000e2110       ___crtMessageBoxA          004e3110 f   LIBCMT:crtmbox.obj
 0001:000e2279       __set_error_mode           004e3279 f   LIBCMT:errmode.obj
 0001:000e22c4       __fptrap                   004e32c4 f   LIBCMT:crt0fp.obj
 0001:000e22cd       __matherr                  004e32cd f   LIBCMT:_matherr_.obj
 0001:000e2320       __get_sse2_info            004e3320 f   LIBCMT:cpu_disp.obj
 0001:000e2382       ___sse2_available_init     004e3382 f   LIBCMT:cpu_disp.obj
 0001:000e238f       __frnd                     004e338f f   LIBCMT:_frnd_.obj
 0001:000e23a3       __lseeki64_nolock          004e33a3 f   LIBCMT:lseeki64.obj
 0001:000e2428       __lseeki64                 004e3428 f   LIBCMT:lseeki64.obj
 0001:000e2541       __forcdecpt_l              004e3541 f   LIBCMT:cvt.obj
 0001:000e25b4       __cropzeros_l              004e35b4 f   LIBCMT:cvt.obj
 0001:000e2636       __positive                 004e3636 f   LIBCMT:cvt.obj
 0001:000e2652       __fassign_l                004e3652 f   LIBCMT:cvt.obj
 0001:000e2694       __fassign                  004e3694 f   LIBCMT:cvt.obj
 0001:000e26cd       __forcdecpt                004e36cd f   LIBCMT:cvt.obj
 0001:000e26e0       __cropzeros                004e36e0 f   LIBCMT:cvt.obj
 0001:000e2862       __cftoe_l                  004e3862 f   LIBCMT:cvt.obj
 0001:000e2932       __cftoe                    004e3932 f   LIBCMT:cvt.obj
 0001:000e2952       __cftoa_l                  004e3952 f   LIBCMT:cvt.obj
 0001:000e2dbc       __cftof_l                  004e3dbc f   LIBCMT:cvt.obj
 0001:000e2e77       __cftog_l                  004e3e77 f   LIBCMT:cvt.obj
 0001:000e2f71       __cfltcvt_l                004e3f71 f   LIBCMT:cvt.obj
 0001:000e2ff9       __cfltcvt                  004e3ff9 f   LIBCMT:cvt.obj
 0001:000e301c       __setdefaultprecision      004e401c f   LIBCMT:fp8.obj
 0001:000e3047       __ms_p5_test_fdiv          004e4047 f   LIBCMT:_testfdiv_.obj
 0001:000e3085       __ms_p5_mp_test_fdiv       004e4085 f   LIBCMT:_testfdiv_.obj
 0001:000e30ae       __87except                 004e40ae f   LIBCMT:_87except_.obj
 0001:000e31ed       __fpclass                  004e41ed f   LIBCMT:_ieeemisc_.obj
 0001:000e3281       __getenv_helper_nolock     004e4281 f   LIBCMT:getenv.obj
 0001:000e3308       ___report_gsfailure        004e4308 f   LIBCMT:gs_report.obj
 0001:000e3410       __chkstk                   004e4410 f   LIBCMT:chkstk.obj
 0001:000e3410       __alloca_probe             004e4410     LIBCMT:chkstk.obj
 0001:000e343b       ___ansicp                  004e443b f   LIBCMT:convrtcp.obj
 0001:000e3484       ___convertcp               004e4484 f   LIBCMT:convrtcp.obj
 0001:000e3638       __ungetc_nolock            004e4638 f   LIBCMT:ungetc.obj
 0001:000e3729       __mbtowc_l                 004e4729 f   LIBCMT:mbtowc.obj
 0001:000e3840       _mbtowc                    004e4840 f   LIBCMT:mbtowc.obj
 0001:000e385a       __ld12tod                  004e485a f   LIBCMT:_intrncvt_.obj
 0001:000e3d9e       __ld12tof                  004e4d9e f   LIBCMT:_intrncvt_.obj
 0001:000e42e2       __putwch_nolock            004e52e2 f   LIBCMT:putwch.obj
 0001:000e43a7       ___mtold12                 004e53a7 f   LIBCMT:_mantold_.obj
 0001:000e45c8       __ismbblead                004e55c8 f   LIBCMT:ismbbyte.obj
 0001:000e45e0       __strnicmp_l               004e55e0 f   LIBCMT:strnicmp.obj
 0001:000e46d2       __strnicmp                 004e56d2 f   LIBCMT:strnicmp.obj
 0001:000e4730       __chsize_nolock            004e5730 f   LIBCMT:chsize.obj
 0001:000e48e6       __setmode_nolock           004e58e6 f   LIBCMT:setmode.obj
 0001:000e49a2       __get_fmode                004e59a2 f   LIBCMT:setmode.obj
 0001:000e49db       __atodbl_l                 004e59db f   LIBCMT:atodbl.obj
 0001:000e4a83       __atoflt_l                 004e5a83 f   LIBCMT:atodbl.obj
 0001:000e4b2b       __fptostr                  004e5b2b f   LIBCMT:_fptostr.obj
 0001:000e4bea       ___dtold                   004e5bea f   LIBCMT:_cfout_.obj
 0001:000e4ca7       __fltout2                  004e5ca7 f   LIBCMT:_cfout_.obj
 0001:000e4d40       __alldvrm                  004e5d40 f   LIBCMT:lldvrm.obj
 0001:000e4e20       __aullshr                  004e5e20 f   LIBCMT:ullshr.obj
 0001:000e4e3f       __controlfp_s              004e5e3f f   LIBCMT:_contrlfp_.obj
 0001:000e4eab       __mbsnbicoll_l             004e5eab f   LIBCMT:mbsnbico.obj
 0001:000e4f99       __mbsnbicoll               004e5f99 f   LIBCMT:mbsnbico.obj
 0001:000e4fb3       ___wtomb_environ           004e5fb3 f   LIBCMT:wtombenv.obj
 0001:000e504a       ___initconout              004e604a f   LIBCMT:initcon.obj
 0001:000e5069       ___termcon                 004e6069 f   LIBCMT:initcon.obj
 0001:000e50a0       ___ascii_strnicmp          004e60a0 f   LIBCMT:_strnicm.obj
 0001:000e5101       _$I10_OUTPUT               004e6101 f   LIBCMT:_x10fout_.obj
 0001:000e5b53       __control87                004e6b53 f i LIBCMT:_ieee87_.obj
 0001:000e61f0       ___crtCompareStringA       004e71f0 f   LIBCMT:a_cmp.obj
 0001:000e6232       __strnicoll_l              004e7232 f   LIBCMT:strnicol.obj
 0001:000e63d8       ___crtsetenv               004e73d8 f   LIBCMT:setenv.obj
 0001:000e6623       __strdup                   004e7623 f   LIBCMT:strdup.obj
 0001:000e6678       __mbschr_l                 004e7678 f   LIBCMT:mbschr.obj
 0001:000e6734       __mbschr                   004e7734 f   LIBCMT:mbschr.obj
 0001:000e674c       _RtlUnwind@16              004e774c f   kernel32:KERNEL32.dll
 0001:000e6760       __ftol2_sse                004e7760 f   LIBCMT:ftol2.obj
 0001:000e6769       __ftol2_pentium4           004e7769 f   LIBCMT:ftol2.obj
 0001:000e677c       __ftol2_sse_excpt          004e777c f   LIBCMT:ftol2.obj
 0001:000e6796       __ftol2                    004e7796 f   LIBCMT:ftol2.obj
 0001:000e680b       ?_JumpToContinuation@@YGXPAXPAUEHRegistrationNode@@@Z 004e780b f   LIBCMT:_trnsctrl_.obj
 0001:000e683d       ?_CallMemberFunction0@@YGXPAX0@Z 004e783d f   LIBCMT:_trnsctrl_.obj
 0001:000e683d       ?_CallMemberFunction1@@YGXPAX00@Z 004e783d f   LIBCMT:_trnsctrl_.obj
 0001:000e683d       ?_CallMemberFunction2@@YGXPAX00H@Z 004e783d f   LIBCMT:_trnsctrl_.obj
 0001:000e6844       ?_UnwindNestedFrames@@YGXPAUEHRegistrationNode@@PAUEHExceptionRecord@@@Z 004e7844 f   LIBCMT:_trnsctrl_.obj
 0001:000e6898       ___CxxFrameHandler3        004e7898 f   LIBCMT:_trnsctrl_.obj
 0001:000e6901       ?_CallSETranslator@@YAHPAUEHExceptionRecord@@PAUEHRegistrationNode@@PAX2PBU_s_FuncInfo@@H1@Z 004e7901 f   LIBCMT:_trnsctrl_.obj
 0001:000e6a77       ?_GetRangeOfTrysToCheck@@YAPBU_s_TryBlockMapEntry@@PBU_s_FuncInfo@@HHPAI1@Z 004e7a77 f   LIBCMT:_trnsctrl_.obj
 0001:000e6aec       __CreateFrameInfo          004e7aec f   LIBCMT:_trnsctrl_.obj
 0001:000e6b18       __IsExceptionObjectToBeDestroyed 004e7b18 f   LIBCMT:_trnsctrl_.obj
 0001:000e6b3f       __FindAndUnlinkFrame       004e7b3f f   LIBCMT:_trnsctrl_.obj
 0001:000e6b91       ?_CallCatchBlock2@@YAPAXPAUEHRegistrationNode@@PBU_s_FuncInfo@@PAXHK@Z 004e7b91 f   LIBCMT:_trnsctrl_.obj
 0001:000e6bf4       __EH_prolog                004e7bf4 f   LIBCMT:ehprolog.obj
 0001:000e6c20       __allshl                   004e7c20 f   LIBCMT:llshl.obj
 0001:000e6f4e       ___RTDynamicCast           004e7f4e f   LIBCMT:rtti.obj
 0001:000e7024       __SEH_prolog               004e8024 f   LIBCMT:sehprolg.obj
 0001:000e705f       __SEH_epilog               004e805f f   LIBCMT:sehprolg.obj
 0001:000e7078       __except_handler3          004e8078 f   LIBCMT:exsup3.obj
 0001:000e7176       __seh_longjmp_unwind@4     004e8176 f   LIBCMT:exsup3.obj
 0001:000e7191       ??0bad_exception@std@@QAE@PBD@Z 004e8191 f i LIBCMT:frame.obj
 0001:000e71af       ??1bad_exception@std@@UAE@XZ 004e81af f i LIBCMT:frame.obj
 0001:000e71ba       ??_Ebad_exception@std@@UAEPAXI@Z 004e81ba f i LIBCMT:frame.obj
 0001:000e71ba       ??_Gbad_exception@std@@UAEPAXI@Z 004e81ba f i LIBCMT:frame.obj
 0001:000e71e1       ___TypeMatch               004e81e1 f   LIBCMT:frame.obj
 0001:000e7240       ___FrameUnwindFilter       004e8240 f   LIBCMT:frame.obj
 0001:000e7289       ___FrameUnwindToState      004e8289 f   LIBCMT:frame.obj
 0001:000e73af       ___DestructExceptionObject 004e83af f   LIBCMT:frame.obj
 0001:000e7404       ___AdjustPointer           004e8404 f   LIBCMT:frame.obj
 0001:000e768d       ___BuildCatchObjectHelper  004e868d f   LIBCMT:frame.obj
 0001:000e780c       ___BuildCatchObject        004e880c f   LIBCMT:frame.obj
 0001:000e7d47       ??0bad_exception@std@@QAE@ABV01@@Z 004e8d47 f i LIBCMT:frame.obj
 0001:000e7d64       ___InternalCxxFrameHandler 004e8d64 f   LIBCMT:frame.obj
 0001:000e7e50       __CallSettingFrame@12      004e8e50 f   LIBCMT:lowhelpr.obj
 0001:000e7e77       __NLG_Return               004e8e77     LIBCMT:lowhelpr.obj
 0001:000e7e9c       _CallDestructExceptionObject 004e8e9c f   LIBCMT:calldtor.obj
 0001:000e7fa0       __ValidateEH3RN            004e8fa0 f   LIBCMT:eh3valid.obj
 0001:000e82e9       __EH_prolog3_catch         004e92e9 f   LIBCMT:ehprolg3.obj
 0001:000e831f       ?_ValidateWrite@@YAHPAXI@Z 004e931f f   LIBCMT:validate.obj
 0001:000e831f       ?_ValidateRead@@YAHPBXI@Z  004e931f f   LIBCMT:validate.obj
 0001:000e831f       ?_ValidateExecute@@YAHP6GHXZ@Z 004e931f f   LIBCMT:validate.obj
 0001:000f70b1       ??__Fmeshgroups@?1??sharemeshes@animmodel@@QAAPAUmeshgroup@1@PADZZ@YAXXZ 004f80b1 f i rendermodel.obj
 0001:000f70d1       ??__Fskeletons@?4??shareskeleton@skelmeshgroup@skelmodel@@QAEXPAD@Z@YAXXZ 004f80d1 f i rendermodel.obj
 0001:000f77fe       ??__Ftargets@?N@??aidefend@captureclientmode@game@@UAE_NPAUfpsent@@AAUaistate@ai@@@Z@YAXXZ 004f87fe f i client1.obj
 0001:000f7808       ??__Ftargets@?3??aifind@captureclientmode@game@@UAEXPAUfpsent@@AAUaistate@ai@@AAU?$vector@Uinterest@ai@@@@@Z@YAXXZ 004f8808 f i client1.obj
 0001:000f7812       ??__Ftargets@?BA@??aidefend@ctfclientmode@game@@UAE_NPAUfpsent@@AAUaistate@ai@@@Z@YAXXZ 004f8812 f i client1.obj
 0001:000f781c       ??__Ftargets@?6??aifind@ctfclientmode@game@@UAEXPAUfpsent@@AAUaistate@ai@@AAU?$vector@Uinterest@ai@@@@@Z@YAXXZ 004f881c f i client1.obj
 0001:000f7826       ??__Ftakenflags@?1??aicheck@ctfclientmode@game@@UAE_NPAUfpsent@@AAUaistate@ai@@@Z@YAXXZ 004f8826 f i client1.obj
 0001:000f7830       ??__Finterests@?4??aihomerun@ctfclientmode@game@@QAE_NPAUfpsent@@AAUaistate@ai@@@Z@YAXXZ 004f8830 f i client1.obj
 0002:00000000       __imp__VirtualQuery@12     004f9000     kernel32:KERNEL32.dll
 0002:00000004       __imp__SetEnvironmentVariableA@8 004f9004     kernel32:KERNEL32.dll
 0002:00000008       __imp__CompareStringW@24   004f9008     kernel32:KERNEL32.dll
 0002:0000000c       __imp__CompareStringA@24   004f900c     kernel32:KERNEL32.dll
 0002:00000010       __imp__GetProcessHeap@0    004f9010     kernel32:KERNEL32.dll
 0002:00000014       __imp__SetEndOfFile@4      004f9014     kernel32:KERNEL32.dll
 0002:00000018       __imp__WriteConsoleW@20    004f9018     kernel32:KERNEL32.dll
 0002:0000001c       __imp__GetConsoleOutputCP@0 004f901c     kernel32:KERNEL32.dll
 0002:00000020       __imp__WriteConsoleA@20    004f9020     kernel32:KERNEL32.dll
 0002:00000024       __imp__CreateFileA@28      004f9024     kernel32:KERNEL32.dll
 0002:00000028       __imp__FlushFileBuffers@4  004f9028     kernel32:KERNEL32.dll
 0002:0000002c       __imp__GetCurrentProcessId@0 004f902c     kernel32:KERNEL32.dll
 0002:00000030       __imp__GetTickCount@0      004f9030     kernel32:KERNEL32.dll
 0002:00000034       __imp__QueryPerformanceCounter@4 004f9034     kernel32:KERNEL32.dll
 0002:00000038       __imp__VirtualFree@12      004f9038     kernel32:KERNEL32.dll
 0002:0000003c       __imp__HeapCreate@12       004f903c     kernel32:KERNEL32.dll
 0002:00000040       __imp__GetEnvironmentStringsW@0 004f9040     kernel32:KERNEL32.dll
 0002:00000044       __imp__FreeEnvironmentStringsW@4 004f9044     kernel32:KERNEL32.dll
 0002:00000048       __imp__GetEnvironmentStrings@0 004f9048     kernel32:KERNEL32.dll
 0002:0000004c       __imp__FreeEnvironmentStringsA@4 004f904c     kernel32:KERNEL32.dll
 0002:00000050       __imp__ReadFile@20         004f9050     kernel32:KERNEL32.dll
 0002:00000054       __imp__SetFilePointer@16   004f9054     kernel32:KERNEL32.dll
 0002:00000058       __imp__GetConsoleMode@8    004f9058     kernel32:KERNEL32.dll
 0002:0000005c       __imp__GetConsoleCP@0      004f905c     kernel32:KERNEL32.dll
 0002:00000060       __imp__LCMapStringW@24     004f9060     kernel32:KERNEL32.dll
 0002:00000064       __imp__MultiByteToWideChar@24 004f9064     kernel32:KERNEL32.dll
 0002:00000068       __imp__LCMapStringA@24     004f9068     kernel32:KERNEL32.dll
 0002:0000006c       __imp__GetTimeZoneInformation@4 004f906c     kernel32:KERNEL32.dll
 0002:00000070       __imp__WideCharToMultiByte@32 004f9070     kernel32:KERNEL32.dll
 0002:00000074       __imp__RaiseException@16   004f9074     kernel32:KERNEL32.dll
 0002:00000078       __imp__InitializeCriticalSectionAndSpinCount@8 004f9078     kernel32:KERNEL32.dll
 0002:0000007c       __imp__WriteFile@20        004f907c     kernel32:KERNEL32.dll
 0002:00000080       __imp__RtlUnwind@16        004f9080     kernel32:KERNEL32.dll
 0002:00000084       __imp__HeapSize@12         004f9084     kernel32:KERNEL32.dll
 0002:00000088       __imp__IsDebuggerPresent@0 004f9088     kernel32:KERNEL32.dll
 0002:0000008c       __imp__TerminateProcess@8  004f908c     kernel32:KERNEL32.dll
 0002:00000090       __imp__DeleteCriticalSection@4 004f9090     kernel32:KERNEL32.dll
 0002:00000094       __imp__GetStartupInfoA@4   004f9094     kernel32:KERNEL32.dll
 0002:00000098       __imp__GetFileType@4       004f9098     kernel32:KERNEL32.dll
 0002:0000009c       __imp__GetStdHandle@4      004f909c     kernel32:KERNEL32.dll
 0002:000000a0       __imp__SetHandleCount@4    004f90a0     kernel32:KERNEL32.dll
 0002:000000a4       __imp__GetCurrentThreadId@0 004f90a4     kernel32:KERNEL32.dll
 0002:000000a8       __imp__SetLastError@4      004f90a8     kernel32:KERNEL32.dll
 0002:000000ac       __imp__TlsFree@4           004f90ac     kernel32:KERNEL32.dll
 0002:000000b0       __imp__TlsSetValue@8       004f90b0     kernel32:KERNEL32.dll
 0002:000000b4       __imp__TlsAlloc@0          004f90b4     kernel32:KERNEL32.dll
 0002:000000b8       __imp__TlsGetValue@4       004f90b8     kernel32:KERNEL32.dll
 0002:000000bc       __imp__IsValidCodePage@4   004f90bc     kernel32:KERNEL32.dll
 0002:000000c0       __imp__GetOEMCP@0          004f90c0     kernel32:KERNEL32.dll
 0002:000000c4       __imp__GetACP@0            004f90c4     kernel32:KERNEL32.dll
 0002:000000c8       __imp__InterlockedDecrement@4 004f90c8     kernel32:KERNEL32.dll
 0002:000000cc       __imp__InterlockedIncrement@4 004f90cc     kernel32:KERNEL32.dll
 0002:000000d0       __imp__GetCPInfo@8         004f90d0     kernel32:KERNEL32.dll
 0002:000000d4       __imp__SetUnhandledExceptionFilter@4 004f90d4     kernel32:KERNEL32.dll
 0002:000000d8       __imp__UnhandledExceptionFilter@4 004f90d8     kernel32:KERNEL32.dll
 0002:000000dc       __imp__HeapFree@12         004f90dc     kernel32:KERNEL32.dll
 0002:000000e0       __imp__HeapAlloc@12        004f90e0     kernel32:KERNEL32.dll
 0002:000000e4       __imp__GetDateFormatA@24   004f90e4     kernel32:KERNEL32.dll
 0002:000000e8       __imp__GetTimeFormatA@24   004f90e8     kernel32:KERNEL32.dll
 0002:000000ec       __imp__GetSystemTimeAsFileTime@4 004f90ec     kernel32:KERNEL32.dll
 0002:000000f0       __imp__MoveFileA@8         004f90f0     kernel32:KERNEL32.dll
 0002:000000f4       __imp__ExitProcess@4       004f90f4     kernel32:KERNEL32.dll
 0002:000000f8       __imp__GetProcAddress@8    004f90f8     kernel32:KERNEL32.dll
 0002:000000fc       __imp__Sleep@4             004f90fc     kernel32:KERNEL32.dll
 0002:00000100       __imp__GetModuleHandleW@4  004f9100     kernel32:KERNEL32.dll
 0002:00000104       __imp__DeleteFileA@4       004f9104     kernel32:KERNEL32.dll
 0002:00000108       __imp__GetLastError@0      004f9108     kernel32:KERNEL32.dll
 0002:0000010c       __imp__LeaveCriticalSection@4 004f910c     kernel32:KERNEL32.dll
 0002:00000110       __imp__EnterCriticalSection@4 004f9110     kernel32:KERNEL32.dll
 0002:00000114       __imp__FindNextFileA@8     004f9114     kernel32:KERNEL32.dll
 0002:00000118       __imp__FindFirstFileA@8    004f9118     kernel32:KERNEL32.dll
 0002:0000011c       __imp__CreateDirectoryA@8  004f911c     kernel32:KERNEL32.dll
 0002:00000120       __imp__GetFileAttributesA@4 004f9120     kernel32:KERNEL32.dll
 0002:00000124       __imp__CloseHandle@4       004f9124     kernel32:KERNEL32.dll
 0002:00000128       __imp__UnmapViewOfFile@4   004f9128     kernel32:KERNEL32.dll
 0002:0000012c       __imp__MapViewOfFile@20    004f912c     kernel32:KERNEL32.dll
 0002:00000130       __imp__OpenFileMappingA@12 004f9130     kernel32:KERNEL32.dll
 0002:00000134       __imp__GetCurrentThread@0  004f9134     kernel32:KERNEL32.dll
 0002:00000138       __imp__GlobalUnlock@4      004f9138     kernel32:KERNEL32.dll
 0002:0000013c       __imp__GlobalLock@4        004f913c     kernel32:KERNEL32.dll
 0002:00000140       __imp__GetCurrentProcess@0 004f9140     kernel32:KERNEL32.dll
 0002:00000144       __imp__SetPriorityClass@8  004f9144     kernel32:KERNEL32.dll
 0002:00000148       __imp__GetModuleHandleA@4  004f9148     kernel32:KERNEL32.dll
 0002:0000014c       __imp__GetModuleFileNameA@12 004f914c     kernel32:KERNEL32.dll
 0002:00000150       __imp__LoadLibraryA@4      004f9150     kernel32:KERNEL32.dll
 0002:00000154       __imp__GetCommandLineA@0   004f9154     kernel32:KERNEL32.dll
 0002:00000158       __imp__VirtualAlloc@16     004f9158     kernel32:KERNEL32.dll
 0002:0000015c       __imp__HeapReAlloc@16      004f915c     kernel32:KERNEL32.dll
 0002:00000160       __imp__GetStringTypeA@20   004f9160     kernel32:KERNEL32.dll
 0002:00000164       __imp__GetStringTypeW@16   004f9164     kernel32:KERNEL32.dll
 0002:00000168       __imp__GetLocaleInfoA@16   004f9168     kernel32:KERNEL32.dll
 0002:0000016c       __imp__SetStdHandle@8      004f916c     kernel32:KERNEL32.dll
 0002:00000170       \177KERNEL32_NULL_THUNK_DATA 004f9170     kernel32:KERNEL32.dll
 0002:00000174       __imp__glTranslatef@12     004f9174     opengl32:OPENGL32.dll
 0002:00000178       __imp__glMaterialfv@12     004f9178     opengl32:OPENGL32.dll
 0002:0000017c       __imp__glCopyTexImage2D@32 004f917c     opengl32:OPENGL32.dll
 0002:00000180       __imp__glColorMask@16      004f9180     opengl32:OPENGL32.dll
 0002:00000184       __imp__glClear@4           004f9184     opengl32:OPENGL32.dll
 0002:00000188       __imp__glFogf@8            004f9188     opengl32:OPENGL32.dll
 0002:0000018c       __imp__glAlphaFunc@8       004f918c     opengl32:OPENGL32.dll
 0002:00000190       __imp__glTexGeni@12        004f9190     opengl32:OPENGL32.dll
 0002:00000194       __imp__glLightModelfv@8    004f9194     opengl32:OPENGL32.dll
 0002:00000198       __imp__glFlush@0           004f9198     opengl32:OPENGL32.dll
 0002:0000019c       __imp__glDepthRange@16     004f919c     opengl32:OPENGL32.dll
 0002:000001a0       __imp__glTexGenfv@12       004f91a0     opengl32:OPENGL32.dll
 0002:000001a4       __imp__glColor4fv@4        004f91a4     opengl32:OPENGL32.dll
 0002:000001a8       __imp__glTexEnvi@12        004f91a8     opengl32:OPENGL32.dll
 0002:000001ac       __imp__glTexEnvfv@12       004f91ac     opengl32:OPENGL32.dll
 0002:000001b0       __imp__glTexCoord4f@16     004f91b0     opengl32:OPENGL32.dll
 0002:000001b4       __imp__glHint@8            004f91b4     opengl32:OPENGL32.dll
 0002:000001b8       __imp__glTexImage1D@32     004f91b8     opengl32:OPENGL32.dll
 0002:000001bc       __imp__glTexSubImage1D@28  004f91bc     opengl32:OPENGL32.dll
 0002:000001c0       __imp__glTexImage2D@36     004f91c0     opengl32:OPENGL32.dll
 0002:000001c4       __imp__glReadPixels@28     004f91c4     opengl32:OPENGL32.dll
 0002:000001c8       __imp__glGetTexLevelParameteriv@16 004f91c8     opengl32:OPENGL32.dll
 0002:000001cc       __imp__glIsEnabled@4       004f91cc     opengl32:OPENGL32.dll
 0002:000001d0       __imp__glPolygonOffset@8   004f91d0     opengl32:OPENGL32.dll
 0002:000001d4       __imp__glMultMatrixf@4     004f91d4     opengl32:OPENGL32.dll
 0002:000001d8       __imp__glFrustum@48        004f91d8     opengl32:OPENGL32.dll
 0002:000001dc       __imp__glLoadMatrixf@4     004f91dc     opengl32:OPENGL32.dll
 0002:000001e0       __imp__glNormalPointer@12  004f91e0     opengl32:OPENGL32.dll
 0002:000001e4       __imp__glCullFace@4        004f91e4     opengl32:OPENGL32.dll
 0002:000001e8       __imp__glFrontFace@4       004f91e8     opengl32:OPENGL32.dll
 0002:000001ec       __imp__glFogi@8            004f91ec     opengl32:OPENGL32.dll
 0002:000001f0       __imp__glShadeModel@4      004f91f0     opengl32:OPENGL32.dll
 0002:000001f4       __imp__glClearDepth@8      004f91f4     opengl32:OPENGL32.dll
 0002:000001f8       __imp__glClearColor@16     004f91f8     opengl32:OPENGL32.dll
 0002:000001fc       __imp__glGetIntegerv@8     004f91fc     opengl32:OPENGL32.dll
 0002:00000200       __imp__glGetString@4       004f9200     opengl32:OPENGL32.dll
 0002:00000204       __imp__glColor3ubv@4       004f9204     opengl32:OPENGL32.dll
 0002:00000208       __imp__glColor4ubv@4       004f9208     opengl32:OPENGL32.dll
 0002:0000020c       __imp__glPolygonMode@8     004f920c     opengl32:OPENGL32.dll
 0002:00000210       __imp__glViewport@16       004f9210     opengl32:OPENGL32.dll
 0002:00000214       __imp__glCopyTexSubImage2D@32 004f9214     opengl32:OPENGL32.dll
 0002:00000218       __imp__glScissor@16        004f9218     opengl32:OPENGL32.dll
 0002:0000021c       __imp__glTexParameteri@12  004f921c     opengl32:OPENGL32.dll
 0002:00000220       __imp__glRotatef@16        004f9220     opengl32:OPENGL32.dll
 0002:00000224       __imp__glDepthMask@4       004f9224     opengl32:OPENGL32.dll
 0002:00000228       __imp__glMatrixMode@4      004f9228     opengl32:OPENGL32.dll
 0002:0000022c       __imp__glReadBuffer@4      004f922c     opengl32:OPENGL32.dll
 0002:00000230       __imp__glDeleteTextures@8  004f9230     opengl32:OPENGL32.dll
 0002:00000234       __imp__glGenTextures@8     004f9234     opengl32:OPENGL32.dll
 0002:00000238       __imp__glBindTexture@8     004f9238     opengl32:OPENGL32.dll
 0002:0000023c       __imp__glPixelStorei@8     004f923c     opengl32:OPENGL32.dll
 0002:00000240       __imp__glTexSubImage2D@36  004f9240     opengl32:OPENGL32.dll
 0002:00000244       __imp__glEnable@4          004f9244     opengl32:OPENGL32.dll
 0002:00000248       __imp__glBlendFunc@8       004f9248     opengl32:OPENGL32.dll
 0002:0000024c       __imp__glColor3ub@12       004f924c     opengl32:OPENGL32.dll
 0002:00000250       __imp__glDisable@4         004f9250     opengl32:OPENGL32.dll
 0002:00000254       __imp__glPushMatrix@0      004f9254     opengl32:OPENGL32.dll
 0002:00000258       __imp__glScalef@12         004f9258     opengl32:OPENGL32.dll
 0002:0000025c       __imp__glColor4f@16        004f925c     opengl32:OPENGL32.dll
 0002:00000260       __imp__glPopMatrix@0       004f9260     opengl32:OPENGL32.dll
 0002:00000264       __imp__glColor3f@12        004f9264     opengl32:OPENGL32.dll
 0002:00000268       __imp__glLineWidth@4       004f9268     opengl32:OPENGL32.dll
 0002:0000026c       __imp__glDepthFunc@4       004f926c     opengl32:OPENGL32.dll
 0002:00000270       __imp__glColor4ub@16       004f9270     opengl32:OPENGL32.dll
 0002:00000274       __imp__glColor3fv@4        004f9274     opengl32:OPENGL32.dll
 0002:00000278       __imp__glDisableClientState@4 004f9278     opengl32:OPENGL32.dll
 0002:0000027c       __imp__glEnableClientState@4 004f927c     opengl32:OPENGL32.dll
 0002:00000280       __imp__glVertexPointer@16  004f9280     opengl32:OPENGL32.dll
 0002:00000284       __imp__glTexCoordPointer@16 004f9284     opengl32:OPENGL32.dll
 0002:00000288       __imp__glDrawArrays@12     004f9288     opengl32:OPENGL32.dll
 0002:0000028c       __imp__glLoadIdentity@0    004f928c     opengl32:OPENGL32.dll
 0002:00000290       __imp__glOrtho@48          004f9290     opengl32:OPENGL32.dll
 0002:00000294       __imp__glColorPointer@16   004f9294     opengl32:OPENGL32.dll
 0002:00000298       __imp__glDrawElements@16   004f9298     opengl32:OPENGL32.dll
 0002:0000029c       __imp__glGetFloatv@8       004f929c     opengl32:OPENGL32.dll
 0002:000002a0       __imp__glFogfv@8           004f92a0     opengl32:OPENGL32.dll
 0002:000002a4       __imp__glDrawBuffer@4      004f92a4     opengl32:OPENGL32.dll
 0002:000002a8       __imp__glLightfv@12        004f92a8     opengl32:OPENGL32.dll
 0002:000002ac       \177OPENGL32_NULL_THUNK_DATA 004f92ac     opengl32:OPENGL32.dll
 0002:000002b0       __imp__SDL_AllocRW         004f92b0     SDL:SDL.dll
 0002:000002b4       __imp__SDL_RWFromFile      004f92b4     SDL:SDL.dll
 0002:000002b8       __imp__SDL_UnlockAudio     004f92b8     SDL:SDL.dll
 0002:000002bc       __imp__SDL_LockAudio       004f92bc     SDL:SDL.dll
 0002:000002c0       __imp__SDL_WM_SetCaption   004f92c0     SDL:SDL.dll
 0002:000002c4       __imp__SDL_GetVideoInfo    004f92c4     SDL:SDL.dll
 0002:000002c8       __imp__SDL_CondSignal      004f92c8     SDL:SDL.dll
 0002:000002cc       __imp__SDL_GL_SwapBuffers  004f92cc     SDL:SDL.dll
 0002:000002d0       __imp__SDL_PollEvent       004f92d0     SDL:SDL.dll
 0002:000002d4       __imp__SDL_SetVideoMode    004f92d4     SDL:SDL.dll
 0002:000002d8       __imp__SDL_GL_SetAttribute 004f92d8     SDL:SDL.dll
 0002:000002dc       __imp__SDL_VideoModeOK     004f92dc     SDL:SDL.dll
 0002:000002e0       __imp__SDL_ListModes       004f92e0     SDL:SDL.dll
 0002:000002e4       __imp__SDL_EnableKeyRepeat 004f92e4     SDL:SDL.dll
 0002:000002e8       __imp__SDL_WasInit         004f92e8     SDL:SDL.dll
 0002:000002ec       __imp__SDL_SetGamma        004f92ec     SDL:SDL.dll
 0002:000002f0       __imp__SDL_WM_GrabInput    004f92f0     SDL:SDL.dll
 0002:000002f4       __imp__SDL_ShowCursor      004f92f4     SDL:SDL.dll
 0002:000002f8       __imp__SDL_GetModState     004f92f8     SDL:SDL.dll
 0002:000002fc       __imp__SDL_SaveBMP_RW      004f92fc     SDL:SDL.dll
 0002:00000300       __imp__SDL_FreeRW          004f9300     SDL:SDL.dll
 0002:00000304       __imp__SDL_mutexP          004f9304     SDL:SDL.dll
 0002:00000308       __imp__SDL_GetTicks        004f9308     SDL:SDL.dll
 0002:0000030c       __imp__SDL_Quit            004f930c     SDL:SDL.dll
 0002:00000310       __imp__SDL_GetError        004f9310     SDL:SDL.dll
 0002:00000314       __imp__SDL_strlcpy         004f9314     SDL:SDL.dll
 0002:00000318       __imp__SDL_SetModuleHandle 004f9318     SDL:SDL.dll
 0002:0000031c       __imp__SDL_Init            004f931c     SDL:SDL.dll
 0002:00000320       __imp__SDL_SetAlpha        004f9320     SDL:SDL.dll
 0002:00000324       __imp__SDL_FreeSurface     004f9324     SDL:SDL.dll
 0002:00000328       __imp__SDL_UpperBlit       004f9328     SDL:SDL.dll
 0002:0000032c       __imp__SDL_CreateRGBSurface 004f932c     SDL:SDL.dll
 0002:00000330       __imp__SDL_CreateRGBSurfaceFrom 004f9330     SDL:SDL.dll
 0002:00000334       __imp__SDL_GL_GetProcAddress 004f9334     SDL:SDL.dll
 0002:00000338       __imp__SDL_EnableUNICODE   004f9338     SDL:SDL.dll
 0002:0000033c       __imp__SDL_KillThread      004f933c     SDL:SDL.dll
 0002:00000340       __imp__SDL_ThreadID        004f9340     SDL:SDL.dll
 0002:00000344       __imp__SDL_GetThreadID     004f9344     SDL:SDL.dll
 0002:00000348       __imp__SDL_Delay           004f9348     SDL:SDL.dll
 0002:0000034c       __imp__SDL_RemoveTimer     004f934c     SDL:SDL.dll
 0002:00000350       __imp__SDL_AddTimer        004f9350     SDL:SDL.dll
 0002:00000354       __imp__SDL_WaitThread      004f9354     SDL:SDL.dll
 0002:00000358       __imp__SDL_CreateMutex     004f9358     SDL:SDL.dll
 0002:0000035c       __imp__SDL_DestroyMutex    004f935c     SDL:SDL.dll
 0002:00000360       __imp__SDL_CreateThread    004f9360     SDL:SDL.dll
 0002:00000364       __imp__SDL_CreateCond      004f9364     SDL:SDL.dll
 0002:00000368       __imp__SDL_DestroyCond     004f9368     SDL:SDL.dll
 0002:0000036c       __imp__SDL_CondWaitTimeout 004f936c     SDL:SDL.dll
 0002:00000370       __imp__SDL_CondBroadcast   004f9370     SDL:SDL.dll
 0002:00000374       __imp__SDL_CondWait        004f9374     SDL:SDL.dll
 0002:00000378       __imp__SDL_mutexV          004f9378     SDL:SDL.dll
 0002:0000037c       \177SDL_NULL_THUNK_DATA    004f937c     SDL:SDL.dll
 0002:00000380       __imp__IMG_Load_RW         004f9380     SDL_image:SDL_image.dll
 0002:00000384       __imp__IMG_Load            004f9384     SDL_image:SDL_image.dll
 0002:00000388       \177SDL_image_NULL_THUNK_DATA 004f9388     SDL_image:SDL_image.dll
 0002:0000038c       __imp__Mix_PlayingMusic    004f938c     SDL_mixer:SDL_mixer.dll
 0002:00000390       __imp__Mix_QuerySpec       004f9390     SDL_mixer:SDL_mixer.dll
 0002:00000394       __imp__Mix_SetPostMix      004f9394     SDL_mixer:SDL_mixer.dll
 0002:00000398       __imp__Mix_FadingChannel   004f9398     SDL_mixer:SDL_mixer.dll
 0002:0000039c       __imp__Mix_Volume          004f939c     SDL_mixer:SDL_mixer.dll
 0002:000003a0       __imp__Mix_SetPanning      004f93a0     SDL_mixer:SDL_mixer.dll
 0002:000003a4       __imp__Mix_HaltChannel     004f93a4     SDL_mixer:SDL_mixer.dll
 0002:000003a8       __imp__Mix_FreeChunk       004f93a8     SDL_mixer:SDL_mixer.dll
 0002:000003ac       __imp__Mix_Linked_Version  004f93ac     SDL_mixer:SDL_mixer.dll
 0002:000003b0       __imp__Mix_FadeOutChannel  004f93b0     SDL_mixer:SDL_mixer.dll
 0002:000003b4       __imp__Mix_PlayChannelTimed 004f93b4     SDL_mixer:SDL_mixer.dll
 0002:000003b8       __imp__Mix_FadeInChannelTimed 004f93b8     SDL_mixer:SDL_mixer.dll
 0002:000003bc       __imp__Mix_LoadWAV_RW      004f93bc     SDL_mixer:SDL_mixer.dll
 0002:000003c0       __imp__Mix_ResumeMusic     004f93c0     SDL_mixer:SDL_mixer.dll
 0002:000003c4       __imp__Mix_PausedMusic     004f93c4     SDL_mixer:SDL_mixer.dll
 0002:000003c8       __imp__Mix_CloseAudio      004f93c8     SDL_mixer:SDL_mixer.dll
 0002:000003cc       __imp__Mix_PlayMusic       004f93cc     SDL_mixer:SDL_mixer.dll
 0002:000003d0       __imp__Mix_LoadMUS         004f93d0     SDL_mixer:SDL_mixer.dll
 0002:000003d4       __imp__Mix_LoadMUS_RW      004f93d4     SDL_mixer:SDL_mixer.dll
 0002:000003d8       __imp__Mix_ChannelFinished 004f93d8     SDL_mixer:SDL_mixer.dll
 0002:000003dc       __imp__Mix_AllocateChannels 004f93dc     SDL_mixer:SDL_mixer.dll
 0002:000003e0       __imp__Mix_OpenAudio       004f93e0     SDL_mixer:SDL_mixer.dll
 0002:000003e4       __imp__Mix_FreeMusic       004f93e4     SDL_mixer:SDL_mixer.dll
 0002:000003e8       __imp__Mix_HaltMusic       004f93e8     SDL_mixer:SDL_mixer.dll
 0002:000003ec       __imp__Mix_VolumeMusic     004f93ec     SDL_mixer:SDL_mixer.dll
 0002:000003f0       \177SDL_mixer_NULL_THUNK_DATA 004f93f0     SDL_mixer:SDL_mixer.dll
 0002:000003f4       __imp__OpenClipboard@4     004f93f4     user32:USER32.dll
 0002:000003f8       __imp__MessageBoxA@16      004f93f8     user32:USER32.dll
 0002:000003fc       __imp__CloseClipboard@0    004f93fc     user32:USER32.dll
 0002:00000400       __imp__GetClipboardData@4  004f9400     user32:USER32.dll
 0002:00000404       __imp__IsClipboardFormatAvailable@4 004f9404     user32:USER32.dll
 0002:00000408       \177USER32_NULL_THUNK_DATA 004f9408     user32:USER32.dll
 0002:0000040c       __imp__timeGetTime@0       004f940c     winmm:WINMM.dll
 0002:00000410       __imp__timeEndPeriod@4     004f9410     winmm:WINMM.dll
 0002:00000414       __imp__timeBeginPeriod@4   004f9414     winmm:WINMM.dll
 0002:00000418       \177WINMM_NULL_THUNK_DATA  004f9418     winmm:WINMM.dll
 0002:0000041c       __imp__select@20           004f941c     ws2_32:WS2_32.dll
 0002:00000420       __imp__WSAGetLastError@0   004f9420     ws2_32:WS2_32.dll
 0002:00000424       __imp__WSARecvFrom@36      004f9424     ws2_32:WS2_32.dll
 0002:00000428       __imp__WSASendTo@36        004f9428     ws2_32:WS2_32.dll
 0002:0000042c       __imp__closesocket@4       004f942c     ws2_32:WS2_32.dll
 0002:00000430       __imp__accept@12           004f9430     ws2_32:WS2_32.dll
 0002:00000434       __imp__connect@12          004f9434     ws2_32:WS2_32.dll
 0002:00000438       __imp__setsockopt@20       004f9438     ws2_32:WS2_32.dll
 0002:0000043c       __imp__ioctlsocket@12      004f943c     ws2_32:WS2_32.dll
 0002:00000440       __imp__socket@12           004f9440     ws2_32:WS2_32.dll
 0002:00000444       __imp__listen@8            004f9444     ws2_32:WS2_32.dll
 0002:00000448       __imp__bind@12             004f9448     ws2_32:WS2_32.dll
 0002:0000044c       __imp__gethostbyaddr@12    004f944c     ws2_32:WS2_32.dll
 0002:00000450       __imp__inet_ntoa@4         004f9450     ws2_32:WS2_32.dll
 0002:00000454       __imp__inet_addr@4         004f9454     ws2_32:WS2_32.dll
 0002:00000458       __imp__gethostbyname@4     004f9458     ws2_32:WS2_32.dll
 0002:0000045c       __imp__WSACleanup@0        004f945c     ws2_32:WS2_32.dll
 0002:00000460       __imp__WSAStartup@8        004f9460     ws2_32:WS2_32.dll
 0002:00000464       __imp__ntohs@4             004f9464     ws2_32:WS2_32.dll
 0002:00000468       __imp__ntohl@4             004f9468     ws2_32:WS2_32.dll
 0002:0000046c       __imp__htonl@4             004f946c     ws2_32:WS2_32.dll
 0002:00000470       __imp__htons@4             004f9470     ws2_32:WS2_32.dll
 0002:00000474       __imp____WSAFDIsSet@8      004f9474     ws2_32:WS2_32.dll
 0002:00000478       \177WS2_32_NULL_THUNK_DATA 004f9478     ws2_32:WS2_32.dll
 0002:0000047c       __imp__SymGetLineFromAddr@16 004f947c     dbghelp:dbghelp.dll
 0002:00000480       __imp__SymGetSymFromAddr@16 004f9480     dbghelp:dbghelp.dll
 0002:00000484       __imp__SymFunctionTableAccess@8 004f9484     dbghelp:dbghelp.dll
 0002:00000488       __imp__SymGetModuleBase@8  004f9488     dbghelp:dbghelp.dll
 0002:0000048c       __imp__StackWalk@36        004f948c     dbghelp:dbghelp.dll
 0002:00000490       __imp__SymInitialize@12    004f9490     dbghelp:dbghelp.dll
 0002:00000494       \177dbghelp_NULL_THUNK_DATA 004f9494     dbghelp:dbghelp.dll
 0002:00000498       __imp__inflate             004f9498     zdll:zlib1.dll
 0002:0000049c       __imp__inflateReset        004f949c     zdll:zlib1.dll
 0002:000004a0       __imp__inflateEnd          004f94a0     zdll:zlib1.dll
 0002:000004a4       __imp__deflateInit2_       004f94a4     zdll:zlib1.dll
 0002:000004a8       __imp__inflateInit2_       004f94a8     zdll:zlib1.dll
 0002:000004ac       __imp__deflateEnd          004f94ac     zdll:zlib1.dll
 0002:000004b0       __imp__deflate             004f94b0     zdll:zlib1.dll
 0002:000004b4       __imp__deflateInit_        004f94b4     zdll:zlib1.dll
 0002:000004b8       __imp__crc32               004f94b8     zdll:zlib1.dll
 0002:000004bc       __imp__uncompress          004f94bc     zdll:zlib1.dll
 0002:000004c0       __imp__compress2           004f94c0     zdll:zlib1.dll
 0002:000004c4       __imp__compressBound       004f94c4     zdll:zlib1.dll
 0002:000004c8       \177zlib1_NULL_THUNK_DATA  004f94c8     zdll:zlib1.dll
 0002:000004cc       ___xc_a                    004f94cc     LIBCMT:crt0init.obj
 0002:0000195c       ___xc_z                    004fa95c     LIBCMT:crt0init.obj
 0002:00001960       ___xi_a                    004fa960     LIBCMT:crt0init.obj
 0002:0000197c       ___xi_z                    004fa97c     LIBCMT:crt0init.obj
 0002:00001980       ___xp_a                    004fa980     LIBCMT:crt0init.obj
 0002:0000198c       ___xp_z                    004fa98c     LIBCMT:crt0init.obj
 0002:00001990       ___xt_a                    004fa990     LIBCMT:crt0init.obj
 0002:00001994       ___xt_z                    004fa994     LIBCMT:crt0init.obj
 0002:00001aa0       ??_C@_0P@MIGLKIOC@CorExitProcess?$AA@ 004faaa0     LIBCMT:crt0dat.obj
 0002:00001ab0       ??_C@_1BI@BGOHAHKC@?$AAm?$AAs?$AAc?$AAo?$AAr?$AAe?$AAe?$AA?4?$AAd?$AAl?$AAl?$AA?$AA@ 004faab0     LIBCMT:crt0dat.obj
 0002:00001ac8       ??_C@_0P@GHFPNOJB@bad?5allocation?$AA@ 004faac8     LIBCMT:new.obj
 0002:00001adc       ??_7bad_alloc@std@@6B@     004faadc     LIBCMT:new.obj
 0002:00001b8c       ??_7type_info@@6B@         004fab8c     LIBCMT:typinfo.obj
 0002:00001b90       ??_C@_08JCCMCCIL@HH?3mm?3ss?$AA@ 004fab90     LIBCMT:strftime.obj
 0002:00001b9c       ??_C@_0BE@CKGJFCPC@dddd?0?5MMMM?5dd?0?5yyyy?$AA@ 004fab9c     LIBCMT:strftime.obj
 0002:00001bb0       ??_C@_08BPBNCDIB@MM?1dd?1yy?$AA@ 004fabb0     LIBCMT:strftime.obj
 0002:00001bbc       ??_C@_02CJNFDJBF@PM?$AA@   004fabbc     LIBCMT:strftime.obj
 0002:00001bc0       ??_C@_02DEDBPAFC@AM?$AA@   004fabc0     LIBCMT:strftime.obj
 0002:00001bc4       ??_C@_08EDHMEBNP@December?$AA@ 004fabc4     LIBCMT:strftime.obj
 0002:00001bd0       ??_C@_08HCHEGEOA@November?$AA@ 004fabd0     LIBCMT:strftime.obj
 0002:00001bdc       ??_C@_07JJNFCEND@October?$AA@ 004fabdc     LIBCMT:strftime.obj
 0002:00001be4       ??_C@_09BHHEALKD@September?$AA@ 004fabe4     LIBCMT:strftime.obj
 0002:00001bf0       ??_C@_06LBBHFDDG@August?$AA@ 004fabf0     LIBCMT:strftime.obj
 0002:00001bf8       ??_C@_04MIEPOIFP@July?$AA@ 004fabf8     LIBCMT:strftime.obj
 0002:00001c00       ??_C@_04CNLMGBGM@June?$AA@ 004fac00     LIBCMT:strftime.obj
 0002:00001c08       ??_C@_05DMJDNLEJ@April?$AA@ 004fac08     LIBCMT:strftime.obj
 0002:00001c10       ??_C@_05HPCKOFNC@March?$AA@ 004fac10     LIBCMT:strftime.obj
 0002:00001c18       ??_C@_08GNJGEPFN@February?$AA@ 004fac18     LIBCMT:strftime.obj
 0002:00001c24       ??_C@_07CGJPFGJA@January?$AA@ 004fac24     LIBCMT:strftime.obj
 0002:00001c2c       ??_C@_03MKABNOCG@Dec?$AA@  004fac2c     LIBCMT:strftime.obj
 0002:00001c30       ??_C@_03JPJOFNIA@Nov?$AA@  004fac30     LIBCMT:strftime.obj
 0002:00001c34       ??_C@_03BMAOKBAD@Oct?$AA@  004fac34     LIBCMT:strftime.obj
 0002:00001c38       ??_C@_03GGCAPAJC@Sep?$AA@  004fac38     LIBCMT:strftime.obj
 0002:00001c3c       ??_C@_03IFJFEIGA@Aug?$AA@  004fac3c     LIBCMT:strftime.obj
 0002:00001c40       ??_C@_03LBGABGKK@Jul?$AA@  004fac40     LIBCMT:strftime.obj
 0002:00001c44       ??_C@_03IDFGHECI@Jun?$AA@  004fac44     LIBCMT:strftime.obj
 0002:00001c48       ??_C@_03CNMDKL@May?$AA@    004fac48     LIBCMT:strftime.obj
 0002:00001c4c       ??_C@_03LEOLGMJP@Apr?$AA@  004fac4c     LIBCMT:strftime.obj
 0002:00001c50       ??_C@_03ODNJBKGA@Mar?$AA@  004fac50     LIBCMT:strftime.obj
 0002:00001c54       ??_C@_03HJBDCHOM@Feb?$AA@  004fac54     LIBCMT:strftime.obj
 0002:00001c58       ??_C@_03JIHJHPIE@Jan?$AA@  004fac58     LIBCMT:strftime.obj
 0002:00001c5c       ??_C@_08INBOOONO@Saturday?$AA@ 004fac5c     LIBCMT:strftime.obj
 0002:00001c68       ??_C@_06JECMNKMI@Friday?$AA@ 004fac68     LIBCMT:strftime.obj
 0002:00001c70       ??_C@_08HACCIKIA@Thursday?$AA@ 004fac70     LIBCMT:strftime.obj
 0002:00001c7c       ??_C@_09DLIGFAKA@Wednesday?$AA@ 004fac7c     LIBCMT:strftime.obj
 0002:00001c88       ??_C@_07BAAGCFCM@Tuesday?$AA@ 004fac88     LIBCMT:strftime.obj
 0002:00001c90       ??_C@_06JLEDEDGH@Monday?$AA@ 004fac90     LIBCMT:strftime.obj
 0002:00001c98       ??_C@_06OOPIFAJ@Sunday?$AA@ 004fac98     LIBCMT:strftime.obj
 0002:00001ca0       ??_C@_03FEFJNEK@Sat?$AA@   004faca0     LIBCMT:strftime.obj
 0002:00001ca4       ??_C@_03IDIOELNC@Fri?$AA@  004faca4     LIBCMT:strftime.obj
 0002:00001ca8       ??_C@_03IOFIKPDN@Thu?$AA@  004faca8     LIBCMT:strftime.obj
 0002:00001cac       ??_C@_03MHOMLAJA@Wed?$AA@  004facac     LIBCMT:strftime.obj
 0002:00001cb0       ??_C@_03NAGEINEP@Tue?$AA@  004facb0     LIBCMT:strftime.obj
 0002:00001cb4       ??_C@_03PDAGKDH@Mon?$AA@   004facb4     LIBCMT:strftime.obj
 0002:00001cb8       ??_C@_03KOEHGMDN@Sun?$AA@  004facb8     LIBCMT:strftime.obj
 0002:00001cbc       ??_C@_03EBAPMIKO@a?1p?$AA@ 004facbc     LIBCMT:strftime.obj
 0002:00001cc0       ??_C@_05JAMEPDIN@am?1pm?$AA@ 004facc0     LIBCMT:strftime.obj
 0002:00001d48       ??_C@_0O@NLDKAIKN@EncodePointer?$AA@ 004fad48     LIBCMT:tidtable.obj
 0002:00001d58       ??_C@_1BK@DBDEIDLH@?$AAK?$AAE?$AAR?$AAN?$AAE?$AAL?$AA3?$AA2?$AA?4?$AAD?$AAL?$AAL?$AA?$AA@ 004fad58     LIBCMT:tidtable.obj
 0002:00001d74       ??_C@_0O@KBPMFGHI@DecodePointer?$AA@ 004fad74     LIBCMT:tidtable.obj
 0002:00001d84       ??_C@_07PEJMOBNF@FlsFree?$AA@ 004fad84     LIBCMT:tidtable.obj
 0002:00001d8c       ??_C@_0M@JCPCPOEF@FlsSetValue?$AA@ 004fad8c     LIBCMT:tidtable.obj
 0002:00001d98       ??_C@_0M@GDNOONDI@FlsGetValue?$AA@ 004fad98     LIBCMT:tidtable.obj
 0002:00001da4       ??_C@_08KNHFBNJ@FlsAlloc?$AA@ 004fada4     LIBCMT:tidtable.obj
 0002:00001dd0       ??_C@_1O@CEDCILHN@?$AA?$CI?$AAn?$AAu?$AAl?$AAl?$AA?$CJ?$AA?$AA@ 004fadd0     LIBCMT:output.obj
 0002:00001de0       ??_C@_06OJHGLDPL@?$CInull?$CJ?$AA@ 004fade0     LIBCMT:output.obj
 0002:00001de8       ___lookuptable             004fade8     LIBCMT:output.obj
 0002:00001e44       ??_C@_0P@GGKDKEEG@runtime?5error?5?$AA@ 004fae44     LIBCMT:crt0msg.obj
 0002:00001e54       ??_C@_0O@MJNIPGOH@TLOSS?5error?$AN?6?$AA@ 004fae54     LIBCMT:crt0msg.obj
 0002:00001e64       ??_C@_0N@BONNPDHF@SING?5error?$AN?6?$AA@ 004fae64     LIBCMT:crt0msg.obj
 0002:00001e74       ??_C@_0P@MBDAJNE@DOMAIN?5error?$AN?6?$AA@ 004fae74     LIBCMT:crt0msg.obj
 0002:00001e88       ??_C@_0JL@DFDOOABL@R6034?$AN?6An?5application?5has?5made?5a@ 004fae88     LIBCMT:crt0msg.obj
 0002:00001f28       ??_C@_0PH@EPAFIJ@R6033?$AN?6?9?5Attempt?5to?5use?5MSIL?5cod@ 004faf28     LIBCMT:crt0msg.obj
 0002:00002020       ??_C@_0DD@BKEEABMM@R6032?$AN?6?9?5not?5enough?5space?5for?5lo@ 004fb020     LIBCMT:crt0msg.obj
 0002:00002058       ??_C@_0GD@OFKILIED@R6031?$AN?6?9?5Attempt?5to?5initialize?5t@ 004fb058     LIBCMT:crt0msg.obj
 0002:000020bc       ??_C@_0BP@LPMHJOKI@R6030?$AN?6?9?5CRT?5not?5initialized?$AN?6?$AA@ 004fb0bc     LIBCMT:crt0msg.obj
 0002:000020dc       ??_C@_0CF@KJDAIALP@R6028?$AN?6?9?5unable?5to?5initialize?5he@ 004fb0dc     LIBCMT:crt0msg.obj
 0002:00002104       ??_C@_0DF@GAKBPDFP@R6027?$AN?6?9?5not?5enough?5space?5for?5lo@ 004fb104     LIBCMT:crt0msg.obj
 0002:0000213c       ??_C@_0DF@IBLNNAIG@R6026?$AN?6?9?5not?5enough?5space?5for?5st@ 004fb13c     LIBCMT:crt0msg.obj
 0002:00002174       ??_C@_0CG@IOHKGFNJ@R6025?$AN?6?9?5pure?5virtual?5function?5c@ 004fb174     LIBCMT:crt0msg.obj
 0002:0000219c       ??_C@_0DF@JIJJFJDC@R6024?$AN?6?9?5not?5enough?5space?5for?5_o@ 004fb19c     LIBCMT:crt0msg.obj
 0002:000021d4       ??_C@_0CJ@EGEJHFME@R6019?$AN?6?9?5unable?5to?5open?5console?5@ 004fb1d4     LIBCMT:crt0msg.obj
 0002:00002200       ??_C@_0CB@GNHNIELH@R6018?$AN?6?9?5unexpected?5heap?5error?$AN?6@ 004fb200     LIBCMT:crt0msg.obj
 0002:00002224       ??_C@_0CN@FOLDKNG@R6017?$AN?6?9?5unexpected?5multithread?5@ 004fb224     LIBCMT:crt0msg.obj
 0002:00002254       ??_C@_0CM@FAHFJNHO@R6016?$AN?6?9?5not?5enough?5space?5for?5th@ 004fb254     LIBCMT:crt0msg.obj
 0002:00002280       ??_C@_0JG@LBKMGKLD@?$AN?6This?5application?5has?5requested@ 004fb280     LIBCMT:crt0msg.obj
 0002:00002318       ??_C@_0CM@FLCNIPKK@R6009?$AN?6?9?5not?5enough?5space?5for?5en@ 004fb318     LIBCMT:crt0msg.obj
 0002:00002344       ??_C@_0CK@KMMJOAPP@R6008?$AN?6?9?5not?5enough?5space?5for?5ar@ 004fb344     LIBCMT:crt0msg.obj
 0002:00002370       ??_C@_0CN@LEKKICBM@R6002?$AN?6?9?5floating?5point?5support?5@ 004fb370     LIBCMT:crt0msg.obj
 0002:000023a0       ??_C@_0CF@GOGNBNAK@Microsoft?5Visual?5C?$CL?$CL?5Runtime?5Lib@ 004fb3a0     LIBCMT:crt0msg.obj
 0002:000023c8       ??_C@_02PHMGELLB@?6?6?$AA@ 004fb3c8     LIBCMT:crt0msg.obj
 0002:000023cc       ??_C@_03KHICJKCI@?4?4?4?$AA@ 004fb3cc     LIBCMT:crt0msg.obj
 0002:000023d0       ??_C@_0BH@DNAGHKFM@?$DMprogram?5name?5unknown?$DO?$AA@ 004fb3d0     LIBCMT:crt0msg.obj
 0002:000023e8       ??_C@_0BK@OFGJDLJJ@Runtime?5Error?$CB?6?6Program?3?5?$AA@ 004fb3e8     LIBCMT:crt0msg.obj
 0002:00002408       __XcptActTab               004fb408     LIBCMT:winxfltr.obj
 0002:00002484       ??_7exception@std@@6B@     004fb484     LIBCMT:stdexcpt.obj
 0002:0000248c       ??_C@_0BC@EOODALEL@Unknown?5exception?$AA@ 004fb48c     LIBCMT:stdexcpt.obj
 0002:000024a4       ??_7bad_cast@std@@6B@      004fb4a4     LIBCMT:stdexcpt.obj
 0002:000024b0       ??_7bad_typeid@std@@6B@    004fb4b0     LIBCMT:stdexcpt.obj
 0002:000024bc       ??_7__non_rtti_object@std@@6B@ 004fb4bc     LIBCMT:stdexcpt.obj
 0002:00002550       ??_C@_04GFPJNGEK@ceil?$AA@ 004fb550     LIBCMT:_libm_error_.obj
 0002:00002558       ??_C@_05EOHGHCHD@exp10?$AA@ 004fb558     LIBCMT:_libm_error_.obj
 0002:00002560       ??_C@_03MGHMBJCF@log?$AA@  004fb560     LIBCMT:_libm_error_.obj
 0002:00002564       __FPinit                   004fb564     LIBCMT:_fpinit_.obj
 0002:00002568       __FPmtinit                 004fb568     LIBCMT:_fpinit_.obj
 0002:0000256c       __FPmtterm                 004fb56c     LIBCMT:_fpinit_.obj
 0002:00002578       __DEFAULT_CW_in_mem        004fb578     LIBCMT:_common_.obj
 0002:0000257a       __pi_by_2_to_61            004fb57a     LIBCMT:_common_.obj
 0002:00003710       ??_C@_0L@KDOEJCKC@_nextafter?$AA@ 004fc710     LIBCMT:_fpexcept_.obj
 0002:0000371c       ??_C@_05JGDBENOH@_logb?$AA@ 004fc71c     LIBCMT:_fpexcept_.obj
 0002:00003724       ??_C@_03ONILCKOB@_yn?$AA@  004fc724     LIBCMT:_fpexcept_.obj
 0002:00003728       ??_C@_03NAKIGLHK@_y1?$AA@  004fc728     LIBCMT:_fpexcept_.obj
 0002:0000372c       ??_C@_03MJLDFKDL@_y0?$AA@  004fc72c     LIBCMT:_fpexcept_.obj
 0002:00003730       ??_C@_05GKKHEGJL@frexp?$AA@ 004fc730     LIBCMT:_fpexcept_.obj
 0002:00003738       ??_C@_04KEPJIHGP@fmod?$AA@ 004fc738     LIBCMT:_fpexcept_.obj
 0002:00003740       ??_C@_06MEIMCGCF@_hypot?$AA@ 004fc740     LIBCMT:_fpexcept_.obj
 0002:00003748       ??_C@_05KBKMEMPO@_cabs?$AA@ 004fc748     LIBCMT:_fpexcept_.obj
 0002:00003750       ??_C@_05CEJMAHNP@ldexp?$AA@ 004fc750     LIBCMT:_fpexcept_.obj
 0002:00003758       ??_C@_04ODHECPBC@fabs?$AA@ 004fc758     LIBCMT:_fpexcept_.obj
 0002:00003760       ??_C@_05KNGEOGJB@atan2?$AA@ 004fc760     LIBCMT:_fpexcept_.obj
 0002:00003768       ??_C@_04FJHINJAO@tanh?$AA@ 004fc768     LIBCMT:_fpexcept_.obj
 0002:00003770       ??_C@_04HPJJNFIM@cosh?$AA@ 004fc770     LIBCMT:_fpexcept_.obj
 0002:00003778       ??_C@_04COOMCNPB@sinh?$AA@ 004fc778     LIBCMT:_fpexcept_.obj
 0002:000088d0       __real@3fe0000000000000    005018d0     LIBCMT:_powhlp_.obj
 0002:0000a880       ??_C@_02CLFPBFFP@TZ?$AA@   00503880     LIBCMT:tzset.obj
 0002:0000a884       ___dnames                  00503884     LIBCMT:timeset.obj
 0002:0000a89c       ___mnames                  0050389c     LIBCMT:timeset.obj
 0002:0000d060       ___lookuptable_s           00506060     LIBCMT:outputs.obj
 0002:0000d0bc       ??_C@_0BG@KLEAJEFJ@Illegal?5byte?5sequence?$AA@ 005060bc     LIBCMT:syserr.obj
 0002:0000d0d4       ??_C@_0BE@ICMCHPHH@Directory?5not?5empty?$AA@ 005060d4     LIBCMT:syserr.obj
 0002:0000d0e8       ??_C@_0BJ@IHEHINLI@Function?5not?5implemented?$AA@ 005060e8     LIBCMT:syserr.obj
 0002:0000d104       ??_C@_0BD@CLHBCGPB@No?5locks?5available?$AA@ 00506104     LIBCMT:syserr.obj
 0002:0000d118       ??_C@_0BC@BEDIHIDK@Filename?5too?5long?$AA@ 00506118     LIBCMT:syserr.obj
 0002:0000d12c       ??_C@_0BK@JAEBMJJM@Resource?5deadlock?5avoided?$AA@ 0050612c     LIBCMT:syserr.obj
 0002:0000d148       ??_C@_0BB@FCBJFCAJ@Result?5too?5large?$AA@ 00506148     LIBCMT:syserr.obj
 0002:0000d15c       ??_C@_0N@MMJPGLJK@Domain?5error?$AA@ 0050615c     LIBCMT:syserr.obj
 0002:0000d16c       ??_C@_0M@LHEPIIOM@Broken?5pipe?$AA@ 0050616c     LIBCMT:syserr.obj
 0002:0000d178       ??_C@_0P@PKCJJLLM@Too?5many?5links?$AA@ 00506178     LIBCMT:syserr.obj
 0002:0000d188       ??_C@_0BG@DDBFNKBH@Read?9only?5file?5system?$AA@ 00506188     LIBCMT:syserr.obj
 0002:0000d1a0       ??_C@_0N@FEHLOILP@Invalid?5seek?$AA@ 005061a0     LIBCMT:syserr.obj
 0002:0000d1b0       ??_C@_0BI@FEALHKLD@No?5space?5left?5on?5device?$AA@ 005061b0     LIBCMT:syserr.obj
 0002:0000d1c8       ??_C@_0P@LFMMIPAE@File?5too?5large?$AA@ 005061c8     LIBCMT:syserr.obj
 0002:0000d1d8       ??_C@_0CE@ONOKNLPF@Inappropriate?5I?1O?5control?5operat@ 005061d8     LIBCMT:syserr.obj
 0002:0000d1fc       ??_C@_0BE@INBJMKGG@Too?5many?5open?5files?$AA@ 005061fc     LIBCMT:syserr.obj
 0002:0000d210       ??_C@_0BO@IIFBODJE@Too?5many?5open?5files?5in?5system?$AA@ 00506210     LIBCMT:syserr.obj
 0002:0000d230       ??_C@_0BB@HMGGCEBG@Invalid?5argument?$AA@ 00506230     LIBCMT:syserr.obj
 0002:0000d244       ??_C@_0P@NDHGCGKE@Is?5a?5directory?$AA@ 00506244     LIBCMT:syserr.obj
 0002:0000d254       ??_C@_0BA@CJBACOOL@Not?5a?5directory?$AA@ 00506254     LIBCMT:syserr.obj
 0002:0000d264       ??_C@_0P@NLEIANHE@No?5such?5device?$AA@ 00506264     LIBCMT:syserr.obj
 0002:0000d274       ??_C@_0O@OAMDNOCP@Improper?5link?$AA@ 00506274     LIBCMT:syserr.obj
 0002:0000d284       ??_C@_0M@NAAJNNGH@File?5exists?$AA@ 00506284     LIBCMT:syserr.obj
 0002:0000d290       ??_C@_0BA@BIBLIOEK@Resource?5device?$AA@ 00506290     LIBCMT:syserr.obj
 0002:0000d2a0       ??_C@_0O@NIPGCINC@Unknown?5error?$AA@ 005062a0     LIBCMT:syserr.obj
 0002:0000d2b0       ??_C@_0M@LOEHLCJD@Bad?5address?$AA@ 005062b0     LIBCMT:syserr.obj
 0002:0000d2bc       ??_C@_0BC@HFNFNKAI@Permission?5denied?$AA@ 005062bc     LIBCMT:syserr.obj
 0002:0000d2d0       ??_C@_0BB@IMDKMPFB@Not?5enough?5space?$AA@ 005062d0     LIBCMT:syserr.obj
 0002:0000d2e4       ??_C@_0CB@EPFKGNAK@Resource?5temporarily?5unavailable@ 005062e4     LIBCMT:syserr.obj
 0002:0000d308       ??_C@_0BD@LOHELEP@No?5child?5processes?$AA@ 00506308     LIBCMT:syserr.obj
 0002:0000d31c       ??_C@_0BE@NFGDDCEF@Bad?5file?5descriptor?$AA@ 0050631c     LIBCMT:syserr.obj
 0002:0000d330       ??_C@_0BC@HKPNECK@Exec?5format?5error?$AA@ 00506330     LIBCMT:syserr.obj
 0002:0000d344       ??_C@_0BC@MFFGCDFL@Arg?5list?5too?5long?$AA@ 00506344     LIBCMT:syserr.obj
 0002:0000d358       ??_C@_0BK@DPKMCKJ@No?5such?5device?5or?5address?$AA@ 00506358     LIBCMT:syserr.obj
 0002:0000d374       ??_C@_0BD@KKNFOBBD@Input?1output?5error?$AA@ 00506374     LIBCMT:syserr.obj
 0002:0000d388       ??_C@_0BK@FJBOAFDK@Interrupted?5function?5call?$AA@ 00506388     LIBCMT:syserr.obj
 0002:0000d3a4       ??_C@_0BA@FKIAIBGA@No?5such?5process?$AA@ 005063a4     LIBCMT:syserr.obj
 0002:0000d3b4       ??_C@_0BK@FMDHKPNF@No?5such?5file?5or?5directory?$AA@ 005063b4     LIBCMT:syserr.obj
 0002:0000d3d0       ??_C@_0BI@BJFCGOHL@Operation?5not?5permitted?$AA@ 005063d0     LIBCMT:syserr.obj
 0002:0000d3e8       ??_C@_08INEPGKHH@No?5error?$AA@ 005063e8     LIBCMT:syserr.obj
 0002:0000d3f8       ___newctype                005063f8     LIBCMT:ctype.obj
 0002:0000d6f8       __wctype                   005066f8     LIBCMT:ctype.obj
 0002:0000d900       ___newclmap                00506900     LIBCMT:ctype.obj
 0002:0000da80       ___newcumap                00506a80     LIBCMT:ctype.obj
 0002:0000dc00       ??_C@_0BI@DFKBFLJE@GetProcessWindowStation?$AA@ 00506c00     LIBCMT:crtmbox.obj
 0002:0000dc18       ??_C@_0BK@CIDNPOGP@GetUserObjectInformationA?$AA@ 00506c18     LIBCMT:crtmbox.obj
 0002:0000dc34       ??_C@_0BD@HHGDFDBJ@GetLastActivePopup?$AA@ 00506c34     LIBCMT:crtmbox.obj
 0002:0000dc48       ??_C@_0BA@HNOPNCHB@GetActiveWindow?$AA@ 00506c48     LIBCMT:crtmbox.obj
 0002:0000dc58       ??_C@_0M@CHKKJDAI@MessageBoxA?$AA@ 00506c58     LIBCMT:crtmbox.obj
 0002:0000dc64       ??_C@_0L@NDEGIDAG@USER32?4DLL?$AA@ 00506c64     LIBCMT:crtmbox.obj
 0002:0000dc70       ??_C@_05KLBDPFGC@e?$CL000?$AA@ 00506c70     LIBCMT:cvt.obj
 0002:0000dc78       __real@4150017ec0000000    00506c78     LIBCMT:_testfdiv_.obj
 0002:0000dc80       __real@4147ffff80000000    00506c80     LIBCMT:_testfdiv_.obj
 0002:0000dc88       ??_C@_0BK@NHEOCAHP@IsProcessorFeaturePresent?$AA@ 00506c88     LIBCMT:_testfdiv_.obj
 0002:0000dca4       ??_C@_08CPNIBGIE@KERNEL32?$AA@ 00506ca4     LIBCMT:_testfdiv_.obj
 0002:0000dcb0       ??_C@_0BK@CFCOFLF@?5Complete?5Object?5Locator?8?$AA@ 00506cb0     LIBCMT:undname.obj
 0002:0000dccc       ??_C@_0BN@MECKDCOJ@?5Class?5Hierarchy?5Descriptor?8?$AA@ 00506ccc     LIBCMT:undname.obj
 0002:0000dcec       ??_C@_0BD@LGICGFMM@?5Base?5Class?5Array?8?$AA@ 00506cec     LIBCMT:undname.obj
 0002:0000dd00       ??_C@_0BM@LDKODKLH@?5Base?5Class?5Descriptor?5at?5?$CI?$AA@ 00506d00     LIBCMT:undname.obj
 0002:0000dd1c       ??_C@_0BC@DAFEJGAK@?5Type?5Descriptor?8?$AA@ 00506d1c     LIBCMT:undname.obj
 0002:0000dd30       ??_C@_0BM@PMGGMLDN@?$GAlocal?5static?5thread?5guard?8?$AA@ 00506d30     LIBCMT:undname.obj
 0002:0000dd4c       ??_C@_0CL@FGIJHLCE@?$GAmanaged?5vector?5copy?5constructor@ 00506d4c     LIBCMT:undname.obj
 0002:0000dd78       ??_C@_0CJ@GJELGAMM@?$GAvector?5vbase?5copy?5constructor?5i@ 00506d78     LIBCMT:undname.obj
 0002:0000dda4       ??_C@_0CD@CGAJBKEJ@?$GAvector?5copy?5constructor?5iterato@ 00506da4     LIBCMT:undname.obj
 0002:0000ddc8       ??_C@_0CB@PDBIFEP@?$GAdynamic?5atexit?5destructor?5for?5?8@ 00506dc8     LIBCMT:undname.obj
 0002:0000ddec       ??_C@_0BL@CLIPGLGB@?$GAdynamic?5initializer?5for?5?8?$AA@ 00506dec     LIBCMT:undname.obj
 0002:0000de08       ??_C@_0CM@FCBBDIGB@?$GAeh?5vector?5vbase?5copy?5constructo@ 00506e08     LIBCMT:undname.obj
 0002:0000de34       ??_C@_0CG@HLDDJMAG@?$GAeh?5vector?5copy?5constructor?5iter@ 00506e34     LIBCMT:undname.obj
 0002:0000de5c       ??_C@_0CF@IMGKMJNO@?$GAmanaged?5vector?5destructor?5itera@ 00506e5c     LIBCMT:undname.obj
 0002:0000de84       ??_C@_0CG@CFDHKGGD@?$GAmanaged?5vector?5constructor?5iter@ 00506e84     LIBCMT:undname.obj
 0002:0000deac       ??_C@_0BN@CKNJLHMB@?$GAplacement?5delete?$FL?$FN?5closure?8?$AA@ 00506eac     LIBCMT:undname.obj
 0002:0000decc       ??_C@_0BL@CNOONJFP@?$GAplacement?5delete?5closure?8?$AA@ 00506ecc     LIBCMT:undname.obj
 0002:0000dee8       ??_C@_0P@HJKNJFNN@?$GAomni?5callsig?8?$AA@ 00506ee8     LIBCMT:undname.obj
 0002:0000def8       ??_C@_09LBNFPBCA@?5delete?$FL?$FN?$AA@ 00506ef8     LIBCMT:undname.obj
 0002:0000df04       ??_C@_06FHBGPFGH@?5new?$FL?$FN?$AA@ 00506f04     LIBCMT:undname.obj
 0002:0000df0c       ??_C@_0CE@IIHCMGGL@?$GAlocal?5vftable?5constructor?5closu@ 00506f0c     LIBCMT:undname.obj
 0002:0000df30       ??_C@_0BA@KKLDJDLB@?$GAlocal?5vftable?8?$AA@ 00506f30     LIBCMT:undname.obj
 0002:0000df40       ??_C@_05KHLCHHI@?$GARTTI?$AA@ 00506f40     LIBCMT:undname.obj
 0002:0000df48       ??_C@_03KLGMFNMG@?$GAEH?$AA@ 00506f48     LIBCMT:undname.obj
 0002:0000df4c       ??_C@_0BA@KBCDOMBN@?$GAudt?5returning?8?$AA@ 00506f4c     LIBCMT:undname.obj
 0002:0000df5c       ??_C@_0BL@LLKPOHJI@?$GAcopy?5constructor?5closure?8?$AA@ 00506f5c     LIBCMT:undname.obj
 0002:0000df78       ??_C@_0CH@OOJPLCPH@?$GAeh?5vector?5vbase?5constructor?5ite@ 00506f78     LIBCMT:undname.obj
 0002:0000dfa0       ??_C@_0CA@GCEOPDGL@?$GAeh?5vector?5destructor?5iterator?8?$AA@ 00506fa0     LIBCMT:undname.obj
 0002:0000dfc0       ??_C@_0CB@JONCMFFK@?$GAeh?5vector?5constructor?5iterator?8@ 00506fc0     LIBCMT:undname.obj
 0002:0000dfe4       ??_C@_0BL@NILFHHPC@?$GAvirtual?5displacement?5map?8?$AA@ 00506fe4     LIBCMT:undname.obj
 0002:0000e000       ??_C@_0CE@IKBNEHA@?$GAvector?5vbase?5constructor?5iterat@ 00507000     LIBCMT:undname.obj
 0002:0000e024       ??_C@_0BN@LFPFMEDL@?$GAvector?5destructor?5iterator?8?$AA@ 00507024     LIBCMT:undname.obj
 0002:0000e044       ??_C@_0BO@PFGOCPJJ@?$GAvector?5constructor?5iterator?8?$AA@ 00507044     LIBCMT:undname.obj
 0002:0000e064       ??_C@_0BN@IMDCHIKM@?$GAscalar?5deleting?5destructor?8?$AA@ 00507064     LIBCMT:undname.obj
 0002:0000e084       ??_C@_0BO@OBMKPJIG@?$GAdefault?5constructor?5closure?8?$AA@ 00507084     LIBCMT:undname.obj
 0002:0000e0a4       ??_C@_0BN@DEGPLNFK@?$GAvector?5deleting?5destructor?8?$AA@ 005070a4     LIBCMT:undname.obj
 0002:0000e0c4       ??_C@_0BD@JDLKDPAB@?$GAvbase?5destructor?8?$AA@ 005070c4     LIBCMT:undname.obj
 0002:0000e0d8       ??_C@_08OBABFOLI@?$GAstring?8?$AA@ 005070d8     LIBCMT:undname.obj
 0002:0000e0e4       ??_C@_0BF@KDPPACIK@?$GAlocal?5static?5guard?8?$AA@ 005070e4     LIBCMT:undname.obj
 0002:0000e0fc       ??_C@_08LLFFHHDJ@?$GAtypeof?8?$AA@ 005070fc     LIBCMT:undname.obj
 0002:0000e108       ??_C@_07FEEIOKP@?$GAvcall?8?$AA@ 00507108     LIBCMT:undname.obj
 0002:0000e110       ??_C@_09BLBHBJP@?$GAvbtable?8?$AA@ 00507110     LIBCMT:undname.obj
 0002:0000e11c       ??_C@_09IFPLHPGF@?$GAvftable?8?$AA@ 0050711c     LIBCMT:undname.obj
 0002:0000e128       ??_C@_02MHEGNOJ@?$FO?$DN?$AA@ 00507128     LIBCMT:undname.obj
 0002:0000e12c       ??_C@_02DHLNPPGH@?$HM?$DN?$AA@ 0050712c     LIBCMT:undname.obj
 0002:0000e130       ??_C@_02FGJGFEAB@?$CG?$DN?$AA@ 00507130     LIBCMT:undname.obj
 0002:0000e134       ??_C@_03CDNPDDLA@?$DM?$DM?$DN?$AA@ 00507134     LIBCMT:undname.obj
 0002:0000e138       ??_C@_03IKFCCPFF@?$DO?$DO?$DN?$AA@ 00507138     LIBCMT:undname.obj
 0002:0000e13c       ??_C@_02FENAOKFI@?$CF?$DN?$AA@ 0050713c     LIBCMT:undname.obj
 0002:0000e140       ??_C@_02FJEHGPIO@?1?$DN?$AA@ 00507140     LIBCMT:undname.obj
 0002:0000e144       ??_C@_02FKMDLLOA@?9?$DN?$AA@ 00507144     LIBCMT:undname.obj
 0002:0000e148       ??_C@_02FOEOMHFC@?$CL?$DN?$AA@ 00507148     LIBCMT:undname.obj
 0002:0000e14c       ??_C@_02FPIMKNGF@?$CK?$DN?$AA@ 0050714c     LIBCMT:undname.obj
 0002:0000e150       ??_C@_02HCKGKOFO@?$CI?$CJ?$AA@ 00507150     LIBCMT:undname.obj
 0002:0000e154       ??_C@_01FGNFDNOH@?$CF?$AA@ 00507154     LIBCMT:undname.obj
 0002:0000e158       ??_C@_03MNHNFDLC@?9?$DO?$CK?$AA@ 00507158     LIBCMT:undname.obj
 0002:0000e15c       ??_C@_02BAABKJLB@?9?9?$AA@ 0050715c     LIBCMT:undname.obj
 0002:0000e160       ??_C@_02ECNGHCIF@?$CL?$CL?$AA@ 00507160     LIBCMT:undname.obj
 0002:0000e164       ??_C@_02HBOOOICD@?9?$DO?$AA@ 00507164     LIBCMT:undname.obj
 0002:0000e168       ??_C@_08LHJFAFGD@operator?$AA@ 00507168     LIBCMT:undname.obj
 0002:0000e174       ??_C@_02GPECMEKF@?$FL?$FN?$AA@ 00507174     LIBCMT:undname.obj
 0002:0000e178       ??_C@_02EGOFBIJA@?$DN?$DN?$AA@ 00507178     LIBCMT:undname.obj
 0002:0000e17c       ??_C@_07FPCDHGMM@?5delete?$AA@ 0050717c     LIBCMT:undname.obj
 0002:0000e184       ??_C@_04NIHEBCM@?5new?$AA@ 00507184     LIBCMT:undname.obj
 0002:0000e18c       ??_C@_0M@GFIIJFMG@__unaligned?$AA@ 0050718c     LIBCMT:undname.obj
 0002:0000e198       ??_C@_0L@PILCLIHE@__restrict?$AA@ 00507198     LIBCMT:undname.obj
 0002:0000e1a4       ??_C@_07JOMMBBKO@__ptr64?$AA@ 005071a4     LIBCMT:undname.obj
 0002:0000e1ac       ??_C@_09HIJEGCPM@__clrcall?$AA@ 005071ac     LIBCMT:undname.obj
 0002:0000e1b8       ??_C@_0L@JMKHOMEK@__fastcall?$AA@ 005071b8     LIBCMT:undname.obj
 0002:0000e1c4       ??_C@_0L@NPHFGOKO@__thiscall?$AA@ 005071c4     LIBCMT:undname.obj
 0002:0000e1d0       ??_C@_09IFJBGAPI@__stdcall?$AA@ 005071d0     LIBCMT:undname.obj
 0002:0000e1dc       ??_C@_08GHMPAG@__pascal?$AA@ 005071dc     LIBCMT:undname.obj
 0002:0000e1e8       ??_C@_07KOLFKCDI@__cdecl?$AA@ 005071e8     LIBCMT:undname.obj
 0002:0000e1f0       ??_C@_08EHJDFFNH@__based?$CI?$AA@ 005071f0     LIBCMT:undname.obj
 0002:0000e388       __atan_table               00507388     LIBCMT:_atan_table_.obj
 0002:0000fb98       ??_C@_07GPDNMNG@CONOUT$?$AA@ 00508b98     LIBCMT:initcon.obj
 0002:0000fba0       ??_C@_06IMKFLFPG@1?$CDQNAN?$AA@ 00508ba0     LIBCMT:_x10fout_.obj
 0002:0000fba8       ??_C@_05DNEBIAHO@1?$CDINF?$AA@ 00508ba8     LIBCMT:_x10fout_.obj
 0002:0000fbb0       ??_C@_05PHHOCPM@1?$CDIND?$AA@ 00508bb0     LIBCMT:_x10fout_.obj
 0002:0000fbb8       ??_C@_06PGGFOGJG@1?$CDSNAN?$AA@ 00508bb8     LIBCMT:_x10fout_.obj
 0002:00010a54       ?skiny@gui@@2QBHB          00509a54     3dgui.obj
 0002:00010a80       ?skinx@gui@@2QBHB          00509a80     3dgui.obj
 0002:00010ab0       ?patches@gui@@2QBUpatch@1@B 00509ab0     3dgui.obj
 0002:00010c24       ?JUMPVEL@@3MB              00509c24     physics.obj
 0002:00010c28       ?GRAVITY@@3MB              00509c28     physics.obj
 0002:00010c70       ?fv@@3QAY03$$CBEA          00509c70     octa.obj
 0002:00010c88       ?fvmasks@@3QBEB            00509c88     octa.obj
 0002:00010cc8       ?faceedgesidx@@3QAY03$$CBEA 00509cc8     octa.obj
 0002:00010d40       ??_C@_07KJFPOMFC@?$CFs?3?5?$CFs?6?$AA@ 00509d40     SDL_win32_main.obj
 0002:00010d48       ??_C@_0BJ@HFNMHALN@Out?5of?5memory?5?9?5aborting?$AA@ 00509d48     SDL_win32_main.obj
 0002:00010d64       ??_C@_0M@HFFOIJBL@Fatal?5Error?$AA@ 00509d64     SDL_win32_main.obj
 0002:00010d70       ??_C@_02JDPG@rb?$AA@       00509d70     SDL_win32_main.obj
 0002:00010d74       ??_C@_01NOFIACDB@w?$AA@    00509d74     SDL_win32_main.obj
 0002:00010d78       ??_C@_0BA@KMDNPDDA@WinMain?$CI?$CJ?5error?$AA@ 00509d78     SDL_win32_main.obj
 0002:00010d88       ??_C@_0P@DKHCFOLI@blendpaintmode?$AA@ 00509d88     blend.obj
 0002:00010d98       ??_C@_0CE@GKLGOCGP@could?5not?5load?5blend?5brush?5image@ 00509d98     blend.obj
 0002:00010dbc       ??_C@_0DB@KCKFCGKP@blend?5brush?5image?5size?5exceeded?5@ 00509dbc     blend.obj
 0002:00010ded       ??_C@_00CNPNBAHC@?$AA@     00509ded     blend.obj
 0002:00010df0       ??_C@_0BC@NEGFKPJL@clearblendbrushes?$AA@ 00509df0     blend.obj
 0002:00010e04       ??_C@_01LKDEMHDF@s?$AA@    00509e04     blend.obj
 0002:00010e08       ??_C@_0O@ILOCGBKL@delblendbrush?$AA@ 00509e08     blend.obj
 0002:00010e18       ??_C@_02FCBLNKNB@ss?$AA@   00509e18     blend.obj
 0002:00010e1c       ??_C@_0O@NENLKALN@addblendbrush?$AA@ 00509e1c     blend.obj
 0002:00010e2c       ??_C@_01KBJDNOO@i?$AA@     00509e2c     blend.obj
 0002:00010e30       ??_C@_0P@EGPHPKMN@nextblendbrush?$AA@ 00509e30     blend.obj
 0002:00010e40       ??_C@_0O@ICIJGMAF@setblendbrush?$AA@ 00509e40     blend.obj
 0002:00010e50       ??_C@_0BC@EHPCBGLN@getblendbrushname?$AA@ 00509e50     blend.obj
 0002:00010e64       ??_C@_0O@LPABFDFD@curblendbrush?$AA@ 00509e64     blend.obj
 0002:00010e74       ??_C@_0CL@EOPOHJKA@operation?5only?5allowed?5in?5blend?5@ 00509e74     blend.obj
 0002:00010ea0       ??_C@_0BI@FIONHOHB@no?5blend?5brush?5selected?$AA@ 00509ea0     blend.obj
 0002:00010eb8       ??_C@_0BB@GICOMJLE@rotateblendbrush?$AA@ 00509eb8     blend.obj
 0002:00010ecc       ??_C@_0BD@BIBPFMLF@paintblendmapdelay?$AA@ 00509ecc     blend.obj
 0002:00010ee0       ??_C@_0BG@ICMPADBN@paintblendmapinterval?$AA@ 00509ee0     blend.obj
 0002:00010ef8       ??_C@_01CKDDGHAB@D?$AA@    00509ef8     blend.obj
 0002:00010efc       ??_C@_0O@ICMAMPOP@paintblendmap?$AA@ 00509efc     blend.obj
 0002:00010f0c       ??_C@_0BB@HFGDPOFD@clearblendmapsel?$AA@ 00509f0c     blend.obj
 0002:00010f20       ??_C@_0BC@HOEDPBNE@invertblendmapsel?$AA@ 00509f20     blend.obj
 0002:00010f34       ??_C@_0P@HFFPDFKA@invertblendmap?$AA@ 00509f34     blend.obj
 0002:00010f44       ??_C@_0N@NDCHHINC@showblendmap?$AA@ 00509f44     blend.obj
 0002:00010f54       ??_C@_0BB@PIKIAINA@optimizeblendmap?$AA@ 00509f54     blend.obj
 0002:00010f68       ??_C@_0O@EENDHPCG@clearblendmap?$AA@ 00509f68     blend.obj
 0002:00010f78       ??_C@_0BA@HBMBINDF@importcuberemip?$AA@ 00509f78     cubeloader.obj
 0002:00010f88       ??_C@_0BH@JHFKBAFM@creating?5cubes?4?4?4?5?$CFd?$CF?$CF?$AA@ 00509f88     cubeloader.obj
 0002:00010fa0       ??_C@_07KMMCDPHI@cube?1?$CFs?$AA@ 00509fa0     cubeloader.obj
 0002:00010fa8       ??_C@_0BA@OFNGFJLA@packages?1?$CFs?4cgz?$AA@ 00509fa8     cubeloader.obj
 0002:00010fb8       ??_C@_0BL@MOCCFNFE@could?5not?5read?5cube?5map?5?$CFs?$AA@ 00509fb8     cubeloader.obj
 0002:00010fd4       ??_C@_04CEENDHAF@CUBE?$AA@ 00509fd4     cubeloader.obj
 0002:00010fdc       ??_C@_04BHBGMNAP@ACMP?$AA@ 00509fdc     cubeloader.obj
 0002:00010fe4       ??_C@_0BP@DELPDANB@map?5?$CFs?5has?5malformatted?5header?$AA@ 00509fe4     cubeloader.obj
 0002:00011004       ??_C@_0N@HKPFLAFL@importing?5?$CFs?$AA@ 0050a004     cubeloader.obj
 0002:00011014       ??_C@_07JEMIPMLL@?$CFd?5?$EA?5?$CFd?$AA@ 0050a014     cubeloader.obj
 0002:0001101c       ??_C@_0CH@JAGAMOFA@while?5reading?5map?3?5type?5out?5of?5r@ 0050a01c     cubeloader.obj
 0002:00011044       ??_C@_0BF@FPGPPMPD@packages?1cube?1?$CFs?4cfg?$AA@ 0050a044     cubeloader.obj
 0002:0001105c       ??_C@_0BK@FMCKCEIA@packages?1cube?1package?4cfg?$AA@ 0050a05c     cubeloader.obj
 0002:00011078       ??_C@_0CA@MMGGPEH@read?5cube?5map?5?$CFs?5?$CI?$CF?41f?5seconds?$CJ?$AA@ 0050a078     cubeloader.obj
 0002:00011098       ??_C@_0L@FIHOELOG@importcube?$AA@ 0050a098     cubeloader.obj
 0002:000110a4       ??_C@_0P@HLFCKHKL@lightprecision?$AA@ 0050a0a4     lightmap.obj
 0002:000110b4       ??_C@_0L@IEPABEDF@lighterror?$AA@ 0050a0b4     lightmap.obj
 0002:000110c0       ??_C@_09JAEKHCCH@bumperror?$AA@ 0050a0c0     lightmap.obj
 0002:000110cc       ??_C@_08PJALPBCH@lightlod?$AA@ 0050a0cc     lightmap.obj
 0002:000110d8       ??_C@_07LIABELBC@ambient?$AA@ 0050a0d8     lightmap.obj
 0002:000110e0       ??_C@_08GENLAOJJ@skylight?$AA@ 0050a0e0     lightmap.obj
 0002:000110ec       ??_C@_09HJPHDPLC@lmshadows?$AA@ 0050a0ec     lightmap.obj
 0002:000110f8       ??_C@_04JJKAEGIB@lmaa?$AA@ 0050a0f8     lightmap.obj
 0002:00011100       ??_C@_0BH@ODOBLJFP@?$CFd?$CF?$CF?5using?5?$CFd?5textures?$AA@ 0050a100     lightmap.obj
 0002:00011118       ??_C@_0O@BIFMPIKC@lightcompress?$AA@ 0050a118     lightmap.obj
 0002:00011128       ??_C@_0BA@IBFLMHPP@skytexturelight?$AA@ 0050a128     lightmap.obj
 0002:00011138       ??_C@_07KJBFLEOB@blurlms?$AA@ 0050a138     lightmap.obj
 0002:00011140       ??_C@_0N@LDJILJDN@blurskylight?$AA@ 0050a140     lightmap.obj
 0002:000111e8       ??_C@_0O@NMNBENPE@edgetolerance?$AA@ 0050a1e8     lightmap.obj
 0002:000111f8       ??_C@_0P@IEPOFCMK@adaptivesample?$AA@ 0050a1f8     lightmap.obj
 0002:00011248       ??_C@_0P@GIDFMGKC@lightcachesize?$AA@ 0050a248     lightmap.obj
 0002:00011258       ??_C@_0N@IIIEMJBH@lightthreads?$AA@ 0050a258     lightmap.obj
 0002:00011268       ??_C@_0CL@DPKNEPMB@valid?5range?5for?5calclight?5qualit@ 0050a268     lightmap.obj
 0002:00011294       ??_C@_0CG@NAICJAFF@computing?5lightmaps?4?4?4?5?$CIesc?5to?5a@ 0050a294     lightmap.obj
 0002:000112bc       ??_C@_0BB@BNPILHCM@lighting?5done?4?4?4?$AA@ 0050a2bc     lightmap.obj
 0002:000112d0       ??_C@_0BC@JJACDAHL@calclight?5aborted?$AA@ 0050a2d0     lightmap.obj
 0002:000112e8       ??_C@_0EA@PDNDMFEG@generated?5?$CFd?5lightmaps?5using?5?$CFd?$CF@ 0050a2e8     lightmap.obj
 0002:00011328       ??_C@_09BANFGNFM@calclight?$AA@ 0050a328     lightmap.obj
 0002:00011334       ??_C@_0N@DDIKEBIE@patchnormals?$AA@ 0050a334     lightmap.obj
 0002:00011344       ??_C@_0CM@HBPODCAL@valid?5range?5for?5patchlight?5quali@ 0050a344     lightmap.obj
 0002:00011370       ??_C@_0CF@PAJDEPLO@patching?5lightmaps?4?4?4?5?$CIesc?5to?5ab@ 0050a370     lightmap.obj
 0002:00011398       ??_C@_0BF@MBCHIICN@computing?5normals?4?4?4?$AA@ 0050a398     lightmap.obj
 0002:000113b0       ??_C@_0BD@OKOKEINJ@patchlight?5aborted?$AA@ 0050a3b0     lightmap.obj
 0002:000113c4       ??_C@_0DO@BIPOHHDP@patched?5?$CFd?5lightmaps?5using?5?$CFd?$CF?$CF?5@ 0050a3c4     lightmap.obj
 0002:00011404       ??_C@_0L@FPHPHHGA@patchlight?$AA@ 0050a404     lightmap.obj
 0002:00011410       ??_C@_0BG@IOKONHDI@clearing?5lightmaps?4?4?4?$AA@ 0050a410     lightmap.obj
 0002:00011428       ??_C@_0P@KACGDJJH@clearlightmaps?$AA@ 0050a428     lightmap.obj
 0002:00011438       ??_C@_0L@GEONJGBK@fullbright?$AA@ 0050a438     lightmap.obj
 0002:00011444       ??_C@_0BA@PFDEDJDH@fullbrightlevel?$AA@ 0050a444     lightmap.obj
 0002:00011454       ??_C@_0L@CFOHJAIM@convertlms?$AA@ 0050a454     lightmap.obj
 0002:00011460       ??_C@_0BB@OKADECAN@roundlightmaptex?$AA@ 0050a460     lightmap.obj
 0002:00011474       ??_C@_0P@GHNEOPKL@batchlightmaps?$AA@ 0050a474     lightmap.obj
 0002:00011484       ??_C@_0BD@JMLGBJKB@lightmap_?$CFs_?$CFd?4png?$AA@ 0050a484     lightmap.obj
 0002:00011498       ??_C@_07IHJLHON@dumplms?$AA@ 0050a498     lightmap.obj
 0002:000114a0       ??_C@_09NJFLIGJF@lerpangle?$AA@ 0050a4a0     normal.obj
 0002:000114ac       ??_C@_0L@GEMHMDHJ@lerpsubdiv?$AA@ 0050a4ac     normal.obj
 0002:000114b8       ??_C@_0P@PCAKHDDF@lerpsubdivsize?$AA@ 0050a4b8     normal.obj
 0002:000114c8       ??_C@_0BJ@MAFBKHJN@?$DN?5?$CFp?5?$DN?5?$CI?$CFd?0?5?$CFd?0?5?$CFd?$CJ?5?$EA?5?$CFd?$AA@ 0050a4c8     octa.obj
 0002:000114e4       ??_C@_08KIPBOANC@?5x?5?5?$CF?48x?$AA@ 0050a4e4     octa.obj
 0002:000114f0       ??_C@_08GEFLOAEM@?5y?5?5?$CF?48x?$AA@ 0050a4f0     octa.obj
 0002:000114fc       ??_C@_08OKNEOHKP@?5z?5?5?$CF?48x?$AA@ 0050a4fc     octa.obj
 0002:00011508       ??_C@_09GBFNOHCC@printcube?$AA@ 0050a508     octa.obj
 0002:00011514       ??_C@_06FDJLJGCD@mipvis?$AA@ 0050a514     octa.obj
 0002:0001151c       ??_C@_0N@OGILLOA@remipping?4?4?4?$AA@ 0050a51c     octa.obj
 0002:0001152c       ??_C@_05PIHAKMCM@remip?$AA@ 0050a52c     octa.obj
 0002:00011534       ??_C@_0CF@LIEBPPBH@WARNING?3?5old?5map?0?5use?5savecurren@ 0050a534     octa.obj
 0002:000115d0       ??_C@_07DKBAAKPA@minface?$AA@ 0050a5d0     octa.obj
 0002:000115d8       ??_C@_08GIAHNCC@maxmerge?$AA@ 0050a5d8     octa.obj
 0002:000115e4       ??_C@_0BE@IKKCKJEH@merging?5surfaces?4?4?4?$AA@ 0050a5e4     octa.obj
 0002:000115f8       ??_C@_0CA@IDNDHILF@invalidating?5merged?5surfaces?4?4?4?$AA@ 0050a5f8     octa.obj
 0002:00011618       ??_C@_08MLPFNNDJ@dragging?$AA@ 0050a618     octaedit.obj
 0002:00011624       ??_C@_06CJBJAGIH@moving?$AA@ 0050a624     octaedit.obj
 0002:0001162c       ??_C@_09PEPLNHHC@gridpower?$AA@ 0050a62c     octaedit.obj
 0002:00011638       ??_C@_0P@MMCAOJOE@passthroughsel?$AA@ 0050a638     octaedit.obj
 0002:00011648       ??_C@_07HAFNFNOB@editing?$AA@ 0050a648     octaedit.obj
 0002:00011650       ??_C@_0O@CMDPCADK@selectcorners?$AA@ 0050a650     octaedit.obj
 0002:00011660       ??_C@_08HKIDODCD@hmapedit?$AA@ 0050a660     octaedit.obj
 0002:0001166c       ??_C@_0CE@FFBGEABP@operation?5only?5allowed?5in?5edit?5m@ 0050a66c     octaedit.obj
 0002:00011690       ??_C@_0BG@KMLAPNDI@selection?5not?5in?5view?$AA@ 0050a690     octaedit.obj
 0002:000116a8       ??_C@_0L@IAAMPIAA@edittoggle?$AA@ 0050a6a8     octaedit.obj
 0002:000116b4       ??_C@_09GGDDKLMH@entcancel?$AA@ 0050a6b4     octaedit.obj
 0002:000116c0       ??_C@_0L@FGIDMBCN@cubecancel?$AA@ 0050a6c0     octaedit.obj
 0002:000116cc       ??_C@_09OIKHHPFL@cancelsel?$AA@ 0050a6cc     octaedit.obj
 0002:000116d8       ??_C@_08PFHMHGMO@reorient?$AA@ 0050a6d8     octaedit.obj
 0002:000116e4       ??_C@_09ONDGDNFE@selextend?$AA@ 0050a6e4     octaedit.obj
 0002:000116f0       ??_C@_07MGGFOIDK@havesel?$AA@ 0050a6f0     octaedit.obj
 0002:000116f8       ??_C@_0L@IELONJHO@gridlookup?$AA@ 0050a6f8     octaedit.obj
 0002:00011704       ??_C@_0BA@IFEGHEHN@passthroughcube?$AA@ 0050a704     octaedit.obj
 0002:00011714       ??_C@_08MECIEJGG@undomegs?$AA@ 0050a714     octaedit.obj
 0002:00011720       ??_C@_0L@GJOHGMDK@clearundos?$AA@ 0050a720     octaedit.obj
 0002:0001172c       ??_C@_08IMBMPHKA@nompedit?$AA@ 0050a72c     octaedit.obj
 0002:00011738       ??_C@_0BD@KNNPPEDE@nothing?5more?5to?5?$CFs?$AA@ 0050a738     octaedit.obj
 0002:0001174c       ??_C@_04HOKNPDPJ@undo?$AA@ 0050a74c     octaedit.obj
 0002:00011754       ??_C@_04BLIMKIOI@redo?$AA@ 0050a754     octaedit.obj
 0002:0001175c       ??_C@_04COAGEIMF@copy?$AA@ 0050a75c     octaedit.obj
 0002:00011764       ??_C@_0M@NPDMNCLK@pastehilite?$AA@ 0050a764     octaedit.obj
 0002:00011770       ??_C@_05NDLFFNHM@paste?$AA@ 0050a770     octaedit.obj
 0002:00011778       ??_C@_06NBMKNICM@brushx?$AA@ 0050a778     octaedit.obj
 0002:00011780       ??_C@_06MINBOJGN@brushy?$AA@ 0050a780     octaedit.obj
 0002:00011788       ??_C@_0L@IGILIFOO@clearbrush?$AA@ 0050a788     octaedit.obj
 0002:00011794       ??_C@_03GLKMLICL@iii?$AA@  0050a794     octaedit.obj
 0002:00011798       ??_C@_09KMOJGCHA@brushvert?$AA@ 0050a798     octaedit.obj
 0002:000117a4       ??_C@_0L@EMANIEPP@hmapcancel?$AA@ 0050a7a4     octaedit.obj
 0002:000117b0       ??_C@_0L@GJHPLCHA@hmapselect?$AA@ 0050a7b0     octaedit.obj
 0002:000117bc       ??_C@_0BF@EACIFAFI@bypassheightmapcheck?$AA@ 0050a7bc     octaedit.obj
 0002:000117d4       ??_C@_0BB@PDFCDJPB@invalidcubeguard?$AA@ 0050a7d4     octaedit.obj
 0002:000117e8       ??_C@_0O@DGDHBMKK@selectionsurf?$AA@ 0050a7e8     octaedit.obj
 0002:000117f8       ??_C@_07FCPHCPHL@pushsel?$AA@ 0050a7f8     octaedit.obj
 0002:00011800       ??_C@_02PDIHAGKM@ii?$AA@   0050a800     octaedit.obj
 0002:00011804       ??_C@_08BCMNDPAK@editface?$AA@ 0050a804     octaedit.obj
 0002:00011810       ??_C@_07LJGOPPCL@delcube?$AA@ 0050a810     octaedit.obj
 0002:00011818       ??_C@_09EONBAKCL@usevdelta?$AA@ 0050a818     octaedit.obj
 0002:00011824       ??_C@_08IANOCEHK@allfaces?$AA@ 0050a824     octaedit.obj
 0002:00011830       ??_C@_06HBHCKCDA@vdelta?$AA@ 0050a830     octaedit.obj
 0002:00011838       ??_C@_07LGANENAL@vrotate?$AA@ 0050a838     octaedit.obj
 0002:00011840       ??_C@_07DJAGFAGM@voffset?$AA@ 0050a840     octaedit.obj
 0002:00011848       ??_C@_02HPEDFNFO@ff?$AA@   0050a848     octaedit.obj
 0002:0001184c       ??_C@_07MLNAENNG@vscroll?$AA@ 0050a84c     octaedit.obj
 0002:00011854       ??_C@_01INIBCBCB@f?$AA@    0050a854     octaedit.obj
 0002:00011858       ??_C@_06GENCIKKC@vscale?$AA@ 0050a858     octaedit.obj
 0002:00011860       ??_C@_06HDGNKJOF@vlayer?$AA@ 0050a860     octaedit.obj
 0002:00011868       ??_C@_06CDFMODMB@valpha?$AA@ 0050a868     octaedit.obj
 0002:00011870       ??_C@_03LPALPDIP@fff?$AA@  0050a870     octaedit.obj
 0002:00011874       ??_C@_06FHFLIHCK@vcolor?$AA@ 0050a874     octaedit.obj
 0002:0001187c       ??_C@_06IGNGCLCM@vreset?$AA@ 0050a87c     octaedit.obj
 0002:00011884       ??_C@_05LEEJHALC@sffff?$AA@ 0050a884     octaedit.obj
 0002:0001188c       ??_C@_0N@HIAPGBLA@vshaderparam?$AA@ 0050a88c     octaedit.obj
 0002:0001189c       ??_C@_07BDCBDDNM@edittex?$AA@ 0050a89c     octaedit.obj
 0002:000118a4       ??_C@_06DFEOEHPC@gettex?$AA@ 0050a8a4     octaedit.obj
 0002:000118ac       ??_C@_09DOKEGHFK@getcurtex?$AA@ 0050a8ac     octaedit.obj
 0002:000118b8       ??_C@_09IFHMNAOM@getseltex?$AA@ 0050a8b8     octaedit.obj
 0002:000118c4       ??_C@_09IGBLKBNL@getreptex?$AA@ 0050a8c4     octaedit.obj
 0002:000118d0       ??_C@_0L@JMOOHNBK@gettexname?$AA@ 0050a8d0     octaedit.obj
 0002:000118dc       ??_C@_0CG@JDIDDNFG@can?5only?5replace?5after?5a?5texture@ 0050a8dc     octaedit.obj
 0002:00011904       ??_C@_07CLEHDIEJ@replace?$AA@ 0050a904     octaedit.obj
 0002:0001190c       ??_C@_0L@HOLCPMLO@replacesel?$AA@ 0050a90c     octaedit.obj
 0002:00011918       ??_C@_04DGGGELON@flip?$AA@ 0050a918     octaedit.obj
 0002:00011920       ??_C@_06CEHMNFAL@rotate?$AA@ 0050a920     octaedit.obj
 0002:00011928       ??_C@_0BG@HGOHELP@unknown?5material?5?$CC?$CFs?$CC?$AA@ 0050a928     octaedit.obj
 0002:00011940       ??_C@_07JFIMMMBJ@editmat?$AA@ 0050a940     octaedit.obj
 0002:00011948       ??_C@_0M@GNHKGPJA@texguiwidth?$AA@ 0050a948     octaedit.obj
 0002:00011954       ??_C@_0N@OHFJEFEF@texguiheight?$AA@ 0050a954     octaedit.obj
 0002:00011964       ??_C@_0L@PPEKPADA@texguitime?$AA@ 0050a964     octaedit.obj
 0002:00011970       ??_C@_08LHKGDOJC@texgui2d?$AA@ 0050a970     octaedit.obj
 0002:0001197c       ??_C@_08FLHNKADJ@Textures?$AA@ 0050a97c     octaedit.obj
 0002:00011988       ??_C@_0L@NNIPJMKJ@showtexgui?$AA@ 0050a988     octaedit.obj
 0002:00011994       ??_C@_07COPKBG@rgbonly?$AA@ 0050a994     octaedit.obj
 0002:000119a0       ??_7texturegui@@6B@        0050a9a0     octaedit.obj
 0002:000119ac       ??_7g3d_callback@@6B@      0050a9ac     octaedit.obj
 0002:000119b4       ??_C@_08MAMAAIBM@printvbo?$AA@ 0050a9b4     octarender.obj
 0002:000119c0       ??_C@_07KMNJAIDA@vbosize?$AA@ 0050a9c0     octarender.obj
 0002:000119c8       ??_C@_0CC@CJMJGMBH@vbo?5?$CFd?3?5type?5?$CFd?0?5size?5?$CFd?0?5?$CFd?5use@ 0050a9c8     octarender.obj
 0002:000119ec       ??_C@_05JOBLOEL@grass?$AA@ 0050a9ec     octarender.obj
 0002:000119f4       ??_C@_0M@PPBPIAHA@filltjoints?$AA@ 0050a9f4     octarender.obj
 0002:00011a0c       ??_C@_0BD@DDFMAHIA@fixing?5t?9joints?4?4?4?$AA@ 0050aa0c     octarender.obj
 0002:00011a20       ??_C@_09DPFPIEDO@vacubemax?$AA@ 0050aa20     octarender.obj
 0002:00011a2c       ??_C@_0L@MADEAIKP@vacubesize?$AA@ 0050aa2c     octarender.obj
 0002:00011a38       ??_C@_09CNNEGAFB@vacubemin?$AA@ 0050aa38     octarender.obj
 0002:00011a44       ??_C@_0BK@IIPIFLME@recalculating?5geometry?4?4?4?$AA@ 0050aa44     octarender.obj
 0002:00011a60       ??_C@_0BK@GNNBPDFJ@clearing?5vertex?5arrays?4?4?4?$AA@ 0050aa60     octarender.obj
 0002:00011a7c       ??_C@_06BDEIOILB@recalc?$AA@ 0050aa7c     octarender.obj
 0002:00011a84       ??_C@_06DPMIMFNG@bounce?$AA@ 0050aa84     physics.obj
 0002:00011a8c       ??_C@_09HKLMEOCN@step?5down?$AA@ 0050aa8c     physics.obj
 0002:00011a98       ??_C@_07NMPJEAII@step?5up?$AA@ 0050aa98     physics.obj
 0002:00011aa0       ??_C@_05PBJFFIGL@floor?$AA@ 0050aaa0     physics.obj
 0002:00011aa8       ??_C@_05LAHHKLJI@slope?$AA@ 0050aaa8     physics.obj
 0002:00011ab0       ??_C@_05IODDPPOI@slide?$AA@ 0050aab0     physics.obj
 0002:00011ab8       ??_C@_04CELAAMIG@fall?$AA@ 0050aab8     physics.obj
 0002:00011ac0       ??_C@_05KNFBNCOH@float?$AA@ 0050aac0     physics.obj
 0002:00011ac8       ??_C@_0L@IAAJNJIP@dynentsize?$AA@ 0050aac8     physics.obj
 0002:00011ad8       ??_C@_0EP@FPPBJMBJ@PHYS?$CIpl?$CJ?3?5?$CFs?0?5air?5?$CFd?0?5floor?3?5?$CI?$CFf@ 0050aad8     physics.obj
 0002:00011b28       ??_C@_0FA@KGAIIKF@PHYS?$CIcam?$CJ?3?5?$CFs?0?5air?5?$CFd?0?5floor?3?5?$CI?$CF@ 0050ab28     physics.obj
 0002:00011b78       ??_C@_08DFDFCNI@phystest?$AA@ 0050ab78     physics.obj
 0002:00011b84       ??_C@_07HDFBBPBE@maxroll?$AA@ 0050ab84     physics.obj
 0002:00011b8c       ??_C@_0L@BGIDLBFG@straferoll?$AA@ 0050ab8c     physics.obj
 0002:00011b98       ??_C@_0L@FHGPNDAH@floatspeed?$AA@ 0050ab98     physics.obj
 0002:00011ba4       ??_C@_0L@ICIFFIHD@physinterp?$AA@ 0050aba4     physics.obj
 0002:00011bb0       ??_C@_06JMLBDJHL@attack?$AA@ 0050abb0     physics.obj
 0002:00011bb8       ??_C@_0DB@PPNKBMFI@can?8t?5find?5entity?5spawn?5spot?$CB?5?$CI?$CF@ 0050abb8     physics.obj
 0002:00011bec       ??_C@_04NJIOBGCF@jump?$AA@ 0050abec     physics.obj
 0002:00011bf4       ??_C@_05DHJDAOHK@right?$AA@ 0050abf4     physics.obj
 0002:00011bfc       ??_C@_04GOOOJOPP@left?$AA@ 0050abfc     physics.obj
 0002:00011c04       ??_C@_08DBMDPFJD@backward?$AA@ 0050ac04     physics.obj
 0002:00011c10       ??_C@_07CJMBKHEI@forward?$AA@ 0050ac10     physics.obj
 0002:00011c18       ??_C@_0O@GOMBIGFP@maxpvsblocker?$AA@ 0050ac18     pvs.obj
 0002:00011c28       ??_C@_0M@MDAJDJME@pvsleafsize?$AA@ 0050ac28     pvs.obj
 0002:00011c34       ??_C@_0L@BHAOAGJP@pvsthreads?$AA@ 0050ac34     pvs.obj
 0002:00011c40       ??_C@_0CH@FAJPFCNG@?$CFd?$CF?$CF?5?9?5?$CFd?5of?5?$CFd?5view?5cells?5?$CI?$CFd?5u@ 0050ac40     pvs.obj
 0002:00011c68       ??_C@_0CF@LNDJIBDD@locked?5view?5cell?5at?5?$CF?41f?0?5?$CF?41f?0?5@ 0050ac68     pvs.obj
 0002:00011c90       ??_C@_07DPLEAMIN@lockpvs?$AA@ 0050ac90     pvs.obj
 0002:00011c98       ??_C@_03OBOKLOKI@pvs?$AA@  0050ac98     pvs.obj
 0002:00011c9c       ??_C@_08GNCIKCFN@waterpvs?$AA@ 0050ac9c     pvs.obj
 0002:00011ca8       ??_C@_08FNDJHBJN@clearpvs?$AA@ 0050aca8     pvs.obj
 0002:00011cb4       ??_C@_0DP@LCFLEMC@generated?5test?5view?5cell?5of?5size@ 0050acb4     pvs.obj
 0002:00011cf4       ??_C@_07NFPMHLJF@testpvs?$AA@ 0050acf4     pvs.obj
 0002:00011cfc       ??_C@_0BJ@MANDPFBI@map?5is?5too?5large?5for?5PVS?$AA@ 0050acfc     pvs.obj
 0002:00011d18       ??_C@_0BO@IPAPMGLG@generating?5PVS?5?$CIesc?5to?5abort?$CJ?$AA@ 0050ad18     pvs.obj
 0002:00011d38       ??_C@_0BD@KEEBJBLG@finding?5view?5cells?$AA@ 0050ad38     pvs.obj
 0002:00011d4c       ??_C@_0BB@BNDBHBCK@creating?5threads?$AA@ 0050ad4c     pvs.obj
 0002:00011d60       ??_C@_0P@HBCCEHFN@genpvs?5aborted?$AA@ 0050ad60     pvs.obj
 0002:00011d70       ??_C@_0FC@PFNMEHGM@generated?5?$CFd?5unique?5view?5cells?5t@ 0050ad70     pvs.obj
 0002:00011dc4       ??_C@_06GNOIJLGE@genpvs?$AA@ 0050adc4     pvs.obj
 0002:00011dcc       ??_C@_0DJ@BMJNKCHA@?$CFd?5unique?5view?5cells?5totaling?5?$CF?4@ 0050adcc     pvs.obj
 0002:00011e08       ??_C@_08LHODJJK@pvsstats?$AA@ 0050ae08     pvs.obj
 0002:00011e14       ??_C@_0L@HEEMIGIK@mapversion?$AA@ 0050ae14     world.obj
 0002:00011e20       ??_C@_08MNAKLCJO@mapscale?$AA@ 0050ae20     world.obj
 0002:00011e2c       ??_C@_07EOGAIPJO@mapsize?$AA@ 0050ae2c     world.obj
 0002:00011e34       ??_C@_0BI@DJPFJNDC@Untitled?5Map?5by?5Unknown?$AA@ 0050ae34     world.obj
 0002:00011e4c       ??_C@_08PNHIDNCK@maptitle?$AA@ 0050ae4c     world.obj
 0002:00011e58       ??_C@_0M@MJOBAMJH@octaentsize?$AA@ 0050ae58     world.obj
 0002:00011e64       ??_C@_0N@CEOKPFKE@entselradius?$AA@ 0050ae64     world.obj
 0002:00011e74       ??_C@_02LMMGGCAJ@?3?5?$AA@ 0050ae74     world.obj
 0002:00011e78       ??_C@_0L@DNBKKPAE@entediting?$AA@ 0050ae78     world.obj
 0002:00011e84       ??_C@_0N@NGHHLMAK@attachradius?$AA@ 0050ae84     world.obj
 0002:00011e94       ??_C@_0L@FAFMCKKN@entselsnap?$AA@ 0050ae94     world.obj
 0002:00011ea0       ??_C@_0BA@GAOFJCDA@entmovingshadow?$AA@ 0050aea0     world.obj
 0002:00011eb0       ??_C@_0O@COPLFDID@showentradius?$AA@ 0050aeb0     world.obj
 0002:00011ec0       ??_C@_0L@KKHFHLHM@entitysurf?$AA@ 0050aec0     world.obj
 0002:00011ecc       ??_C@_09NMIKLLOH@entmoving?$AA@ 0050aecc     world.obj
 0002:00011ed8       ??_C@_0BA@LJIFFCEL@entautoviewdist?$AA@ 0050aed8     world.obj
 0002:00011ee8       ??_C@_0M@JJCILCOM@entautoview?$AA@ 0050aee8     world.obj
 0002:00011ef4       ??_C@_07EGFHLFCJ@entflip?$AA@ 0050aef4     world.obj
 0002:00011efc       ??_C@_09NBOPGIGL@entrotate?$AA@ 0050aefc     world.obj
 0002:00011f08       ??_C@_07BHEMHBOB@entpush?$AA@ 0050af08     world.obj
 0002:00011f10       ??_C@_0BJ@IDBMAGIP@unknown?5entity?5type?5?$CC?$CFs?$CC?$AA@ 0050af10     world.obj
 0002:00011f2c       ??_C@_07IINMLKFH@entdrop?$AA@ 0050af2c     world.obj
 0002:00011f34       ??_C@_09KIAEKOLE@attachent?$AA@ 0050af34     world.obj
 0002:00011f40       ??_C@_0BC@NHAFOOKN@too?5many?5entities?$AA@ 0050af40     world.obj
 0002:00011f54       ??_C@_06LBNNDJFB@siiiii?$AA@ 0050af54     world.obj
 0002:00011f5c       ??_C@_06KPDDOIOG@newent?$AA@ 0050af5c     world.obj
 0002:00011f64       ??_C@_06BMHDBBDL@delent?$AA@ 0050af64     world.obj
 0002:00011f6c       ??_C@_07LABJEPHM@dropent?$AA@ 0050af6c     world.obj
 0002:00011f74       ??_C@_07FODHLGAB@entcopy?$AA@ 0050af74     world.obj
 0002:00011f7c       ??_C@_08EPMMGKCL@entpaste?$AA@ 0050af7c     world.obj
 0002:00011f88       ??_C@_0BC@EEEKBGBA@?$CFs?5?$CFd?5?$CFd?5?$CFd?5?$CFd?5?$CFd?$AA@ 0050af88     world.obj
 0002:00011f9c       ??_C@_0L@ILCCBKNP@enthavesel?$AA@ 0050af9c     world.obj
 0002:00011fa8       ??_C@_09EDEBJNEI@entselect?$AA@ 0050afa8     world.obj
 0002:00011fb4       ??_C@_07BKNPHONE@entloop?$AA@ 0050afb4     world.obj
 0002:00011fbc       ??_C@_05LJBKOLPA@insel?$AA@ 0050afbc     world.obj
 0002:00011fc4       ??_C@_06CGAPBBGF@entget?$AA@ 0050afc4     world.obj
 0002:00011fcc       ??_C@_08MGADGENE@entindex?$AA@ 0050afcc     world.obj
 0002:00011fd8       ??_C@_06PJHENBKN@entset?$AA@ 0050afd8     world.obj
 0002:00011fe0       ??_C@_0L@FJPBDINI@nearestent?$AA@ 0050afe0     world.obj
 0002:00011fec       ??_C@_09MBCHPELG@gamespeed?$AA@ 0050afec     world.obj
 0002:00011ff8       ??_C@_06EKGGOLPA@paused?$AA@ 0050aff8     world.obj
 0002:00012000       ??_C@_0CB@MNEFMKAM@newmap?5only?5allowed?5in?5edit?5mode@ 0050b000     world.obj
 0002:00012024       ??_C@_0BO@JFIDHGKH@data?1default_map_settings?4cfg?$AA@ 0050b024     world.obj
 0002:00012044       ??_C@_0CF@HMNMOLON@mapenlarge?5only?5allowed?5in?5edit?5@ 0050b044     world.obj
 0002:0001206c       ??_C@_0BG@BGNDFEGH@shrunk?5map?5to?5size?5?$CFd?$AA@ 0050b06c     world.obj
 0002:00012084       ??_C@_06FLHECDA@newmap?$AA@ 0050b084     world.obj
 0002:0001208c       ??_C@_0L@MNHMBLFM@mapenlarge?$AA@ 0050b08c     world.obj
 0002:00012098       ??_C@_09GFJBMKDM@shrinkmap?$AA@ 0050b098     world.obj
 0002:000120a4       ??_C@_07KMNEBLH@mapname?$AA@ 0050b0a4     world.obj
 0002:000120ac       ??_C@_02GMLFBBN@wb?$AA@    0050b0ac     worldio.obj
 0002:000120b0       ??_C@_07EHFJMLKG@savebak?$AA@ 0050b0b0     worldio.obj
 0002:000120b8       ??_C@_04LMCBDCAL@?4ogz?$AA@ 0050b0b8     worldio.obj
 0002:000120c0       ??_C@_02CFKBDFGI@?1?2?$AA@ 0050b0c0     worldio.obj
 0002:000120c4       ??_C@_04BHIIPFEC@base?$AA@ 0050b0c4     worldio.obj
 0002:000120cc       ??_C@_07DLHDFGAF@base?1?$CFs?$AA@ 0050b0cc     worldio.obj
 0002:000120d4       ??_C@_0BA@KPAAOGAI@packages?1?$CFs?4ogz?$AA@ 0050b0d4     worldio.obj
 0002:000120e4       ??_C@_0BA@HMFKMAL@packages?1?$CFs?4BAK?$AA@ 0050b0e4     worldio.obj
 0002:000120f4       ??_C@_0BD@JOHJEEGO@packages?1?$CFs_?$CFd?4BAK?$AA@ 0050b0f4     worldio.obj
 0002:00012108       ??_C@_0BD@DAEHBEEN@packages?1?$CFs?1?$CFs?4cfg?$AA@ 0050b108     worldio.obj
 0002:0001211c       ??_C@_0BA@HONLMPND@packages?1?$CFs?4jpg?$AA@ 0050b11c     worldio.obj
 0002:0001212c       ??_C@_08GDFANMDE@untitled?$AA@ 0050b12c     worldio.obj
 0002:00012138       ??_C@_0L@JPFAEGAJ@mapcfgname?$AA@ 0050b138     worldio.obj
 0002:00012144       ??_C@_0P@PBJEKMIN@garbage?5in?5map?$AA@ 0050b144     worldio.obj
 0002:00012154       ??_C@_07GBMLPPPL@dbgvars?$AA@ 0050b154     worldio.obj
 0002:0001215c       ??_C@_0BK@MMNKLJGP@could?5not?5write?5map?5to?5?$CFs?$AA@ 0050b15c     worldio.obj
 0002:00012178       ??_C@_0O@CMLJIOPC@saving?5map?4?4?4?$AA@ 0050b178     worldio.obj
 0002:00012188       ??_C@_04OIAIMIIB@OCTA?$AA@ 0050b188     worldio.obj
 0002:00012190       ??_C@_0BB@KPHOBAIL@wrote?5var?5?$CFs?3?5?$CFd?$AA@ 0050b190     worldio.obj
 0002:000121a4       ??_C@_0BC@BOOOJGJN@wrote?5fvar?5?$CFs?3?5?$CFf?$AA@ 0050b1a4     worldio.obj
 0002:000121b8       ??_C@_0BC@LNOAOKGF@wrote?5svar?5?$CFs?3?5?$CFs?$AA@ 0050b1b8     worldio.obj
 0002:000121cc       ??_C@_0O@LFOANLBN@wrote?5?$CFd?5vars?$AA@ 0050b1cc     worldio.obj
 0002:000121dc       ??_C@_0BC@GPFGLKNK@wrote?5map?5file?5?$CFs?$AA@ 0050b1dc     worldio.obj
 0002:000121f0       ??_C@_0BG@IENFPLMB@could?5not?5read?5map?5?$CFs?$AA@ 0050b1f0     worldio.obj
 0002:00012208       ??_C@_0DH@FOANNPDH@map?5?$CFs?5requires?5a?5newer?5version?5@ 0050b208     worldio.obj
 0002:00012240       ??_C@_0L@IPBIFIDN@loading?4?4?4?$AA@ 0050b240     worldio.obj
 0002:00012250       ??_C@_0FP@HOGDDCHK@loading?5older?5?1?5less?5efficient?5m@ 0050b250     worldio.obj
 0002:000122b0       ??_C@_0M@HBMJEING@watercolour?$AA@ 0050b2b0     worldio.obj
 0002:000122bc       ??_C@_0BA@GKGPPIOF@waterfallcolour?$AA@ 0050b2bc     worldio.obj
 0002:000122cc       ??_C@_0L@FMCDBIPJ@lavacolour?$AA@ 0050b2cc     worldio.obj
 0002:000122d8       ??_C@_0BA@JGIEOOMJ@read?5var?5?$CFs?3?5?$CFd?$AA@ 0050b2d8     worldio.obj
 0002:000122e8       ??_C@_0BB@IGAFEMNP@read?5fvar?5?$CFs?3?5?$CFf?$AA@ 0050b2e8     worldio.obj
 0002:000122fc       ??_C@_0BB@CFALDACH@read?5svar?5?$CFs?3?5?$CFs?$AA@ 0050b2fc     worldio.obj
 0002:00012310       ??_C@_0N@DONJBGAL@read?5?$CFd?5vars?$AA@ 0050b310     worldio.obj
 0002:00012320       ??_C@_03JABFMKFJ@fps?$AA@  0050b320     worldio.obj
 0002:00012328       ??_C@_0FC@JGMDPNDD@WARNING?3?5loading?5map?5from?5?$CFs?5gam@ 0050b328     worldio.obj
 0002:0001237c       ??_C@_0BC@DCHMDFAI@clearing?5world?4?4?4?$AA@ 0050b37c     worldio.obj
 0002:00012390       ??_C@_0BE@CJBBIHIP@loading?5entities?4?4?4?$AA@ 0050b390     worldio.obj
 0002:000123a8       ??_C@_0EB@OABDHGPF@warning?3?5ent?5outside?5of?5world?3?5e@ 0050b3a8     worldio.obj
 0002:000123ec       ??_C@_0DG@HBAGAPFA@warning?3?5mapmodel?5ent?5?$CIindex?5?$CFd?$CJ@ 0050b3ec     worldio.obj
 0002:00012424       ??_C@_0BN@DDINLBGK@warning?3?5map?5has?5?$CFd?5entities?$AA@ 0050b424     worldio.obj
 0002:00012444       ??_C@_0BB@BDCJLDLJ@loading?5slots?4?4?4?$AA@ 0050b444     worldio.obj
 0002:00012458       ??_C@_0BC@ODCPBFJJ@loading?5octree?4?4?4?$AA@ 0050b458     worldio.obj
 0002:0001246c       ??_C@_0O@CMLICMCJ@validating?4?4?4?$AA@ 0050b46c     worldio.obj
 0002:0001247c       ??_C@_0BF@GLOAPPLE@loading?5lightmaps?4?4?4?$AA@ 0050b47c     worldio.obj
 0002:00012494       ??_C@_0BL@HCIKLEFF@read?5map?5?$CFs?5?$CI?$CF?41f?5seconds?$CJ?$AA@ 0050b494     worldio.obj
 0002:000124b0       ??_C@_02DKCKIIND@?$CFs?$AA@ 0050b4b0     worldio.obj
 0002:000124b4       ??_C@_07LGAMBAGK@savemap?$AA@ 0050b4b4     worldio.obj
 0002:000124bc       ??_C@_0P@CFANOFNA@savecurrentmap?$AA@ 0050b4bc     worldio.obj
 0002:000124cc       ??_C@_06LLFFKDIG@?$CFs?4obj?$AA@ 0050b4cc     worldio.obj
 0002:000124d4       ??_C@_0BN@FNKFNDOC@?$CD?5obj?5file?5of?5Cube?52?5level?6?6?$AA@ 0050b4d4     worldio.obj
 0002:000124f4       ??_C@_06FPKNBDEJ@?$CFs?4mtl?$AA@ 0050b4f4     worldio.obj
 0002:000124fc       ??_C@_0M@FOFCMCHJ@mtllib?5?$CFs?6?6?$AA@ 0050b4fc     worldio.obj
 0002:00012508       ??_C@_07CNIPEAIC@v?5?$CF?43f?5?$AA@ 0050b508     worldio.obj
 0002:00012510       ??_C@_05BPDBIHNG@v?5?$CFd?5?$AA@ 0050b510     worldio.obj
 0002:00012518       ??_C@_05FMONJPMD@?$CF?43f?5?$AA@ 0050b518     worldio.obj
 0002:00012520       ??_C@_03JDANDILB@?$CFd?5?$AA@ 0050b520     worldio.obj
 0002:00012524       ??_C@_05DDIGFDOL@?$CF?43f?6?$AA@ 0050b524     worldio.obj
 0002:0001252c       ??_C@_03PMGGPEJJ@?$CFd?6?$AA@ 0050b52c     worldio.obj
 0002:00012530       ??_C@_01EEMJAFIK@?6?$AA@   0050b530     worldio.obj
 0002:00012534       ??_C@_0O@DGLNHHKK@vt?5?$CF?46f?5?$CF?46f?6?$AA@ 0050b534     worldio.obj
 0002:00012544       ??_C@_09BEFLJFDL@g?5slot?$CFd?6?$AA@ 0050b544     worldio.obj
 0002:00012550       ??_C@_0BA@DLBOBIPD@usemtl?5slot?$CFd?6?6?$AA@ 0050b550     worldio.obj
 0002:00012560       ??_C@_06FBLLMJNF@?5?$CFd?1?$CFd?$AA@ 0050b560     worldio.obj
 0002:00012568       ??_C@_0BN@HOOKAPAP@?$CD?5mtl?5file?5of?5Cube?52?5level?6?6?$AA@ 0050b568     worldio.obj
 0002:00012588       ??_C@_0P@EAFAIPME@newmtl?5slot?$CFd?6?$AA@ 0050b588     worldio.obj
 0002:00012598       ??_C@_08GFNEJDPJ@packages?$AA@ 0050b598     worldio.obj
 0002:000125a4       ??_C@_0L@GCKEPKJJ@map_Kd?5?$CFs?6?$AA@ 0050b5a4     worldio.obj
 0002:000125b0       ??_C@_08LAKBGEK@writeobj?$AA@ 0050b5b0     worldio.obj
 0002:000125bc       ??_C@_0CH@HDLCKFDP@operation?5not?5available?5in?5multi@ 0050b5bc     client.obj
 0002:000125e4       ??_C@_04HCCHHEEF@rate?$AA@ 0050b5e4     client.obj
 0002:000125ec       ??_C@_0BC@HEEPLBOG@throttle_interval?$AA@ 0050b5ec     client.obj
 0002:00012600       ??_C@_0P@GOIDANDD@throttle_accel?$AA@ 0050b600     client.obj
 0002:00012610       ??_C@_0P@LBAOGJCA@throttle_decel?$AA@ 0050b610     client.obj
 0002:00012620       ??_C@_0M@NMIICMBL@isconnected?$AA@ 0050b620     client.obj
 0002:0001262c       ??_C@_0M@HMAMCNCD@connectedip?$AA@ 0050b62c     client.obj
 0002:00012638       ??_C@_0O@ICNKOFOO@connectedport?$AA@ 0050b638     client.obj
 0002:00012648       ??_C@_0M@MLOKCMI@connectname?$AA@ 0050b648     client.obj
 0002:00012654       ??_C@_0M@HHBCDLEF@connectport?$AA@ 0050b654     client.obj
 0002:00012660       ??_C@_0BM@JCJFMNM@aborting?5connection?5attempt?$AA@ 0050b660     client.obj
 0002:0001267c       ??_C@_0BP@GKFBIINM@attempting?5to?5connect?5to?5?$CFs?3?$CFd?$AA@ 0050b67c     client.obj
 0002:0001269c       ??_C@_0BO@NMCAKEIN@?$AM3could?5not?5resolve?5server?5?$CFs?$AA@ 0050b69c     client.obj
 0002:000126bc       ??_C@_0BP@DBNKPJGO@attempting?5to?5connect?5over?5LAN?$AA@ 0050b6bc     client.obj
 0002:000126dc       ??_C@_0BO@FMIGNLBM@?$AM3could?5not?5connect?5to?5server?$AA@ 0050b6dc     client.obj
 0002:000126fc       ??_C@_0BH@PDLLCBCC@no?5previous?5connection?$AA@ 0050b6fc     client.obj
 0002:00012714       ??_C@_0N@GGGDBMDO@disconnected?$AA@ 0050b714     client.obj
 0002:00012724       ??_C@_0BM@KHAAGKOC@attempting?5to?5disconnect?4?4?4?$AA@ 0050b724     client.obj
 0002:00012740       ??_C@_0O@GLMIBBEG@not?5connected?$AA@ 0050b740     client.obj
 0002:00012750       ??_C@_03OECFPFAL@sis?$AA@  0050b750     client.obj
 0002:00012754       ??_C@_07KAIBNCHO@connect?$AA@ 0050b754     client.obj
 0002:0001275c       ??_C@_02EDKKPMHH@is?$AA@   0050b75c     client.obj
 0002:00012760       ??_C@_0L@FOGOINHM@lanconnect?$AA@ 0050b760     client.obj
 0002:0001276c       ??_C@_09MCGBPECP@reconnect?$AA@ 0050b76c     client.obj
 0002:00012778       ??_C@_0L@KKPFIJOL@disconnect?$AA@ 0050b778     client.obj
 0002:00012784       ??_C@_0N@EJBMDGIO@localconnect?$AA@ 0050b784     client.obj
 0002:00012794       ??_C@_0BA@KLJNCDMD@localdisconnect?$AA@ 0050b794     client.obj
 0002:000127a4       ??_C@_0BP@BDHIAHKH@?$AM3illegal?5network?5message?5?$CI?$CFs?$CJ?$AA@ 0050b7a4     client.obj
 0002:000127c4       ??_C@_0BJ@NFIAENFO@attempting?5to?5connect?4?4?4?$AA@ 0050b7c4     client.obj
 0002:000127e0       ??_C@_0BE@FHNLFBGA@connected?5to?5server?$AA@ 0050b7e0     client.obj
 0002:000127f4       ??_C@_0CP@CDNHMHBG@?$AM3server?5network?5error?0?5disconne@ 0050b7f4     client.obj
 0002:00012824       ??_C@_08CLAAFLMB@overflow?$AA@ 0050b824     server.obj
 0002:00012830       ??_C@_0BF@BGNPCDGL@connection?5timed?5out?$AA@ 0050b830     server.obj
 0002:00012848       ??_C@_0M@GNAEPDCL@server?5FULL?$AA@ 0050b848     server.obj
 0002:00012854       ??_C@_0BK@CIAFDEPO@server?5is?5in?5private?5mode?$AA@ 0050b854     server.obj
 0002:00012870       ??_C@_0N@KLGGLKFD@ip?5is?5banned?$AA@ 0050b870     server.obj
 0002:00012880       ??_C@_08LHFLPAFL@tag?5type?$AA@ 0050b880     server.obj
 0002:0001288c       ??_C@_0O@DDBOENOP@kicked?1banned?$AA@ 0050b88c     server.obj
 0002:0001289c       ??_C@_0L@CNDFKLPO@client?5num?$AA@ 0050b89c     server.obj
 0002:000128a8       ??_C@_0O@JBDOGIMF@end?5of?5packet?$AA@ 0050b8a8     server.obj
 0002:000128b8       ??_C@_06IKLLLDHL@normal?$AA@ 0050b8b8     server.obj
 0002:000128c0       ??_C@_0CF@KNOLEFJL@client?5?$CI?$CFs?$CJ?5disconnected?5because@ 0050b8c0     server.obj
 0002:000128e8       ??_C@_0N@LIIFAPFN@updatemaster?$AA@ 0050b8e8     server.obj
 0002:000128f8       ??_C@_0L@LCFAMLEL@mastername?$AA@ 0050b8f8     server.obj
 0002:00012904       ??_C@_0L@MJPMFCMG@masterport?$AA@ 0050b904     server.obj
 0002:00012910       ??_C@_07HHDHJGJJ@failreg?$AA@ 0050b910     server.obj
 0002:00012918       ??_C@_0CG@HCBAKCCK@master?5server?5registration?5faile@ 0050b918     server.obj
 0002:00012940       ??_C@_07PDDGKFLM@succreg?$AA@ 0050b940     server.obj
 0002:00012948       ??_C@_0CF@GLNKPO@master?5server?5registration?5succe@ 0050b948     server.obj
 0002:00012970       ??_C@_0L@JKCONGEA@maxclients?$AA@ 0050b970     server.obj
 0002:0001297c       ??_C@_0N@BMFEHACO@serveruprate?$AA@ 0050b97c     server.obj
 0002:0001298c       ??_C@_08BGICIMDD@serverip?$AA@ 0050b98c     server.obj
 0002:00012998       ??_C@_0L@GJMJAOEP@serverport?$AA@ 0050b998     server.obj
 0002:000129a4       ??_C@_0M@EKFGIGOH@regserv?5?$CFd?6?$AA@ 0050b9a4     server.obj
 0002:000129b0       ??_C@_0DI@OCJOGBJA@status?3?5?$CFd?5remote?5clients?0?5?$CF?41f?5@ 0050b9b0     server.obj
 0002:000129e8       ??_C@_07CIFAGBMG@unknown?$AA@ 0050b9e8     server.obj
 0002:000129f0       ??_C@_0BH@HNHNFPPG@client?5connected?5?$CI?$CFs?$CJ?6?$AA@ 0050b9f0     server.obj
 0002:00012a08       ??_C@_0BK@ILDBAMNM@disconnected?5client?5?$CI?$CFs?$CJ?6?$AA@ 0050ba08     server.obj
 0002:00012a24       ??_C@_05IDKHKMLA@local?$AA@ 0050ba24     server.obj
 0002:00012a30       ??_C@_0EC@JPKNINDD@dedicated?5server?5started?0?5waitin@ 0050ba30     server.obj
 0002:00012a74       ??_C@_0CA@JDMEILNB@WARNING?3?5server?5ip?5not?5resolved?$AA@ 0050ba74     server.obj
 0002:00012a94       ??_C@_0BN@JBKHAIPE@could?5not?5create?5server?5host?$AA@ 0050ba94     server.obj
 0002:00012ab4       ??_C@_0CE@OEAOIBIG@could?5not?5create?5server?5info?5soc@ 0050bab4     server.obj
 0002:00012ad8       ??_C@_0DB@KOAJBNHP@WARNING?3?5could?5not?5create?5LAN?5se@ 0050bad8     server.obj
 0002:00012b0c       ??_C@_0BA@KDOHKEDP@server?9init?4cfg?$AA@ 0050bb0c     server.obj
 0002:00012b1c       ??_C@_0BG@HADKKDCA@listen?5server?5started?$AA@ 0050bb1c     server.obj
 0002:00012b34       ??_C@_0CB@KNJNHDHB@listen?5server?5is?5already?5running@ 0050bb34     server.obj
 0002:00012b58       ??_C@_0BP@BFDIOKG@?5and?5listed?5with?5master?5server?$AA@ 0050bb58     server.obj
 0002:00012b78       ??_C@_0CH@LIGKGCFD@listen?5server?5started?5for?5?$CFd?5cli@ 0050bb78     server.obj
 0002:00012ba0       ??_C@_0BC@BHCJIDBA@startlistenserver?$AA@ 0050bba0     server.obj
 0002:00012bb4       ??_C@_0BN@FDPFGMFL@listen?5server?5is?5not?5running?$AA@ 0050bbb4     server.obj
 0002:00012bd4       ??_C@_0BG@LPJCAGGH@listen?5server?5stopped?$AA@ 0050bbd4     server.obj
 0002:00012bec       ??_C@_0BB@IHBPAJFB@stoplistenserver?$AA@ 0050bbec     server.obj
 0002:00012c00       ??_C@_0BP@GPILIJPG@resolving?5?$CFs?4?4?4?5?$CIesc?5to?5abort?$CJ?$AA@ 0050bc00     serverbrowser.obj
 0002:00012c20       ??_C@_0CD@MKLNNOMI@connecting?5to?5?$CFs?4?4?4?5?$CIesc?5to?5abor@ 0050bc20     serverbrowser.obj
 0002:00012c44       ??_C@_09JEPAOCCD@searchlan?$AA@ 0050bc44     serverbrowser.obj
 0002:00012c50       ??_C@_0N@KANIKAHK@servpingrate?$AA@ 0050bc50     serverbrowser.obj
 0002:00012c60       ??_C@_0O@KEEFACIB@servpingdecay?$AA@ 0050bc60     serverbrowser.obj
 0002:00012c70       ??_C@_0N@CJHGHGFN@maxservpings?$AA@ 0050bc70     serverbrowser.obj
 0002:00012c80       ??_C@_0P@NNKKDLJC@?$FLunknown?5host?$FN?$AA@ 0050bc80     serverbrowser.obj
 0002:00012c90       ??_C@_0BH@HEHAEIEH@?$FLwaiting?5for?5response?$FN?$AA@ 0050bc90     serverbrowser.obj
 0002:00012ca8       ??_C@_0BD@EIINCDOH@connect?5?$CFs?5?$CFd?5?$CC?$CFs?$CC?$AA@ 0050bca8     serverbrowser.obj
 0002:00012cbc       ??_C@_0O@PHALHOCG@connect?5?$CFs?5?$CFd?$AA@ 0050bcbc     serverbrowser.obj
 0002:00012ccc       ??_C@_0CN@DHOIFNKG@retrieving?5servers?5from?5?$CFs?4?4?4?5?$CIe@ 0050bccc     serverbrowser.obj
 0002:00012cfc       ??_C@_05HFLEKDDF@list?6?$AA@ 0050bcfc     serverbrowser.obj
 0002:00012d04       ??_C@_0BL@EGCJNHEC@master?5server?5not?5replying?$AA@ 0050bd04     serverbrowser.obj
 0002:00012d20       ??_C@_09GMJEIMCB@addserver?$AA@ 0050bd20     serverbrowser.obj
 0002:00012d2c       ??_C@_0L@HBANMPCP@keepserver?$AA@ 0050bd2c     serverbrowser.obj
 0002:00012d38       ??_C@_0N@DLKPENKN@clearservers?$AA@ 0050bd38     serverbrowser.obj
 0002:00012d48       ??_C@_0BB@MIFKGAAB@updatefrommaster?$AA@ 0050bd48     serverbrowser.obj
 0002:00012d5c       ??_C@_0DP@ENHKENPC@?1?1?5servers?5that?5should?5never?5be?5@ 0050bd5c     serverbrowser.obj
 0002:00012d9c       ??_C@_0BH@PJDADBCI@keepserver?5?$CFs?5?$CFd?5?$CC?$CFs?$CC?6?$AA@ 0050bd9c     serverbrowser.obj
 0002:00012db4       ??_C@_0BC@PIABBGCA@keepserver?5?$CFs?5?$CFd?6?$AA@ 0050bdb4     serverbrowser.obj
 0002:00012dc8       ??_C@_0DH@LBOGOOCC@?1?1?5servers?5connected?5to?5are?5adde@ 0050bdc8     serverbrowser.obj
 0002:00012e00       ??_C@_0BG@DPJKJLNN@addserver?5?$CFs?5?$CFd?5?$CC?$CFs?$CC?6?$AA@ 0050be00     serverbrowser.obj
 0002:00012e18       ??_C@_0BB@FPJHNPJM@addserver?5?$CFs?5?$CFd?6?$AA@ 0050be18     serverbrowser.obj
 0002:00012e2c       ??_C@_04HDOCAJNK@?$CFs?$CFs?$AA@ 0050be2c     3dgui.obj
 0002:00012e34       ??_C@_01KDCPPGHE@r?$AA@    0050be34     3dgui.obj
 0002:00012e38       ??_C@_08GEIOEOPC@textlist?$AA@ 0050be38     3dgui.obj
 0002:00012e44       ??_C@_02KEGNLNML@?0?5?$AA@ 0050be44     3dgui.obj
 0002:00012e48       ??_C@_08JDCABD@textshow?$AA@ 0050be48     3dgui.obj
 0002:00012e54       ??_C@_02OCDGCAAK@si?$AA@   0050be54     3dgui.obj
 0002:00012e58       ??_C@_09CIMFNMCF@textfocus?$AA@ 0050be58     3dgui.obj
 0002:00012e64       ??_C@_08GMBLFJKP@textprev?$AA@ 0050be64     3dgui.obj
 0002:00012e70       ??_C@_08DGDFKOHL@textmode?$AA@ 0050be70     3dgui.obj
 0002:00012e7c       ??_C@_02DPKJAMEF@?$CFd?$AA@ 0050be7c     3dgui.obj
 0002:00012e80       ??_C@_08BGJIIHLF@textsave?$AA@ 0050be80     3dgui.obj
 0002:00012e8c       ??_C@_08BEIFHEGB@textload?$AA@ 0050be8c     3dgui.obj
 0002:00012e98       ??_C@_03PFJENDKN@sss?$AA@  0050be98     3dgui.obj
 0002:00012e9c       ??_C@_08CAAINPJN@textinit?$AA@ 0050be9c     3dgui.obj
 0002:00012ea8       ??_C@_08HEFNEGOL@textcopy?$AA@ 0050bea8     3dgui.obj
 0002:00012eb4       ??_C@_0N@HPPJKNOE@?$CDpastebuffer?$AA@ 0050beb4     3dgui.obj
 0002:00012ec4       ??_C@_09PDJALLN@textpaste?$AA@ 0050bec4     3dgui.obj
 0002:00012ed0       ??_C@_08FAMCCLAE@textmark?$AA@ 0050bed0     3dgui.obj
 0002:00012edc       ??_C@_01HIHLOKLC@1?$AA@    0050bedc     3dgui.obj
 0002:00012ee0       ??_C@_01FDFGLJHB@2?$AA@    0050bee0     3dgui.obj
 0002:00012ee4       ??_C@_0O@HOILJEOE@textselectall?$AA@ 0050bee4     3dgui.obj
 0002:00012ef4       ??_C@_09BIPHFCHH@textclear?$AA@ 0050bef4     3dgui.obj
 0002:00012f00       ??_C@_0BA@KFJPHIDP@textcurrentline?$AA@ 0050bf00     3dgui.obj
 0002:00012f10       ??_C@_08JMBDEHCN@textexec?$AA@ 0050bf10     3dgui.obj
 0002:00012f1c       ??_C@_0L@NOHENLJA@guiautotab?$AA@ 0050bf1c     3dgui.obj
 0002:00012f28       ??_C@_0M@BMOCMIOO@guiclicktab?$AA@ 0050bf28     3dgui.obj
 0002:00012f34       ?tc@?4??icon_@gui@@QAEXPAUTexture@@_NHHH1@Z@4QAY01$$CBMA 0050bf34     3dgui.obj
 0002:00012f54       ??_C@_0BE@OCDHCKMA@data?1guioverlay?4png?$AA@ 0050bf54     3dgui.obj
 0002:00012f68       ??_C@_0BD@OCEHMHDI@data?1guislider?4png?$AA@ 0050bf68     3dgui.obj
 0002:00012f7c       ??_C@_04GNPKBLNA@?4jpg?$AA@ 0050bf7c     3dgui.obj
 0002:00012f84       ??_C@_0BE@FFOAAHDP@packages?1icons?1?$CFs?$CFs?$AA@ 0050bf84     3dgui.obj
 0002:00012f98       ??_C@_0BB@EDCBHHBL@data?1guiskin?4png?$AA@ 0050bf98     3dgui.obj
 0002:00012fac       ??_C@_0M@GACLHFED@guipushdist?$AA@ 0050bfac     3dgui.obj
 0002:00012fb8       ??_C@_01CLKCMJKC@?5?$AA@   0050bfb8     3dgui.obj
 0002:00012fbc       ??_C@_07CFIJHJBL@guisens?$AA@ 0050bfbc     3dgui.obj
 0002:00012fc4       ??_C@_09EFNNMAAB@guifollow?$AA@ 0050bfc4     3dgui.obj
 0002:00012fd0       ??_C@_05KKOCJNF@gui2d?$AA@ 0050bfd0     3dgui.obj
 0002:00012fdc       ??_7gui@@6B@               0050bfdc     3dgui.obj
 0002:0001303c       ??_7g3d_gui@@6B@           0050c03c     3dgui.obj
 0002:00013098       ??_C@_05HLMHLIGP@blobs?$AA@ 0050c098     blob.obj
 0002:000130a0       ??_C@_0O@KKKALFLC@blobintensity?$AA@ 0050c0a0     blob.obj
 0002:000130b0       ??_C@_0L@JJCLAMCA@blobheight?$AA@ 0050c0b0     blob.obj
 0002:000130bc       ??_C@_0M@ODADEJKM@blobfadelow?$AA@ 0050c0bc     blob.obj
 0002:000130c8       ??_C@_0N@LOGKFHEJ@blobfadehigh?$AA@ 0050c0c8     blob.obj
 0002:000130d8       ??_C@_0L@PGFNFHOO@blobmargin?$AA@ 0050c0d8     blob.obj
 0002:000130e4       ??_C@_07EBOGAFFH@dbgblob?$AA@ 0050c0e4     blob.obj
 0002:000130ec       ??_C@_0N@HHHENNCM@blobstattris?$AA@ 0050c0ec     blob.obj
 0002:000130fc       ??_C@_0M@NJCLJIDG@blobdyntris?$AA@ 0050c0fc     blob.obj
 0002:00013108       ??_C@_0CC@PMNAHPJK@?$DMgrey?$DOpackages?1particles?1blob?4pn@ 0050c108     blob.obj
 0002:0001312c       ??_C@_0N@CFJCLMH@maxdecaltris?$AA@ 0050c12c     decal.obj
 0002:0001313c       ??_C@_09BMKCDGNF@decalfade?$AA@ 0050c13c     decal.obj
 0002:00013148       ??_C@_06MHMMBMIA@dbgdec?$AA@ 0050c148     decal.obj
 0002:00013150       ??_C@_0BA@FFBIIFKG@overbrightdecal?$AA@ 0050c150     decal.obj
 0002:00013160       ??_C@_0L@KEFAEFO@T?5?0?5C?5?$EA?5Ca?$AA@ 0050c160     decal.obj
 0002:0001316c       ??_C@_0O@OAFPADAN@saturatedecal?$AA@ 0050c16c     decal.obj
 0002:0001317c       ??_C@_09GBGKBBIM@C?5?$CK?5T?5x?52?$AA@ 0050c17c     decal.obj
 0002:00013188       ??_C@_0CH@LANFJANA@tris?5?$DN?5?$CFd?0?5verts?5?$DN?5?$CFd?0?5total?5tri@ 0050c188     decal.obj
 0002:000131b0       ??_C@_0CL@CPOEJEHB@?$DMgrey?$DO?$DMdecal?$DOpackages?1particles?1@ 0050c1b0     decal.obj
 0002:000131dc       ??_C@_0CD@MNLKHFAG@?$DMgrey?$DOpackages?1particles?1blood?4p@ 0050c1dc     decal.obj
 0002:00013200       ??_C@_0CE@JOENDLCK@?$DMgrey?$DOpackages?1particles?1scorch?4@ 0050c200     decal.obj
 0002:00013224       ??_C@_06FNIEFDBE@decals?$AA@ 0050c224     decal.obj
 0002:0001322c       ??_C@_0BB@CEPPFAON@maxdecaldistance?$AA@ 0050c22c     decal.obj
 0002:00013240       ??_C@_0M@FLMOCJAF@ffdynlights?$AA@ 0050c240     dynlight.obj
 0002:0001324c       ??_C@_0N@OOKIBFIK@maxdynlights?$AA@ 0050c24c     dynlight.obj
 0002:0001325c       ??_C@_0N@HLCHDLOH@dynlightdist?$AA@ 0050c25c     dynlight.obj
 0002:0001326c       ??_C@_0O@EFFIENC@dynlight?$CFdpos?$AA@ 0050c26c     dynlight.obj
 0002:0001327c       ??_C@_0BA@IKGBEEGE@dynlight?$CFdcolor?$AA@ 0050c27c     dynlight.obj
 0002:0001328c       ??_C@_0BB@KILPAGDI@dynlight?$CFdoffset?$AA@ 0050c28c     dynlight.obj
 0002:000132a0       ?depthfmts@?1??depthformats@rendertarget@@UBEPBIXZ@4QBIB 0050c2a0     glare.obj
 0002:000132b4       ??_C@_09BDCGFFAM@glaresize?$AA@ 0050c2b4     glare.obj
 0002:000132c0       ??_C@_05MLGLEIEI@glare?$AA@ 0050c2c0     glare.obj
 0002:000132c8       ??_C@_09GJCBHJJG@blurglare?$AA@ 0050c2c8     glare.obj
 0002:000132d4       ??_C@_0P@EGENGGOD@blurglaresigma?$AA@ 0050c2d4     glare.obj
 0002:000132e4       ??_C@_0L@BONJDGDE@debugglare?$AA@ 0050c2e4     glare.obj
 0002:000132f0       ??_C@_0L@NDFGAGCM@glarescale?$AA@ 0050c2f0     glare.obj
 0002:00013304       ??_7rendertarget@@6B@      0050c304     glare.obj
 0002:00013354       ??_7glaretexture@@6B@      0050c354     glare.obj
 0002:000133a0       ??_C@_08IDHKAOED@dbggrass?$AA@ 0050c3a0     grass.obj
 0002:000133ac       ??_C@_09IKBEHFNA@grassdist?$AA@ 0050c3ac     grass.obj
 0002:000133b8       ??_C@_0L@KHKHPCCG@grasstaper?$AA@ 0050c3b8     grass.obj
 0002:000133c4       ??_C@_09IGGAKLMG@grassstep?$AA@ 0050c3c4     grass.obj
 0002:000133d0       ??_C@_0M@HEFODBIP@grassheight?$AA@ 0050c3d0     grass.obj
 0002:000133dc       ??_C@_0BA@HCPIADAA@grassanimmillis?$AA@ 0050c3dc     grass.obj
 0002:000133ec       ??_C@_0P@BLNLEJNL@grassanimscale?$AA@ 0050c3ec     grass.obj
 0002:000133fc       ??_C@_0L@CCJFBOBN@grassscale?$AA@ 0050c3fc     grass.obj
 0002:00013408       ??_C@_0M@JIDCHGCJ@grasscolour?$AA@ 0050c408     grass.obj
 0002:00013414       ??_C@_0L@GFBLHHHO@grassalpha?$AA@ 0050c414     grass.obj
 0002:00013420       ??_C@_09KNPDCLGH@P?5?$CK?5T?5x?52?$AA@ 0050c420     grass.obj
 0002:0001342c       ??_C@_05IAEKHIAN@alpha?$AA@ 0050c42c     material.obj
 0002:00013434       ??_C@_05PBMMFKGI@death?$AA@ 0050c434     material.obj
 0002:0001343c       ??_C@_08EILGNIKK@gameclip?$AA@ 0050c43c     material.obj
 0002:00013448       ??_C@_04MKBPEMMM@lava?$AA@ 0050c448     material.obj
 0002:00013450       ??_C@_06IHODGGMJ@noclip?$AA@ 0050c450     material.obj
 0002:00013458       ??_C@_05NGDBJHKI@glass?$AA@ 0050c458     material.obj
 0002:00013460       ??_C@_04POIGMEJN@clip?$AA@ 0050c460     material.obj
 0002:00013468       ??_C@_05ELAABIKM@water?$AA@ 0050c468     material.obj
 0002:00013470       ??_C@_03HCOFLFO@air?$AA@   0050c470     material.obj
 0002:00013474       ??_C@_07FKBPMEFO@optmats?$AA@ 0050c474     material.obj
 0002:0001347c       ??_C@_09FOBOCPMC@lavaglare?$AA@ 0050c47c     material.obj
 0002:00013488       ??_C@_07HJABAHAM@showmat?$AA@ 0050c488     material.obj
 0002:00013490       ??_C@_08IPGBCPIC@glassenv?$AA@ 0050c490     material.obj
 0002:0001349c       ??_C@_0N@MPOGCLL@waterfallenv?$AA@ 0050c49c     material.obj
 0002:000134bc       ??_C@_06FNKMPIBD@camera?$AA@ 0050c4bc     material.obj
 0002:000134c4       ??_C@_0BE@DCIABHCF@waterfallenvrefract?$AA@ 0050c4c4     material.obj
 0002:000134d8       ??_C@_0BB@HEEMNCNM@waterfallrefract?$AA@ 0050c4d8     material.obj
 0002:000134ec       ??_C@_0L@MGEBEFCH@dudvoffset?$AA@ 0050c4ec     material.obj
 0002:000134f8       ??_C@_0BF@IDPCDKON@assembly?1GLSL?5shader?$AA@ 0050c4f8     rendergl.obj
 0002:00013510       ??_C@_0M@PFFECIFO@GLSL?5shader?$AA@ 0050c510     rendergl.obj
 0002:0001351c       ??_C@_0BA@LMFCDNBE@assembly?5shader?$AA@ 0050c51c     rendergl.obj
 0002:0001352c       ??_C@_0P@MGCNNGP@fixed?9function?$AA@ 0050c52c     rendergl.obj
 0002:0001353c       ??_C@_0L@NOAIAAGA@renderpath?$AA@ 0050c53c     rendergl.obj
 0002:00013548       ??_C@_0P@KOMPNBFC@ati_skybox_bug?$AA@ 0050c548     rendergl.obj
 0002:00013558       ??_C@_0L@GICMCGLN@ati_oq_bug?$AA@ 0050c558     rendergl.obj
 0002:00013564       ??_C@_0P@BHAEKIOL@ati_minmax_bug?$AA@ 0050c564     rendergl.obj
 0002:00013574       ??_C@_0M@PGLLFKIP@ati_dph_bug?$AA@ 0050c574     rendergl.obj
 0002:00013580       ??_C@_0BB@NLNHMLGN@ati_teximage_bug?$AA@ 0050c580     rendergl.obj
 0002:00013594       ??_C@_0N@MCINCFGN@ati_line_bug?$AA@ 0050c594     rendergl.obj
 0002:000135a4       ??_C@_0BA@CJIEBKAC@ati_cubemap_bug?$AA@ 0050c5a4     rendergl.obj
 0002:000135b4       ??_C@_0M@KLOONGGF@ati_ubo_bug?$AA@ 0050c5b4     rendergl.obj
 0002:000135c0       ??_C@_0BD@NNEKBLNI@nvidia_scissor_bug?$AA@ 0050c5c0     rendergl.obj
 0002:000135d4       ??_C@_0BE@MNJKHLLG@apple_glsldepth_bug?$AA@ 0050c5d4     rendergl.obj
 0002:000135e8       ??_C@_0N@MNIOANAP@apple_ff_bug?$AA@ 0050c5e8     rendergl.obj
 0002:000135f8       ??_C@_0N@HPNPHAEH@apple_vp_bug?$AA@ 0050c5f8     rendergl.obj
 0002:00013608       ??_C@_0BF@DNLHAGDA@sdl_backingstore_bug?$AA@ 0050c608     rendergl.obj
 0002:00013620       ??_C@_0BC@GFDAOJIL@intel_quadric_bug?$AA@ 0050c620     rendergl.obj
 0002:00013634       ??_C@_0BB@ICIELCCG@mesa_program_bug?$AA@ 0050c634     rendergl.obj
 0002:00013648       ??_C@_0N@GNMLALOH@avoidshaders?$AA@ 0050c648     rendergl.obj
 0002:00013658       ??_C@_0BA@BCIJCKFI@minimizetcusage?$AA@ 0050c658     rendergl.obj
 0002:00013668       ??_C@_0L@DHEIOBNO@emulatefog?$AA@ 0050c668     rendergl.obj
 0002:00013674       ??_C@_06PHHCJLDO@usevp2?$AA@ 0050c674     rendergl.obj
 0002:0001367c       ??_C@_06OOGJKKHP@usevp3?$AA@ 0050c67c     rendergl.obj
 0002:00013684       ??_C@_0L@IIEKEEED@usetexrect?$AA@ 0050c684     rendergl.obj
 0002:00013690       ??_C@_07PMLJLCOC@hasglsl?$AA@ 0050c690     rendergl.obj
 0002:00013698       ??_C@_06PFHAGANH@useubo?$AA@ 0050c698     rendergl.obj
 0002:000136a0       ??_C@_06NLDIFCIO@usebue?$AA@ 0050c6a0     rendergl.obj
 0002:000136a8       ??_C@_09GNIGMMGI@rtscissor?$AA@ 0050c6a8     rendergl.obj
 0002:000136b4       ??_C@_08HKGPHOB@blurtile?$AA@ 0050c6b4     rendergl.obj
 0002:000136c0       ??_C@_09IONDBCNC@rtsharefb?$AA@ 0050c6c0     rendergl.obj
 0002:000136cc       ??_C@_07GPBHHGAO@dbgexts?$AA@ 0050c6cc     rendergl.obj
 0002:000136d4       ??_C@_0BC@HJILAOAN@Renderer?3?5?$CFs?5?$CI?$CFs?$CJ?$AA@ 0050c6d4     rendergl.obj
 0002:000136e8       ??_C@_0L@HEPJLAJM@Driver?3?5?$CFs?$AA@ 0050c6e8     rendergl.obj
 0002:000136f4       ??_C@_0BL@JFMOHFPL@GL_EXT_texture_env_combine?$AA@ 0050c6f4     rendergl.obj
 0002:00013710       ??_C@_0BL@MKOBGLKK@GL_ARB_texture_env_combine?$AA@ 0050c710     rendergl.obj
 0002:0001372c       ??_C@_0BM@PEOEMMED@GL_ARB_texture_env_crossbar?$AA@ 0050c72c     rendergl.obj
 0002:00013748       ??_C@_0BM@EMDOGOG@GL_ATI_texture_env_combine3?$AA@ 0050c748     rendergl.obj
 0002:00013764       ??_C@_0BL@INAFKGJG@GL_NV_texture_env_combine4?$AA@ 0050c764     rendergl.obj
 0002:00013780       ??_C@_0BI@HELHCJPF@GL_EXT_texture_env_dot3?$AA@ 0050c780     rendergl.obj
 0002:00013798       ??_C@_0BI@LPMFLNGJ@GL_ARB_texture_env_dot3?$AA@ 0050c798     rendergl.obj
 0002:000137b0       ??_C@_0CM@DFLGHDHA@Using?5GL_ARB_texture_env_combine@ 0050c7b0     rendergl.obj
 0002:000137e0       ??_C@_0EM@BLFNMJBK@WARNING?3?5No?5texture_env_combine?5@ 0050c7e0     rendergl.obj
 0002:0001382c       ??_C@_0BE@MEMOPMEA@GL_ARB_multitexture?$AA@ 0050c82c     rendergl.obj
 0002:00013840       ??_C@_0BD@IKCKKKNH@glActiveTextureARB?$AA@ 0050c840     rendergl.obj
 0002:00013854       ??_C@_0BJ@PBJNGLJH@glClientActiveTextureARB?$AA@ 0050c854     rendergl.obj
 0002:00013870       ??_C@_0BF@GFGCIEPA@glMultiTexCoord2fARB?$AA@ 0050c870     rendergl.obj
 0002:00013888       ??_C@_0BF@KODOFHFF@glMultiTexCoord3fARB?$AA@ 0050c888     rendergl.obj
 0002:000138a0       ??_C@_0BF@LDDLGHON@glMultiTexCoord4fARB?$AA@ 0050c8a0     rendergl.obj
 0002:000138b8       ??_C@_0CF@OKPGHELH@Using?5GL_ARB_multitexture?5extens@ 0050c8b8     rendergl.obj
 0002:000138e0       ??_C@_0CE@HEJCOKIJ@WARNING?3?5No?5multitexture?5extensi@ 0050c8e0     rendergl.obj
 0002:00013904       ??_C@_0BL@CHKAOFBM@GL_ARB_pixel_buffer_object?$AA@ 0050c904     rendergl.obj
 0002:00013920       ??_C@_0CM@KLHINJPG@Using?5GL_ARB_pixel_buffer_object@ 0050c920     rendergl.obj
 0002:0001394c       ??_C@_0BA@COIMKEED@glGenBuffersARB?$AA@ 0050c94c     rendergl.obj
 0002:0001395c       ??_C@_0BA@FDIFNALK@glBindBufferARB?$AA@ 0050c95c     rendergl.obj
 0002:0001396c       ??_C@_0P@GLCCGPAH@glMapBufferARB?$AA@ 0050c96c     rendergl.obj
 0002:0001397c       ??_C@_0BB@IODLHHEP@glUnmapBufferARB?$AA@ 0050c97c     rendergl.obj
 0002:00013990       ??_C@_0BA@HLIGBCAN@glBufferDataARB?$AA@ 0050c990     rendergl.obj
 0002:000139a0       ??_C@_0BD@KFMFAAJP@glBufferSubDataARB?$AA@ 0050c9a0     rendergl.obj
 0002:000139b4       ??_C@_0BD@FPFIIGCI@glDeleteBuffersARB?$AA@ 0050c9b4     rendergl.obj
 0002:000139c8       ??_C@_0BG@DNDEGANA@glGetBufferSubDataARB?$AA@ 0050c9c8     rendergl.obj
 0002:000139e0       ??_C@_0BL@BBECEKLJ@GL_EXT_draw_range_elements?$AA@ 0050c9e0     rendergl.obj
 0002:000139fc       ??_C@_0BH@GFFILNEF@glDrawRangeElementsEXT?$AA@ 0050c9fc     rendergl.obj
 0002:00013a14       ??_C@_0CM@CEGDGNDH@Using?5GL_EXT_draw_range_elements@ 0050ca14     rendergl.obj
 0002:00013a40       ??_C@_0BJ@BEDGNCEH@GL_EXT_multi_draw_arrays?$AA@ 0050ca40     rendergl.obj
 0002:00013a5c       ??_C@_0BF@MOHHALAE@glMultiDrawArraysEXT?$AA@ 0050ca5c     rendergl.obj
 0002:00013a74       ??_C@_0BH@CPIJKLBJ@glMultiDrawElementsEXT?$AA@ 0050ca74     rendergl.obj
 0002:00013a8c       ??_C@_0CK@LCBHLCIK@Using?5GL_EXT_multi_draw_arrays?5e@ 0050ca8c     rendergl.obj
 0002:00013ab8       ??_C@_0BF@IMLAOOOI@GL_ARB_texture_float?$AA@ 0050cab8     rendergl.obj
 0002:00013ad0       ??_C@_0BF@HBFPHCFN@GL_ATI_texture_float?$AA@ 0050cad0     rendergl.obj
 0002:00013ae8       ??_C@_0CG@PHDBLDJH@Using?5GL_ARB_texture_float?5exten@ 0050cae8     rendergl.obj
 0002:00013b10       ??_C@_0BD@JIMCHLAF@GL_NV_float_buffer?$AA@ 0050cb10     rendergl.obj
 0002:00013b24       ??_C@_0CE@CLNNBKIB@Using?5GL_NV_float_buffer?5extensi@ 0050cb24     rendergl.obj
 0002:00013b48       ??_C@_0BK@GDONINOA@GL_EXT_framebuffer_object?$AA@ 0050cb48     rendergl.obj
 0002:00013b64       ??_C@_0BG@GLKALDNN@glBindRenderbufferEXT?$AA@ 0050cb64     rendergl.obj
 0002:00013b7c       ??_C@_0BJ@FCLEPNJL@glDeleteRenderbuffersEXT?$AA@ 0050cb7c     rendergl.obj
 0002:00013b98       ??_C@_0BG@HHIDFCMP@glGenRenderbuffersEXT?$AA@ 0050cb98     rendergl.obj
 0002:00013bb0       ??_C@_0BJ@NPDAOAPK@glRenderbufferStorageEXT?$AA@ 0050cbb0     rendergl.obj
 0002:00013bcc       ??_C@_0BM@GOHPHGGE@glCheckFramebufferStatusEXT?$AA@ 0050cbcc     rendergl.obj
 0002:00013be8       ??_C@_0BF@EMIECBAK@glBindFramebufferEXT?$AA@ 0050cbe8     rendergl.obj
 0002:00013c00       ??_C@_0BI@NPEJNLO@glDeleteFramebuffersEXT?$AA@ 0050cc00     rendergl.obj
 0002:00013c18       ??_C@_0BF@FFIJGJAM@glGenFramebuffersEXT?$AA@ 0050cc18     rendergl.obj
 0002:00013c30       ??_C@_0BK@LFOBEPCF@glFramebufferTexture2DEXT?$AA@ 0050cc30     rendergl.obj
 0002:00013c4c       ??_C@_0BN@BAGKOCJP@glFramebufferRenderbufferEXT?$AA@ 0050cc4c     rendergl.obj
 0002:00013c6c       ??_C@_0BE@CIGLHJJK@glGenerateMipmapEXT?$AA@ 0050cc6c     rendergl.obj
 0002:00013c80       ??_C@_0CL@EBBBBBJA@Using?5GL_EXT_framebuffer_object?5@ 0050cc80     rendergl.obj
 0002:00013cac       ??_C@_0BI@HCGEDMJI@GL_EXT_framebuffer_blit?$AA@ 0050ccac     rendergl.obj
 0002:00013cc4       ??_C@_0BF@GOMLACDI@glBlitFramebufferEXT?$AA@ 0050ccc4     rendergl.obj
 0002:00013cdc       ??_C@_0CJ@GGLOBKAL@Using?5GL_EXT_framebuffer_blit?5ex@ 0050ccdc     rendergl.obj
 0002:00013d08       ??_C@_0EH@GGHBJMHC@WARNING?3?5No?5framebuffer?5object?5s@ 0050cd08     rendergl.obj
 0002:00013d50       ??_C@_0BH@NKOBMOPI@GL_ARB_occlusion_query?$AA@ 0050cd50     rendergl.obj
 0002:00013d68       ??_C@_0BA@DPEEILJC@glGetQueryivARB?$AA@ 0050cd68     rendergl.obj
 0002:00013d78       ??_C@_0BA@BJHFNMK@glGenQueriesARB?$AA@ 0050cd78     rendergl.obj
 0002:00013d88       ??_C@_0BD@HAEDHPKB@glDeleteQueriesARB?$AA@ 0050cd88     rendergl.obj
 0002:00013d9c       ??_C@_0BA@LPKBABEB@glBeginQueryARB?$AA@ 0050cd9c     rendergl.obj
 0002:00013dac       ??_C@_0O@EFJDHGFG@glEndQueryARB?$AA@ 0050cdac     rendergl.obj
 0002:00013dbc       ??_C@_0BG@EDFKPCGN@glGetQueryObjectivARB?$AA@ 0050cdbc     rendergl.obj
 0002:00013dd4       ??_C@_0BH@OOHKBDPD@glGetQueryObjectuivARB?$AA@ 0050cdd4     rendergl.obj
 0002:00013dec       ??_C@_0CI@MGKKAJBE@Using?5GL_ARB_occlusion_query?5ext@ 0050cdec     rendergl.obj
 0002:00013e18       ??_C@_0GD@KEHNEELF@WARNING?3?5Using?5ATI?5occlusion?5que@ 0050ce18     rendergl.obj
 0002:00013e7c       ??_C@_0DO@KNDHONLH@WARNING?3?5No?5occlusion?5query?5supp@ 0050ce7c     rendergl.obj
 0002:00013ebc       ??_C@_03LHBNGNJL@ATI?$AA@  0050cebc     rendergl.obj
 0002:00013ec0       ??_C@_06HLMMPIBG@NVIDIA?$AA@ 0050cec0     rendergl.obj
 0002:00013ec8       ??_C@_0BD@MHBCPECK@GL_EXT_gpu_shader4?$AA@ 0050cec8     rendergl.obj
 0002:00013edc       ??_C@_07DBEFADEB@GeForce?$AA@ 0050cedc     rendergl.obj
 0002:00013ee4       ??_C@_05CDGBNGHP@Intel?$AA@ 0050cee4     rendergl.obj
 0002:00013eec       ??_C@_08PDMNIOLD@Tungsten?$AA@ 0050ceec     rendergl.obj
 0002:00013ef8       ??_C@_04LPBHBPME@Mesa?$AA@ 0050cef8     rendergl.obj
 0002:00013f00       ??_C@_03IEEOOBBL@DRI?$AA@  0050cf00     rendergl.obj
 0002:00013f04       ??_C@_09IBPOIBJJ@Microsoft?$AA@ 0050cf04     rendergl.obj
 0002:00013f10       ??_C@_0M@OCJAPGFL@S3?5Graphics?$AA@ 0050cf10     rendergl.obj
 0002:00013f1c       ??_C@_0BG@LDHOGOBF@GL_ARB_vertex_program?$AA@ 0050cf1c     rendergl.obj
 0002:00013f34       ??_C@_0BI@LELAEDDA@GL_ARB_fragment_program?$AA@ 0050cf34     rendergl.obj
 0002:00013f4c       ??_C@_0BB@JDDNIFAN@glGenProgramsARB?$AA@ 0050cf4c     rendergl.obj
 0002:00013f60       ??_C@_0BE@EJCMOJPP@glDeleteProgramsARB?$AA@ 0050cf60     rendergl.obj
 0002:00013f74       ??_C@_0BB@OAGHGJAC@glBindProgramARB?$AA@ 0050cf74     rendergl.obj
 0002:00013f88       ??_C@_0BD@HIBLHAHB@glProgramStringARB?$AA@ 0050cf88     rendergl.obj
 0002:00013f9c       ??_C@_0BC@OHCOJECC@glGetProgramivARB?$AA@ 0050cf9c     rendergl.obj
 0002:00013fb0       ??_C@_0BL@PPAMELBE@glProgramEnvParameter4fARB?$AA@ 0050cfb0     rendergl.obj
 0002:00013fcc       ??_C@_0BM@JFOBMKCG@glProgramEnvParameter4fvARB?$AA@ 0050cfcc     rendergl.obj
 0002:00013fe8       ??_C@_0BN@FKABDPBF@glEnableVertexAttribArrayARB?$AA@ 0050cfe8     rendergl.obj
 0002:00014008       ??_C@_0BO@HGKLJN@glDisableVertexAttribArrayARB?$AA@ 0050d008     rendergl.obj
 0002:00014028       ??_C@_0BJ@KNOILOPF@glVertexAttribPointerARB?$AA@ 0050d028     rendergl.obj
 0002:00014044       ??_C@_0BM@IABMMANC@GL_ARB_shading_language_100?$AA@ 0050d044     rendergl.obj
 0002:00014060       ??_C@_0BG@OLLFAEMA@GL_ARB_shader_objects?$AA@ 0050d060     rendergl.obj
 0002:00014078       ??_C@_0BF@GNLBPIJF@GL_ARB_vertex_shader?$AA@ 0050d078     rendergl.obj
 0002:00014090       ??_C@_0BH@MOFIMEJB@GL_ARB_fragment_shader?$AA@ 0050d090     rendergl.obj
 0002:000140a8       ??_C@_0BJ@KGMBEPBI@glCreateProgramObjectARB?$AA@ 0050d0a8     rendergl.obj
 0002:000140c4       ??_C@_0BC@MJFNICLA@glDeleteObjectARB?$AA@ 0050d0c4     rendergl.obj
 0002:000140d8       ??_C@_0BG@JEOFPDIM@glUseProgramObjectARB?$AA@ 0050d0d8     rendergl.obj
 0002:000140f0       ??_C@_0BI@FMNPOEGE@glCreateShaderObjectARB?$AA@ 0050d0f0     rendergl.obj
 0002:00014108       ??_C@_0BC@MCCOFGJG@glShaderSourceARB?$AA@ 0050d108     rendergl.obj
 0002:0001411c       ??_C@_0BD@BEDGBOPM@glCompileShaderARB?$AA@ 0050d11c     rendergl.obj
 0002:00014130       ??_C@_0BK@IDAIKMOL@glGetObjectParameterivARB?$AA@ 0050d130     rendergl.obj
 0002:0001414c       ??_C@_0BC@GINLBKLJ@glAttachObjectARB?$AA@ 0050d14c     rendergl.obj
 0002:00014160       ??_C@_0BA@FLIOBLOG@glGetInfoLogARB?$AA@ 0050d160     rendergl.obj
 0002:00014170       ??_C@_0BB@HPIAOOAG@glLinkProgramARB?$AA@ 0050d170     rendergl.obj
 0002:00014184       ??_C@_0BI@CAFPPHDC@glGetUniformLocationARB?$AA@ 0050d184     rendergl.obj
 0002:0001419c       ??_C@_0P@KFNIAEEC@glUniform1fARB?$AA@ 0050d19c     rendergl.obj
 0002:000141ac       ??_C@_0P@CDEMHGOM@glUniform2fARB?$AA@ 0050d1ac     rendergl.obj
 0002:000141bc       ??_C@_0P@OIBAKFEJ@glUniform3fARB?$AA@ 0050d1bc     rendergl.obj
 0002:000141cc       ??_C@_0P@PFBFJFPB@glUniform4fARB?$AA@ 0050d1cc     rendergl.obj
 0002:000141dc       ??_C@_0BA@BHLDOKKI@glUniform1fvARB?$AA@ 0050d1dc     rendergl.obj
 0002:000141ec       ??_C@_0BA@CGFLPADF@glUniform2fvARB?$AA@ 0050d1ec     rendergl.obj
 0002:000141fc       ??_C@_0BA@IACMPLIB@glUniform3fvARB?$AA@ 0050d1fc     rendergl.obj
 0002:0001420c       ??_C@_0BA@EFILMFAP@glUniform4fvARB?$AA@ 0050d20c     rendergl.obj
 0002:0001421c       ??_C@_0P@CHIIJDJD@glUniform1iARB?$AA@ 0050d21c     rendergl.obj
 0002:0001422c       ??_C@_0BI@HAONMJFP@glBindAttribLocationARB?$AA@ 0050d22c     rendergl.obj
 0002:00014244       ??_C@_0BG@FNEOAGIK@glGetActiveUniformARB?$AA@ 0050d244     rendergl.obj
 0002:00014260       ??_C@_0GI@MGMMEOBK@WARNING?3?5Using?5Apple?5GLSL?5depth?5@ 0050d260     rendergl.obj
 0002:000142c8       ??_C@_0BN@GDAFGLIP@GL_NV_vertex_program2_option?$AA@ 0050d2c8     rendergl.obj
 0002:000142e8       ??_C@_0BG@KPIALAPB@GL_NV_vertex_program3?$AA@ 0050d2e8     rendergl.obj
 0002:00014300       ??_C@_0BO@JOJLOPAH@GL_EXT_gpu_program_parameters?$AA@ 0050d300     rendergl.obj
 0002:00014320       ??_C@_0BN@FHPFOAIA@glProgramEnvParameters4fvEXT?$AA@ 0050d320     rendergl.obj
 0002:00014340       ??_C@_0BP@JDOGGDOI@glProgramLocalParameters4fvEXT?$AA@ 0050d340     rendergl.obj
 0002:00014360       ??_C@_0CP@JFHNHAAL@Using?5GL_EXT_gpu_program_paramet@ 0050d360     rendergl.obj
 0002:00014390       ??_C@_0BN@GLDJDGLC@GL_ARB_uniform_buffer_object?$AA@ 0050d390     rendergl.obj
 0002:000143b0       ??_C@_0BE@MDPMIDEE@glGetUniformIndices?$AA@ 0050d3b0     rendergl.obj
 0002:000143c4       ??_C@_0BG@JEHIMPCG@glGetActiveUniformsiv?$AA@ 0050d3c4     rendergl.obj
 0002:000143dc       ??_C@_0BH@CBDIMHHE@glGetUniformBlockIndex?$AA@ 0050d3dc     rendergl.obj
 0002:000143f4       ??_C@_0BK@DMHOPJGL@glGetActiveUniformBlockiv?$AA@ 0050d3f4     rendergl.obj
 0002:00014410       ??_C@_0BG@BOLEKKCP@glUniformBlockBinding?$AA@ 0050d410     rendergl.obj
 0002:00014428       ??_C@_0BB@LDPKOCJI@glBindBufferBase?$AA@ 0050d428     rendergl.obj
 0002:0001443c       ??_C@_0BC@EEMMCHMB@glBindBufferRange?$AA@ 0050d43c     rendergl.obj
 0002:00014450       ??_C@_0CO@MBCPJNAF@Using?5GL_ARB_uniform_buffer_obje@ 0050d450     rendergl.obj
 0002:00014480       ??_C@_0BI@FJEJKAHN@GL_EXT_bindable_uniform?$AA@ 0050d480     rendergl.obj
 0002:00014498       ??_C@_0BD@HHOMEDEN@glUniformBufferEXT?$AA@ 0050d498     rendergl.obj
 0002:000144ac       ??_C@_0BK@JHNNOGKB@glGetUniformBufferSizeEXT?$AA@ 0050d4ac     rendergl.obj
 0002:000144c8       ??_C@_0BG@DFAIJAMP@glGetUniformOffsetEXT?$AA@ 0050d4c8     rendergl.obj
 0002:000144e0       ??_C@_0CJ@DMOJGGHN@Using?5GL_EXT_bindable_uniform?5ex@ 0050d4e0     rendergl.obj
 0002:0001450c       ??_C@_0BJ@CDAOFBMC@GL_EXT_texture_rectangle?$AA@ 0050d50c     rendergl.obj
 0002:00014528       ??_C@_0BJ@NKHMPMDJ@GL_ARB_texture_rectangle?$AA@ 0050d528     rendergl.obj
 0002:00014544       ??_C@_0CK@GLEHCEIA@Using?5GL_ARB_texture_rectangle?5e@ 0050d544     rendergl.obj
 0002:00014570       ??_C@_0EA@LPHIGJLP@WARNING?3?5No?5texture?5rectangle?5su@ 0050d570     rendergl.obj
 0002:000145b0       ??_C@_0BM@EBAGAGKL@GL_EXT_packed_depth_stencil?$AA@ 0050d5b0     rendergl.obj
 0002:000145cc       ??_C@_0BL@FNNDLGCL@GL_NV_packed_depth_stencil?$AA@ 0050d5cc     rendergl.obj
 0002:000145e8       ??_C@_0CN@GHLGPBII@Using?5GL_EXT_packed_depth_stenci@ 0050d5e8     rendergl.obj
 0002:00014618       ??_C@_0BE@CICKIAIK@GL_EXT_blend_minmax?$AA@ 0050d618     rendergl.obj
 0002:0001462c       ??_C@_0BD@CFOJJHII@glBlendEquationEXT?$AA@ 0050d62c     rendergl.obj
 0002:00014640       ??_C@_0CF@PGCAIFJM@Using?5GL_EXT_blend_minmax?5extens@ 0050d640     rendergl.obj
 0002:00014668       ??_C@_0BD@LMOCEJB@GL_EXT_blend_color?$AA@ 0050d668     rendergl.obj
 0002:0001467c       ??_C@_0BA@EGDGJFLJ@glBlendColorEXT?$AA@ 0050d67c     rendergl.obj
 0002:0001468c       ??_C@_0CE@ENDHAFJE@Using?5GL_EXT_blend_color?5extensi@ 0050d68c     rendergl.obj
 0002:000146b0       ??_C@_0BB@KKBCECGP@GL_EXT_fog_coord?$AA@ 0050d6b0     rendergl.obj
 0002:000146c4       ??_C@_0BF@FOOIEJCC@glFogCoordPointerEXT?$AA@ 0050d6c4     rendergl.obj
 0002:000146dc       ??_C@_0CC@IAIONFDB@Using?5GL_EXT_fog_coord?5extension@ 0050d6dc     rendergl.obj
 0002:00014700       ??_C@_0BI@GGDPEJMJ@GL_ARB_texture_cube_map?$AA@ 0050d700     rendergl.obj
 0002:00014718       ??_C@_0CJ@MHBILGEJ@Using?5GL_ARB_texture_cube_map?5ex@ 0050d718     rendergl.obj
 0002:00014744       ??_C@_0DM@CLGPGOGL@WARNING?3?5No?5cube?5map?5texture?5sup@ 0050d744     rendergl.obj
 0002:00014780       ??_C@_0CA@IICOLDCN@GL_ARB_texture_non_power_of_two?$AA@ 0050d780     rendergl.obj
 0002:000147a0       ??_C@_0DB@IAFLHAOC@Using?5GL_ARB_texture_non_power_o@ 0050d7a0     rendergl.obj
 0002:000147d4       ??_C@_0DC@CBFJMFED@WARNING?3?5Non?9power?9of?9two?5textur@ 0050d7d4     rendergl.obj
 0002:00014808       ??_C@_0BL@PEFPCGDJ@GL_ARB_texture_compression?$AA@ 0050d808     rendergl.obj
 0002:00014824       ??_C@_0CA@DJMDGOCK@GL_EXT_texture_compression_s3tc?$AA@ 0050d824     rendergl.obj
 0002:00014844       ??_C@_0BK@CIBKLOLF@glCompressedTexImage3DARB?$AA@ 0050d844     rendergl.obj
 0002:00014860       ??_C@_0BK@ODEGGNBA@glCompressedTexImage2DARB?$AA@ 0050d860     rendergl.obj
 0002:0001487c       ??_C@_0BK@GFNCBPLO@glCompressedTexImage1DARB?$AA@ 0050d87c     rendergl.obj
 0002:00014898       ??_C@_0BN@HMALDDJO@glCompressedTexSubImage3DARB?$AA@ 0050d898     rendergl.obj
 0002:000148b8       ??_C@_0BN@LHFHOADL@glCompressedTexSubImage2DARB?$AA@ 0050d8b8     rendergl.obj
 0002:000148d8       ??_C@_0BN@DBMDJCJF@glCompressedTexSubImage1DARB?$AA@ 0050d8d8     rendergl.obj
 0002:000148f8       ??_C@_0BL@CKKCLKDF@glGetCompressedTexImageARB?$AA@ 0050d8f8     rendergl.obj
 0002:00014914       ??_C@_0DB@NCKKNBBN@Using?5GL_EXT_texture_compression@ 0050d914     rendergl.obj
 0002:00014948       ??_C@_0CC@BCHFGKCK@GL_EXT_texture_filter_anisotropi@ 0050d948     rendergl.obj
 0002:0001496c       ??_C@_0DD@HPKDPCMD@Using?5GL_EXT_texture_filter_anis@ 0050d96c     rendergl.obj
 0002:000149a0       ??_C@_0BI@MOOJOJFP@GL_SGIS_generate_mipmap?$AA@ 0050d9a0     rendergl.obj
 0002:000149b8       ??_C@_0CJ@EBFHEDAF@Using?5GL_SGIS_generate_mipmap?5ex@ 0050d9b8     rendergl.obj
 0002:000149e4       ??_C@_0BF@OKLDDGBF@GL_ARB_depth_texture?$AA@ 0050d9e4     rendergl.obj
 0002:000149fc       ??_C@_0CG@NGKJMDLI@Using?5GL_ARB_depth_texture?5exten@ 0050d9fc     rendergl.obj
 0002:00014a24       ??_C@_0BG@ODHAJHLE@GL_SGIX_depth_texture?$AA@ 0050da24     rendergl.obj
 0002:00014a3c       ??_C@_0CH@BMKPKO@Using?5GL_SGIX_depth_texture?5exte@ 0050da3c     rendergl.obj
 0002:00014a64       ??_C@_0O@LPGJHGJB@GL_ARB_shadow?$AA@ 0050da64     rendergl.obj
 0002:00014a74       ??_C@_09PCKNBEPM@Radeon?5HD?$AA@ 0050da74     rendergl.obj
 0002:00014a80       ??_C@_0BP@PJDJJJBE@Using?5GL_ARB_shadow?5extension?4?$AA@ 0050da80     rendergl.obj
 0002:00014aa0       ??_C@_0P@KFBBLMBN@GL_SGIX_shadow?$AA@ 0050daa0     rendergl.obj
 0002:00014ab0       ??_C@_0CA@IDELKEJJ@Using?5GL_SGIX_shadow?5extension?4?$AA@ 0050dab0     rendergl.obj
 0002:00014ad0       ??_C@_0BG@MLFGMAPO@GL_EXT_rescale_normal?$AA@ 0050dad0     rendergl.obj
 0002:00014ae8       ??_C@_0CH@LEELPBDO@Using?5GL_EXT_rescale_normal?5exte@ 0050dae8     rendergl.obj
 0002:00014b10       ??_C@_05BKEHHJNJ@glext?$AA@ 0050db10     rendergl.obj
 0002:00014b18       ??_C@_0FG@KMJKIDKH@WARNING?3?5No?5shader?5support?$CB?5Usin@ 0050db18     rendergl.obj
 0002:00014b80       ??_C@_0CE@FPPBBEFO@Rendering?5using?5the?5OpenGL?5?$CFs?5pa@ 0050db80     rendergl.obj
 0002:00014ba4       ??_C@_09EJHLMDCH@wireframe?$AA@ 0050dba4     rendergl.obj
 0002:00014bb0       ??_C@_09CFFCOMMO@getcampos?$AA@ 0050dbb0     rendergl.obj
 0002:00014bbc       ??_C@_08EPEHIMMI@?$CFs?5?$CFs?5?$CFs?$AA@ 0050dbbc     rendergl.obj
 0002:00014bc8       ??_C@_09FNJHBGAB@zoominvel?$AA@ 0050dbc8     rendergl.obj
 0002:00014bd4       ??_C@_0L@IDGONENH@zoomoutvel?$AA@ 0050dbd4     rendergl.obj
 0002:00014be0       ??_C@_07GGBAGFAD@zoomfov?$AA@ 0050dbe0     rendergl.obj
 0002:00014be8       ??_C@_03PKBINKFB@fov?$AA@  0050dbe8     rendergl.obj
 0002:00014bec       ??_C@_0O@MEDGILKA@avatarzoomfov?$AA@ 0050dbec     rendergl.obj
 0002:00014bfc       ??_C@_09MBJGIDGH@avatarfov?$AA@ 0050dbfc     rendergl.obj
 0002:00014c08       ??_C@_0M@ICMCCJDJ@avatardepth?$AA@ 0050dc08     rendergl.obj
 0002:00014c14       ??_C@_04HKCCIOCO@zoom?$AA@ 0050dc14     rendergl.obj
 0002:00014c1c       ??_C@_08EIPFGBLE@zoomsens?$AA@ 0050dc1c     rendergl.obj
 0002:00014c28       ??_C@_09COJDPHHA@zoomaccel?$AA@ 0050dc28     rendergl.obj
 0002:00014c34       ??_C@_0N@HHCPKPAN@zoomautosens?$AA@ 0050dc34     rendergl.obj
 0002:00014c44       ??_C@_0M@JFLMCFNC@sensitivity?$AA@ 0050dc44     rendergl.obj
 0002:00014c50       ??_C@_0BB@CNFCEFCM@sensitivityscale?$AA@ 0050dc50     rendergl.obj
 0002:00014c64       ??_C@_08BODLGOGL@invmouse?$AA@ 0050dc64     rendergl.obj
 0002:00014c70       ??_C@_0L@NNEMBNJF@mouseaccel?$AA@ 0050dc70     rendergl.obj
 0002:00014c7c       ??_C@_0M@BIELKGOF@thirdperson?$AA@ 0050dc7c     rendergl.obj
